
build/DEBUG/kernel.bin:     file format elf64-x86-64


Disassembly of section .multiboot:

0000000000100000 <multiboot_start>:
  100000:	d6                   	(bad)
  100001:	50                   	push   %rax
  100002:	52                   	push   %rdx
  100003:	e8 00 00 00 00       	callq  100008 <multiboot_start+0x8>
  100008:	60                   	(bad)
  100009:	00 00                	add    %al,(%rax)
  10000b:	00 ca                	add    %cl,%dl
  10000d:	ae                   	scas   %es:(%rdi),%al
  10000e:	ad                   	lods   %ds:(%rsi),%eax
  10000f:	17                   	(bad)
  100010:	03 00                	add    (%rax),%eax
  100012:	00 00                	add    %al,(%rax)
  100014:	0c 00                	or     $0x0,%al
  100016:	00 00                	add    %al,(%rax)
  100018:	8e 40 10             	mov    0x10(%rax),%es
  10001b:	00 00                	add    %al,(%rax)
  10001d:	00 00                	add    %al,(%rax)
  10001f:	00 01                	add    %al,(%rcx)
  100021:	00 00                	add    %al,(%rax)
  100023:	00 1c 00             	add    %bl,(%rax,%rax,1)
  100026:	00 00                	add    %al,(%rax)
  100028:	06                   	(bad)
  100029:	00 00                	add    %al,(%rax)
  10002b:	00 08                	add    %cl,(%rax)
  10002d:	00 00                	add    %al,(%rax)
  10002f:	00 09                	add    %cl,(%rcx)
  100031:	00 00                	add    %al,(%rax)
  100033:	00 0e                	add    %cl,(%rsi)
  100035:	00 00                	add    %al,(%rax)
  100037:	00 0f                	add    %cl,(%rdi)
  100039:	00 00                	add    %al,(%rax)
  10003b:	00 00                	add    %al,(%rax)
  10003d:	00 00                	add    %al,(%rax)
  10003f:	00 05 00 00 00 14    	add    %al,0x14000000(%rip)        # 14100045 <.Crash+0x13ffbe38>
  100045:	00 00                	add    %al,(%rax)
  100047:	00 80 07 00 00 38    	add    %al,0x38000007(%rax)
  10004d:	04 00                	add    $0x0,%al
  10004f:	00 20                	add    %ah,(%rax)
	...
  100059:	00 00                	add    %al,(%rax)
  10005b:	00 08                	add    %cl,(%rax)
  10005d:	00 00                	add    %al,(%rax)
	...

0000000000100060 <multiboot_end>:
	...

0000000000104060 <stack_top>:
	...

0000000000104068 <temp_stor_magic>:
	...

0000000000104070 <gdt64>:
	...

0000000000104078 <.coded>:
  104078:	00 00                	add    %al,(%rax)
  10407a:	00 00                	add    %al,(%rax)
  10407c:	00 9a 20 00 00 00    	add    %bl,0x20(%rdx)

0000000000104080 <.datad>:
  104080:	00 00                	add    %al,(%rax)
  104082:	00 00                	add    %al,(%rax)
  104084:	00 92 00 00 17 00    	add    %dl,0x170000(%rdx)

0000000000104088 <.GDTPTR>:
  104088:	17                   	(bad)
  104089:	00 70 40             	add    %dh,0x40(%rax)
  10408c:	10 00                	adc    %al,(%rax)

000000000010408e <_start>:
  10408e:	bf 00 10 00 00       	mov    $0x1000,%edi
  104093:	0f 22 df             	mov    %rdi,%cr3
  104096:	a3 68 40 10 00 89 1d 	movabs %eax,0x40601d8900104068
  10409d:	60 40
  10409f:	10 00                	adc    %al,(%rax)
  1040a1:	b8 01 00 00 80       	mov    $0x80000001,%eax
  1040a6:	0f a2                	cpuid
  1040a8:	f7 c2 00 00 00 20    	test   $0x20000000,%edx
  1040ae:	0f 84 59 01 00 00    	je     10420d <.Crash>
  1040b4:	31 c0                	xor    %eax,%eax
  1040b6:	b9 00 10 00 00       	mov    $0x1000,%ecx
  1040bb:	f3 ab                	rep stos %eax,%es:(%rdi)
  1040bd:	b9 00 10 00 00       	mov    $0x1000,%ecx
  1040c2:	f3 ab                	rep stos %eax,%es:(%rdi)
  1040c4:	b9 00 10 00 00       	mov    $0x1000,%ecx
  1040c9:	f3 ab                	rep stos %eax,%es:(%rdi)
  1040cb:	0f 20 df             	mov    %cr3,%rdi
  1040ce:	c7 07 03 20 00 00    	movl   $0x2003,(%rdi)
  1040d4:	c7 87 f8 0f 00 00 03 	movl   $0x5003,0xff8(%rdi)
  1040db:	50 00 00
  1040de:	81 c7 00 10 00 00    	add    $0x1000,%edi
  1040e4:	c7 07 03 30 00 00    	movl   $0x3003,(%rdi)
  1040ea:	81 c7 00 10 00 00    	add    $0x1000,%edi
  1040f0:	c7 07 03 40 00 00    	movl   $0x4003,(%rdi)
  1040f6:	81 c7 00 10 00 00    	add    $0x1000,%edi
  1040fc:	c7 87 e0 1f 00 00 00 	movl   $0x0,0x1fe0(%rdi)
  104103:	00 00 00
  104106:	c7 87 e8 1f 00 00 00 	movl   $0x0,0x1fe8(%rdi)
  10410d:	00 00 00
  104110:	c7 87 f0 1f 00 00 00 	movl   $0x0,0x1ff0(%rdi)
  104117:	00 00 00
  10411a:	c7 87 f8 1f 00 00 00 	movl   $0x0,0x1ff8(%rdi)
  104121:	00 00 00
  104124:	c7 87 c0 1f 00 00 8b 	movl   $0x108b,0x1fc0(%rdi)
  10412b:	10 00 00
  10412e:	c7 87 c8 1f 00 00 8b 	movl   $0x4000108b,0x1fc8(%rdi)
  104135:	10 00 40
  104138:	c7 87 d0 1f 00 00 8b 	movl   $0x8000108b,0x1fd0(%rdi)
  10413f:	10 00 80
  104142:	c7 87 d8 1f 00 00 8b 	movl   $0xc000108b,0x1fd8(%rdi)
  104149:	10 00 c0
  10414c:	c7 87 e0 1f 00 00 8b 	movl   $0x8000108b,0x1fe0(%rdi)
  104153:	10 00 80
  104156:	c7 87 e8 1f 00 00 8b 	movl   $0xc000108b,0x1fe8(%rdi)
  10415d:	10 00 c0
  104160:	c7 87 f0 1f 00 00 8b 	movl   $0x108b,0x1ff0(%rdi)
  104167:	10 00 00
  10416a:	c7 87 f8 1f 00 00 8b 	movl   $0x4000108b,0x1ff8(%rdi)
  104171:	10 00 40
  104174:	bf 00 40 00 00       	mov    $0x4000,%edi
  104179:	bb 03 00 00 00       	mov    $0x3,%ebx
  10417e:	b9 00 02 00 00       	mov    $0x200,%ecx

0000000000104183 <.SetEntry>:
  104183:	89 1f                	mov    %ebx,(%rdi)
  104185:	81 c3 00 10 00 00    	add    $0x1000,%ebx
  10418b:	83 c7 08             	add    $0x8,%edi
  10418e:	e2 f3                	loop   104183 <.SetEntry>
  104190:	0f 20 e0             	mov    %cr4,%rax
  104193:	83 c8 20             	or     $0x20,%eax
  104196:	0f 22 e0             	mov    %rax,%cr4
  104199:	b9 80 00 00 c0       	mov    $0xc0000080,%ecx
  10419e:	0f 32                	rdmsr
  1041a0:	0d 00 01 00 00       	or     $0x100,%eax
  1041a5:	0f 30                	wrmsr
  1041a7:	0f 20 c0             	mov    %cr0,%rax
  1041aa:	0d 00 00 00 80       	or     $0x80000000,%eax
  1041af:	0f 22 c0             	mov    %rax,%cr0
  1041b2:	0f 01 15 88 40 10 00 	lgdt   0x104088(%rip)        # 208241 <.Crash+0x104034>
  1041b9:	89 d3                	mov    %edx,%ebx
  1041bb:	ea                   	(bad)
  1041bc:	c2 41 10             	retq   $0x1041
  1041bf:	00 08                	add    %cl,(%rax)
  1041c1:	00 66 b8             	add    %ah,-0x48(%rsi)
  1041c4:	10 00                	adc    %al,(%rax)
  1041c6:	66 8e d8             	mov    %ax,%ds
  1041c9:	66 8e c0             	mov    %ax,%es
  1041cc:	66 8e e0             	mov    %ax,%fs
  1041cf:	66 8e e8             	mov    %ax,%gs
  1041d2:	66 8e d0             	mov    %ax,%ss
  1041d5:	48 bc 00 00 00 00 fe 	movabs $0xfffffffe00000000,%rsp
  1041dc:	ff ff ff
  1041df:	48 bf 00 00 00 00 fe 	movabs $0xfffffffe00000000,%rdi
  1041e6:	ff ff ff
  1041e9:	48 81 c4 60 40 10 00 	add    $0x104060,%rsp
  1041f0:	48 8b 34 25 68 40 10 	mov    0x104068,%rsi
  1041f7:	00
  1041f8:	48 03 3c 25 60 40 10 	add    0x104060,%rdi
  1041ff:	00
  104200:	48 c7 c0 00 00 20 80 	mov    $0xffffffff80200000,%rax
  104207:	50                   	push   %rax
  104208:	c3                   	retq
  104209:	fa                   	cli
  10420a:	f4                   	hlt
  10420b:	eb fe                	jmp    10420b <.SetEntry+0x88>

000000000010420d <.Crash>:
  10420d:	fb                   	sti
  10420e:	cd 00                	int    $0x0
  104210:	eb fb                	jmp    10420d <.Crash>

Disassembly of section .trampoline_code:

000000000000f000 <gdt64>:
	...

000000000000f008 <.coded>:
    f008:	00 00                	add    %al,(%rax)
    f00a:	00 00                	add    %al,(%rax)
    f00c:	00 9a 20 00 00 00    	add    %bl,0x20(%rdx)

000000000000f010 <.datad>:
    f010:	00 00                	add    %al,(%rax)
    f012:	00 00                	add    %al,(%rax)
    f014:	00 92 00 00 17 00    	add    %dl,0x170000(%rdx)

000000000000f018 <.GDTPTR>:
    f018:	17                   	(bad)
    f019:	00 00                	add    %al,(%rax)
    f01b:	f0 00 00             	lock add %al,(%rax)

000000000000f01e <_trampoline>:
    f01e:	fa                   	cli
    f01f:	66 b8 00 10          	mov    $0x1000,%ax
    f023:	00 00                	add    %al,(%rax)
    f025:	0f 22 d8             	mov    %rax,%cr3
    f028:	0f 20 e0             	mov    %cr4,%rax
    f02b:	66 0d a0 00          	or     $0xa0,%ax
    f02f:	00 00                	add    %al,(%rax)
    f031:	0f 22 e0             	mov    %rax,%cr4
    f034:	66 b9 80 00          	mov    $0x80,%cx
    f038:	00 c0                	add    %al,%al
    f03a:	0f 32                	rdmsr
    f03c:	66 0d 00 01          	or     $0x100,%ax
    f040:	00 00                	add    %al,(%rax)
    f042:	0f 30                	wrmsr
    f044:	0f 20 c3             	mov    %cr0,%rbx
    f047:	66 81 cb 01 00       	or     $0x1,%bx
    f04c:	00 80 0f 22 c3 67    	add    %al,0x67c3220f(%rax)
    f052:	0f 01 15 18 f0 00 00 	lgdt   0xf018(%rip)        # 1e071 <smp_bootstrap+0xedd1>
    f059:	ea                   	(bad)
    f05a:	5e                   	pop    %rsi
    f05b:	f0 08 00             	lock or %al,(%rax)

000000000000f05e <.tJmp>:
    f05e:	66 b8 10 00          	mov    $0x10,%ax
    f062:	66 8e d8             	mov    %ax,%ds
    f065:	66 8e c0             	mov    %ax,%es
    f068:	66 8e e0             	mov    %ax,%fs
    f06b:	66 8e e8             	mov    %ax,%gs
    f06e:	66 8e d0             	mov    %ax,%ss
    f071:	48 bc 00 00 00 00 fe 	movabs $0xfffffffe00000000,%rsp
    f078:	ff ff ff
    f07b:	48 81 c4 94 f2 00 00 	add    $0xf294,%rsp
    f082:	48 c7 c0 00 00 00 80 	mov    $0xffffffff80000000,%rax
    f089:	48 81 c0 a0 f2 00 00 	add    $0xf2a0,%rax
    f090:	50                   	push   %rax
    f091:	c3                   	retq
    f092:	fa                   	cli
    f093:	f4                   	hlt

000000000000f094 <tramp_stack_bottom>:
	...

000000000000f294 <tramp_stack_top>:
    f294:	66 2e 0f 1f 84 00 00 	nopw   %cs:0x0(%rax,%rax,1)
    f29b:	00 00 00
    f29e:	66 90                	xchg   %ax,%ax

000000000000f2a0 <smp_bootstrap>:
    f2a0:	55                   	push   %rbp
    f2a1:	48 89 e5             	mov    %rsp,%rbp
    f2a4:	48 83 ec 10          	sub    $0x10,%rsp
    f2a8:	8b 04 25 00 80 20 80 	mov    0xffffffff80208000,%eax
    f2af:	ff c0                	inc    %eax
    f2b1:	89 04 25 00 80 20 80 	mov    %eax,0xffffffff80208000
    f2b8:	f4                   	hlt
    f2b9:	b8 00 40 00 00       	mov    $0x4000,%eax
    f2be:	89 c1                	mov    %eax,%ecx
    f2c0:	b8 00 40 00 00       	mov    $0x4000,%eax
    f2c5:	89 c7                	mov    %eax,%edi
    f2c7:	48 89 4d f0          	mov    %rcx,-0x10(%rbp)
    f2cb:	e8 00 68 1f 80       	callq  ffffffff80205ad0 <bootstrap_malloc>
    f2d0:	48 89 45 f8          	mov    %rax,-0x8(%rbp)
    f2d4:	48 8b 45 f8          	mov    -0x8(%rbp),%rax
    f2d8:	48 05 00 40 00 00    	add    $0x4000,%rax
    f2de:	48 89 45 f8          	mov    %rax,-0x8(%rbp)
    f2e2:	48 8b 45 f8          	mov    -0x8(%rbp),%rax
    f2e6:	48 89 c4             	mov    %rax,%rsp
    f2e9:	31 d2                	xor    %edx,%edx
    f2eb:	40 88 d6             	mov    %dl,%sil
    f2ee:	40 88 f0             	mov    %sil,%al
    f2f1:	e8 fa 0f 1f 80       	callq  ffffffff802002f0 <GDT_Initialize>
    f2f6:	e8 f5 12 1f 80       	callq  ffffffff802005f0 <IDT_Initialize>
    f2fb:	e8 b0 18 1f 80       	callq  ffffffff80200bb0 <FPU_Initialize>
    f300:	eb fe                	jmp    f300 <smp_bootstrap+0x60>

Disassembly of section .text:

ffffffff80200000 <bootstrap_kernel>:
ffffffff80200000:	55                   	push   %rbp
ffffffff80200001:	48 89 e5             	mov    %rsp,%rbp
ffffffff80200004:	48 83 ec 50          	sub    $0x50,%rsp
ffffffff80200008:	48 89 7d f8          	mov    %rdi,-0x8(%rbp)
ffffffff8020000c:	48 89 75 f0          	mov    %rsi,-0x10(%rbp)
ffffffff80200010:	48 c7 45 e8 00 00 00 	movq   $0x0,-0x18(%rbp)
ffffffff80200017:	00
ffffffff80200018:	0f 20 d8             	mov    %cr3,%rax
ffffffff8020001b:	48 89 45 e8          	mov    %rax,-0x18(%rbp)
ffffffff8020001f:	48 8b 45 e8          	mov    -0x18(%rbp),%rax
ffffffff80200023:	48 89 c7             	mov    %rax,%rdi
ffffffff80200026:	e8 85 15 00 00       	callq  ffffffff802015b0 <GetVirtualAddress>
ffffffff8020002b:	48 89 45 e8          	mov    %rax,-0x18(%rbp)
ffffffff8020002f:	48 8b 7d f8          	mov    -0x8(%rbp),%rdi
ffffffff80200033:	e8 18 5b 00 00       	callq  ffffffff80205b50 <ParseAndSaveBootInformation>
ffffffff80200038:	e8 73 5d 00 00       	callq  ffffffff80205db0 <GetBootInfo>
ffffffff8020003d:	48 89 45 e0          	mov    %rax,-0x20(%rbp)
ffffffff80200041:	48 8b 45 e0          	mov    -0x20(%rbp),%rax
ffffffff80200045:	48 8b 78 30          	mov    0x30(%rax),%rdi
ffffffff80200049:	e8 62 15 00 00       	callq  ffffffff802015b0 <GetVirtualAddress>
ffffffff8020004e:	48 8b 75 e0          	mov    -0x20(%rbp),%rsi
ffffffff80200052:	48 89 46 30          	mov    %rax,0x30(%rsi)
ffffffff80200056:	48 81 7d f0 89 62 d7 	cmpq   $0x36d76289,-0x10(%rbp)
ffffffff8020005d:	36
ffffffff8020005e:	74 17                	je     ffffffff80200077 <bootstrap_kernel+0x77>
ffffffff80200060:	b8 ff 00 00 00       	mov    $0xff,%eax
ffffffff80200065:	bf ff 00 00 00       	mov    $0xff,%edi
ffffffff8020006a:	89 45 c4             	mov    %eax,-0x3c(%rbp)
ffffffff8020006d:	e8 4e 02 00 00       	callq  ffffffff802002c0 <bootstrap_kernel_panic>
ffffffff80200072:	e9 a3 00 00 00       	jmpq   ffffffff8020011a <bootstrap_kernel+0x11a>
ffffffff80200077:	c7 45 dc 00 00 00 00 	movl   $0x0,-0x24(%rbp)
ffffffff8020007e:	8b 45 dc             	mov    -0x24(%rbp),%eax
ffffffff80200081:	48 8b 4d e0          	mov    -0x20(%rbp),%rcx
ffffffff80200085:	3b 41 40             	cmp    0x40(%rcx),%eax
ffffffff80200088:	0f 83 8a 00 00 00    	jae    ffffffff80200118 <bootstrap_kernel+0x118>
ffffffff8020008e:	c7 45 d8 00 00 00 00 	movl   $0x0,-0x28(%rbp)
ffffffff80200095:	8b 45 d8             	mov    -0x28(%rbp),%eax
ffffffff80200098:	48 8b 4d e0          	mov    -0x20(%rbp),%rcx
ffffffff8020009c:	3b 41 38             	cmp    0x38(%rcx),%eax
ffffffff8020009f:	73 67                	jae    ffffffff80200108 <bootstrap_kernel+0x108>
ffffffff802000a1:	8b 45 dc             	mov    -0x24(%rbp),%eax
ffffffff802000a4:	83 e0 0f             	and    $0xf,%eax
ffffffff802000a7:	c1 e8 02             	shr    $0x2,%eax
ffffffff802000aa:	83 f8 00             	cmp    $0x0,%eax
ffffffff802000ad:	0f 94 c1             	sete   %cl
ffffffff802000b0:	80 e1 01             	and    $0x1,%cl
ffffffff802000b3:	0f b6 c1             	movzbl %cl,%eax
ffffffff802000b6:	69 c0 00 cc ff 00    	imul   $0xffcc00,%eax,%eax
ffffffff802000bc:	8b 55 d8             	mov    -0x28(%rbp),%edx
ffffffff802000bf:	83 e2 3f             	and    $0x3f,%edx
ffffffff802000c2:	c1 ea 04             	shr    $0x4,%edx
ffffffff802000c5:	83 fa 00             	cmp    $0x0,%edx
ffffffff802000c8:	0f 94 c1             	sete   %cl
ffffffff802000cb:	80 e1 01             	and    $0x1,%cl
ffffffff802000ce:	0f b6 d1             	movzbl %cl,%edx
ffffffff802000d1:	69 d2 00 cc ff 00    	imul   $0xffcc00,%edx,%edx
ffffffff802000d7:	09 d0                	or     %edx,%eax
ffffffff802000d9:	48 8b 75 e0          	mov    -0x20(%rbp),%rsi
ffffffff802000dd:	48 8b 76 30          	mov    0x30(%rsi),%rsi
ffffffff802000e1:	8b 55 d8             	mov    -0x28(%rbp),%edx
ffffffff802000e4:	89 d7                	mov    %edx,%edi
ffffffff802000e6:	48 01 fe             	add    %rdi,%rsi
ffffffff802000e9:	8b 55 dc             	mov    -0x24(%rbp),%edx
ffffffff802000ec:	48 8b 7d e0          	mov    -0x20(%rbp),%rdi
ffffffff802000f0:	0f af 57 38          	imul   0x38(%rdi),%edx
ffffffff802000f4:	89 d2                	mov    %edx,%edx
ffffffff802000f6:	89 d7                	mov    %edx,%edi
ffffffff802000f8:	48 01 fe             	add    %rdi,%rsi
ffffffff802000fb:	89 06                	mov    %eax,(%rsi)
ffffffff802000fd:	8b 45 d8             	mov    -0x28(%rbp),%eax
ffffffff80200100:	83 c0 04             	add    $0x4,%eax
ffffffff80200103:	89 45 d8             	mov    %eax,-0x28(%rbp)
ffffffff80200106:	eb 8d                	jmp    ffffffff80200095 <bootstrap_kernel+0x95>
ffffffff80200108:	eb 00                	jmp    ffffffff8020010a <bootstrap_kernel+0x10a>
ffffffff8020010a:	8b 45 dc             	mov    -0x24(%rbp),%eax
ffffffff8020010d:	83 c0 01             	add    $0x1,%eax
ffffffff80200110:	89 45 dc             	mov    %eax,-0x24(%rbp)
ffffffff80200113:	e9 66 ff ff ff       	jmpq   ffffffff8020007e <bootstrap_kernel+0x7e>
ffffffff80200118:	eb 00                	jmp    ffffffff8020011a <bootstrap_kernel+0x11a>
ffffffff8020011a:	31 c0                	xor    %eax,%eax
ffffffff8020011c:	88 c1                	mov    %al,%cl
ffffffff8020011e:	88 c8                	mov    %cl,%al
ffffffff80200120:	e8 cb 01 00 00       	callq  ffffffff802002f0 <GDT_Initialize>
ffffffff80200125:	e8 c6 04 00 00       	callq  ffffffff802005f0 <IDT_Initialize>
ffffffff8020012a:	48 c7 c6 90 02 20 80 	mov    $0xffffffff80200290,%rsi
ffffffff80200131:	bf 0e 00 00 00       	mov    $0xe,%edi
ffffffff80200136:	e8 e5 08 00 00       	callq  ffffffff80200a20 <IDT_RegisterHandler>
ffffffff8020013b:	e8 70 0a 00 00       	callq  ffffffff80200bb0 <FPU_Initialize>
ffffffff80200140:	e8 7b 5c 00 00       	callq  ffffffff80205dc0 <ACPITables_Initialize>
ffffffff80200145:	88 45 c3             	mov    %al,-0x3d(%rbp)
ffffffff80200148:	e8 03 23 00 00       	callq  ffffffff80202450 <APIC_Initialize>
ffffffff8020014d:	bf ff ff 00 00       	mov    $0xffff,%edi
ffffffff80200152:	89 45 bc             	mov    %eax,-0x44(%rbp)
ffffffff80200155:	e8 d6 00 00 00       	callq  ffffffff80200230 <bootstrap_render>
ffffffff8020015a:	e8 31 27 00 00       	callq  ffffffff80202890 <MemMan_Initialize>
ffffffff8020015f:	bf 00 00 ff ff       	mov    $0xffff0000,%edi
ffffffff80200164:	89 45 b8             	mov    %eax,-0x48(%rbp)
ffffffff80200167:	e8 c4 00 00 00       	callq  ffffffff80200230 <bootstrap_render>
ffffffff8020016c:	e8 4f 2a 00 00       	callq  ffffffff80202bc0 <VirtMemMan_Initialize>
ffffffff80200171:	bf 00 ff 00 00       	mov    $0xff00,%edi
ffffffff80200176:	e8 b5 00 00 00       	callq  ffffffff80200230 <bootstrap_render>
ffffffff8020017b:	e8 60 0b 00 00       	callq  ffffffff80200ce0 <RTC_Initialize>
ffffffff80200180:	bf 0f ff 00 00       	mov    $0xff0f,%edi
ffffffff80200185:	e8 a6 00 00 00       	callq  ffffffff80200230 <bootstrap_render>
ffffffff8020018a:	e8 e1 44 00 00       	callq  ffffffff80204670 <kernel_main>
ffffffff8020018f:	8b 04 25 00 80 20 80 	mov    0xffffffff80208000,%eax
ffffffff80200196:	83 f8 01             	cmp    $0x1,%eax
ffffffff80200199:	75 0c                	jne    ffffffff802001a7 <bootstrap_kernel+0x1a7>
ffffffff8020019b:	31 c0                	xor    %eax,%eax
ffffffff8020019d:	31 ff                	xor    %edi,%edi
ffffffff8020019f:	89 45 b4             	mov    %eax,-0x4c(%rbp)
ffffffff802001a2:	e8 19 01 00 00       	callq  ffffffff802002c0 <bootstrap_kernel_panic>
ffffffff802001a7:	c7 45 d4 00 00 ff 00 	movl   $0xff0000,-0x2c(%rbp)
ffffffff802001ae:	c7 45 d0 00 ff ff 00 	movl   $0xffff00,-0x30(%rbp)
ffffffff802001b5:	c7 45 cc 00 00 00 00 	movl   $0x0,-0x34(%rbp)
ffffffff802001bc:	c7 45 c8 00 00 00 00 	movl   $0x0,-0x38(%rbp)
ffffffff802001c3:	8b 45 c8             	mov    -0x38(%rbp),%eax
ffffffff802001c6:	48 8b 4d e0          	mov    -0x20(%rbp),%rcx
ffffffff802001ca:	8b 51 40             	mov    0x40(%rcx),%edx
ffffffff802001cd:	48 8b 4d e0          	mov    -0x20(%rbp),%rcx
ffffffff802001d1:	0f af 51 38          	imul   0x38(%rcx),%edx
ffffffff802001d5:	39 d0                	cmp    %edx,%eax
ffffffff802001d7:	73 20                	jae    ffffffff802001f9 <bootstrap_kernel+0x1f9>
ffffffff802001d9:	8b 45 d4             	mov    -0x2c(%rbp),%eax
ffffffff802001dc:	48 8b 4d e0          	mov    -0x20(%rbp),%rcx
ffffffff802001e0:	48 8b 49 30          	mov    0x30(%rcx),%rcx
ffffffff802001e4:	8b 55 c8             	mov    -0x38(%rbp),%edx
ffffffff802001e7:	89 d6                	mov    %edx,%esi
ffffffff802001e9:	48 01 f1             	add    %rsi,%rcx
ffffffff802001ec:	89 01                	mov    %eax,(%rcx)
ffffffff802001ee:	8b 45 c8             	mov    -0x38(%rbp),%eax
ffffffff802001f1:	83 c0 04             	add    $0x4,%eax
ffffffff802001f4:	89 45 c8             	mov    %eax,-0x38(%rbp)
ffffffff802001f7:	eb ca                	jmp    ffffffff802001c3 <bootstrap_kernel+0x1c3>
ffffffff802001f9:	8b 45 cc             	mov    -0x34(%rbp),%eax
ffffffff802001fc:	83 c0 01             	add    $0x1,%eax
ffffffff802001ff:	89 45 cc             	mov    %eax,-0x34(%rbp)
ffffffff80200202:	81 7d cc 80 00 00 00 	cmpl   $0x80,-0x34(%rbp)
ffffffff80200209:	75 19                	jne    ffffffff80200224 <bootstrap_kernel+0x224>
ffffffff8020020b:	8b 45 d4             	mov    -0x2c(%rbp),%eax
ffffffff8020020e:	89 45 cc             	mov    %eax,-0x34(%rbp)
ffffffff80200211:	8b 45 d0             	mov    -0x30(%rbp),%eax
ffffffff80200214:	89 45 d4             	mov    %eax,-0x2c(%rbp)
ffffffff80200217:	8b 45 cc             	mov    -0x34(%rbp),%eax
ffffffff8020021a:	89 45 d0             	mov    %eax,-0x30(%rbp)
ffffffff8020021d:	c7 45 cc 00 00 00 00 	movl   $0x0,-0x34(%rbp)
ffffffff80200224:	eb 96                	jmp    ffffffff802001bc <bootstrap_kernel+0x1bc>
ffffffff80200226:	66 90                	xchg   %ax,%ax
ffffffff80200228:	0f 1f 84 00 00 00 00 	nopl   0x0(%rax,%rax,1)
ffffffff8020022f:	00

ffffffff80200230 <bootstrap_render>:
ffffffff80200230:	55                   	push   %rbp
ffffffff80200231:	48 89 e5             	mov    %rsp,%rbp
ffffffff80200234:	48 83 ec 20          	sub    $0x20,%rsp
ffffffff80200238:	89 7d fc             	mov    %edi,-0x4(%rbp)
ffffffff8020023b:	e8 70 5b 00 00       	callq  ffffffff80205db0 <GetBootInfo>
ffffffff80200240:	48 89 45 f0          	mov    %rax,-0x10(%rbp)
ffffffff80200244:	c7 45 ec 00 00 00 00 	movl   $0x0,-0x14(%rbp)
ffffffff8020024b:	8b 45 ec             	mov    -0x14(%rbp),%eax
ffffffff8020024e:	48 8b 4d f0          	mov    -0x10(%rbp),%rcx
ffffffff80200252:	8b 51 40             	mov    0x40(%rcx),%edx
ffffffff80200255:	48 8b 4d f0          	mov    -0x10(%rbp),%rcx
ffffffff80200259:	0f af 51 38          	imul   0x38(%rcx),%edx
ffffffff8020025d:	39 d0                	cmp    %edx,%eax
ffffffff8020025f:	73 20                	jae    ffffffff80200281 <bootstrap_render+0x51>
ffffffff80200261:	8b 45 fc             	mov    -0x4(%rbp),%eax
ffffffff80200264:	48 8b 4d f0          	mov    -0x10(%rbp),%rcx
ffffffff80200268:	48 8b 49 30          	mov    0x30(%rcx),%rcx
ffffffff8020026c:	8b 55 ec             	mov    -0x14(%rbp),%edx
ffffffff8020026f:	89 d6                	mov    %edx,%esi
ffffffff80200271:	48 01 f1             	add    %rsi,%rcx
ffffffff80200274:	89 01                	mov    %eax,(%rcx)
ffffffff80200276:	8b 45 ec             	mov    -0x14(%rbp),%eax
ffffffff80200279:	83 c0 04             	add    $0x4,%eax
ffffffff8020027c:	89 45 ec             	mov    %eax,-0x14(%rbp)
ffffffff8020027f:	eb ca                	jmp    ffffffff8020024b <bootstrap_render+0x1b>
ffffffff80200281:	48 83 c4 20          	add    $0x20,%rsp
ffffffff80200285:	5d                   	pop    %rbp
ffffffff80200286:	c3                   	retq
ffffffff80200287:	66 0f 1f 84 00 00 00 	nopw   0x0(%rax,%rax,1)
ffffffff8020028e:	00 00

ffffffff80200290 <bootstrap_pagefault_handler>:
ffffffff80200290:	55                   	push   %rbp
ffffffff80200291:	48 89 e5             	mov    %rsp,%rbp
ffffffff80200294:	48 83 ec 10          	sub    $0x10,%rsp
ffffffff80200298:	48 89 7d f8          	mov    %rdi,-0x8(%rbp)
ffffffff8020029c:	48 8b 7d f8          	mov    -0x8(%rbp),%rdi
ffffffff802002a0:	48 b8 ff aa ff aa 00 	movabs $0xaaffaaff,%rax
ffffffff802002a7:	00 00 00
ffffffff802002aa:	48 03 87 80 00 00 00 	add    0x80(%rdi),%rax
ffffffff802002b1:	89 c1                	mov    %eax,%ecx
ffffffff802002b3:	89 cf                	mov    %ecx,%edi
ffffffff802002b5:	e8 76 ff ff ff       	callq  ffffffff80200230 <bootstrap_render>
ffffffff802002ba:	48 83 c4 10          	add    $0x10,%rsp
ffffffff802002be:	5d                   	pop    %rbp
ffffffff802002bf:	c3                   	retq

ffffffff802002c0 <bootstrap_kernel_panic>:
ffffffff802002c0:	55                   	push   %rbp
ffffffff802002c1:	48 89 e5             	mov    %rsp,%rbp
ffffffff802002c4:	48 83 ec 10          	sub    $0x10,%rsp
ffffffff802002c8:	40 88 f8             	mov    %dil,%al
ffffffff802002cb:	88 45 ff             	mov    %al,-0x1(%rbp)
ffffffff802002ce:	b8 ff 00 00 00       	mov    $0xff,%eax
ffffffff802002d3:	0f b6 4d ff          	movzbl -0x1(%rbp),%ecx
ffffffff802002d7:	29 c8                	sub    %ecx,%eax
ffffffff802002d9:	0d 00 00 ff 00       	or     $0xff0000,%eax
ffffffff802002de:	89 c7                	mov    %eax,%edi
ffffffff802002e0:	e8 4b ff ff ff       	callq  ffffffff80200230 <bootstrap_render>
ffffffff802002e5:	eb e7                	jmp    ffffffff802002ce <bootstrap_kernel_panic+0xe>
ffffffff802002e7:	66 0f 1f 84 00 00 00 	nopw   0x0(%rax,%rax,1)
ffffffff802002ee:	00 00

ffffffff802002f0 <GDT_Initialize>:
ffffffff802002f0:	55                   	push   %rbp
ffffffff802002f1:	48 89 e5             	mov    %rsp,%rbp
ffffffff802002f4:	41 56                	push   %r14
ffffffff802002f6:	53                   	push   %rbx
ffffffff802002f7:	48 83 ec 60          	sub    $0x60,%rsp
ffffffff802002fb:	31 c0                	xor    %eax,%eax
ffffffff802002fd:	fa                   	cli
ffffffff802002fe:	48 c7 c7 00 90 20 80 	mov    $0xffffffff80209000,%rdi
ffffffff80200305:	b9 a0 00 00 00       	mov    $0xa0,%ecx
ffffffff8020030a:	89 ca                	mov    %ecx,%edx
ffffffff8020030c:	31 f6                	xor    %esi,%esi
ffffffff8020030e:	89 45 ec             	mov    %eax,-0x14(%rbp)
ffffffff80200311:	e8 ca 43 00 00       	callq  ffffffff802046e0 <memset>
ffffffff80200316:	66 c7 04 25 0c 90 20 	movw   $0x10,0xffffffff8020900c
ffffffff8020031d:	80 10 00
ffffffff80200320:	66 c7 04 25 9e 90 20 	movw   $0xa0,0xffffffff8020909e
ffffffff80200327:	80 a0 00
ffffffff8020032a:	66 c7 04 25 84 90 20 	movw   $0xb,0xffffffff80209084
ffffffff80200331:	80 0b 00
ffffffff80200334:	66 c7 04 25 94 90 20 	movw   $0x13,0xffffffff80209094
ffffffff8020033b:	80 13 00
ffffffff8020033e:	66 c7 04 25 90 90 20 	movw   $0x13,0xffffffff80209090
ffffffff80200345:	80 13 00
ffffffff80200348:	66 c7 04 25 80 90 20 	movw   $0x13,0xffffffff80209080
ffffffff8020034f:	80 13 00
ffffffff80200352:	66 c7 04 25 8c 90 20 	movw   $0x13,0xffffffff8020908c
ffffffff80200359:	80 13 00
ffffffff8020035c:	66 c7 04 25 88 90 20 	movw   $0x13,0xffffffff80209088
ffffffff80200363:	80 13 00
ffffffff80200366:	66 c7 04 25 a0 90 20 	movw   $0x2f,0xffffffff802090a0
ffffffff8020036d:	80 2f 00
ffffffff80200370:	48 c7 04 25 a2 90 20 	movq   $0xffffffff802090b0,0xffffffff802090a2
ffffffff80200377:	80 b0 90 20 80
ffffffff8020037c:	31 c9                	xor    %ecx,%ecx
ffffffff8020037e:	89 cf                	mov    %ecx,%edi
ffffffff80200380:	89 ce                	mov    %ecx,%esi
ffffffff80200382:	89 ca                	mov    %ecx,%edx
ffffffff80200384:	89 4d e8             	mov    %ecx,-0x18(%rbp)
ffffffff80200387:	44 8b 45 e8          	mov    -0x18(%rbp),%r8d
ffffffff8020038b:	48 89 45 e0          	mov    %rax,-0x20(%rbp)
ffffffff8020038f:	e8 9c 01 00 00       	callq  ffffffff80200530 <GDT_SetEntry>
ffffffff80200394:	b9 01 00 00 00       	mov    $0x1,%ecx
ffffffff80200399:	31 d2                	xor    %edx,%edx
ffffffff8020039b:	be ff ff ff ff       	mov    $0xffffffff,%esi
ffffffff802003a0:	bf 9a 00 00 00       	mov    $0x9a,%edi
ffffffff802003a5:	41 b8 20 00 00 00    	mov    $0x20,%r8d
ffffffff802003ab:	41 b9 01 00 00 00    	mov    $0x1,%r9d
ffffffff802003b1:	45 31 d2             	xor    %r10d,%r10d
ffffffff802003b4:	41 bb ff ff ff ff    	mov    $0xffffffff,%r11d
ffffffff802003ba:	bb 9a 00 00 00       	mov    $0x9a,%ebx
ffffffff802003bf:	41 be 20 00 00 00    	mov    $0x20,%r14d
ffffffff802003c5:	89 7d dc             	mov    %edi,-0x24(%rbp)
ffffffff802003c8:	44 89 cf             	mov    %r9d,%edi
ffffffff802003cb:	89 75 d8             	mov    %esi,-0x28(%rbp)
ffffffff802003ce:	44 89 d6             	mov    %r10d,%esi
ffffffff802003d1:	89 55 d4             	mov    %edx,-0x2c(%rbp)
ffffffff802003d4:	44 89 da             	mov    %r11d,%edx
ffffffff802003d7:	89 4d d0             	mov    %ecx,-0x30(%rbp)
ffffffff802003da:	89 d9                	mov    %ebx,%ecx
ffffffff802003dc:	44 89 45 cc          	mov    %r8d,-0x34(%rbp)
ffffffff802003e0:	45 89 f0             	mov    %r14d,%r8d
ffffffff802003e3:	e8 48 01 00 00       	callq  ffffffff80200530 <GDT_SetEntry>
ffffffff802003e8:	b9 02 00 00 00       	mov    $0x2,%ecx
ffffffff802003ed:	31 d2                	xor    %edx,%edx
ffffffff802003ef:	be ff ff ff ff       	mov    $0xffffffff,%esi
ffffffff802003f4:	bf 92 00 00 00       	mov    $0x92,%edi
ffffffff802003f9:	41 b8 02 00 00 00    	mov    $0x2,%r8d
ffffffff802003ff:	41 b9 ff ff ff ff    	mov    $0xffffffff,%r9d
ffffffff80200405:	41 ba 92 00 00 00    	mov    $0x92,%r10d
ffffffff8020040b:	45 31 db             	xor    %r11d,%r11d
ffffffff8020040e:	89 7d c8             	mov    %edi,-0x38(%rbp)
ffffffff80200411:	44 89 c7             	mov    %r8d,%edi
ffffffff80200414:	89 75 c4             	mov    %esi,-0x3c(%rbp)
ffffffff80200417:	44 89 de             	mov    %r11d,%esi
ffffffff8020041a:	89 55 c0             	mov    %edx,-0x40(%rbp)
ffffffff8020041d:	44 89 ca             	mov    %r9d,%edx
ffffffff80200420:	89 4d bc             	mov    %ecx,-0x44(%rbp)
ffffffff80200423:	44 89 d1             	mov    %r10d,%ecx
ffffffff80200426:	45 89 d8             	mov    %r11d,%r8d
ffffffff80200429:	e8 02 01 00 00       	callq  ffffffff80200530 <GDT_SetEntry>
ffffffff8020042e:	b9 03 00 00 00       	mov    $0x3,%ecx
ffffffff80200433:	31 d2                	xor    %edx,%edx
ffffffff80200435:	be ff ff ff ff       	mov    $0xffffffff,%esi
ffffffff8020043a:	bf fa 00 00 00       	mov    $0xfa,%edi
ffffffff8020043f:	41 b8 20 00 00 00    	mov    $0x20,%r8d
ffffffff80200445:	41 b9 03 00 00 00    	mov    $0x3,%r9d
ffffffff8020044b:	45 31 d2             	xor    %r10d,%r10d
ffffffff8020044e:	41 bb ff ff ff ff    	mov    $0xffffffff,%r11d
ffffffff80200454:	bb fa 00 00 00       	mov    $0xfa,%ebx
ffffffff80200459:	41 be 20 00 00 00    	mov    $0x20,%r14d
ffffffff8020045f:	89 7d b8             	mov    %edi,-0x48(%rbp)
ffffffff80200462:	44 89 cf             	mov    %r9d,%edi
ffffffff80200465:	89 75 b4             	mov    %esi,-0x4c(%rbp)
ffffffff80200468:	44 89 d6             	mov    %r10d,%esi
ffffffff8020046b:	89 55 b0             	mov    %edx,-0x50(%rbp)
ffffffff8020046e:	44 89 da             	mov    %r11d,%edx
ffffffff80200471:	89 4d ac             	mov    %ecx,-0x54(%rbp)
ffffffff80200474:	89 d9                	mov    %ebx,%ecx
ffffffff80200476:	44 89 45 a8          	mov    %r8d,-0x58(%rbp)
ffffffff8020047a:	45 89 f0             	mov    %r14d,%r8d
ffffffff8020047d:	e8 ae 00 00 00       	callq  ffffffff80200530 <GDT_SetEntry>
ffffffff80200482:	b9 04 00 00 00       	mov    $0x4,%ecx
ffffffff80200487:	31 d2                	xor    %edx,%edx
ffffffff80200489:	be ff ff ff ff       	mov    $0xffffffff,%esi
ffffffff8020048e:	bf f2 00 00 00       	mov    $0xf2,%edi
ffffffff80200493:	41 b8 04 00 00 00    	mov    $0x4,%r8d
ffffffff80200499:	41 b9 ff ff ff ff    	mov    $0xffffffff,%r9d
ffffffff8020049f:	41 ba f2 00 00 00    	mov    $0xf2,%r10d
ffffffff802004a5:	45 31 db             	xor    %r11d,%r11d
ffffffff802004a8:	89 7d a4             	mov    %edi,-0x5c(%rbp)
ffffffff802004ab:	44 89 c7             	mov    %r8d,%edi
ffffffff802004ae:	89 75 a0             	mov    %esi,-0x60(%rbp)
ffffffff802004b1:	44 89 de             	mov    %r11d,%esi
ffffffff802004b4:	89 55 9c             	mov    %edx,-0x64(%rbp)
ffffffff802004b7:	44 89 ca             	mov    %r9d,%edx
ffffffff802004ba:	89 4d 98             	mov    %ecx,-0x68(%rbp)
ffffffff802004bd:	44 89 d1             	mov    %r10d,%ecx
ffffffff802004c0:	45 89 d8             	mov    %r11d,%r8d
ffffffff802004c3:	e8 68 00 00 00       	callq  ffffffff80200530 <GDT_SetEntry>
ffffffff802004c8:	b9 05 00 00 00       	mov    $0x5,%ecx
ffffffff802004cd:	48 c7 c0 00 90 20 80 	mov    $0xffffffff80209000,%rax
ffffffff802004d4:	89 c2                	mov    %eax,%edx
ffffffff802004d6:	89 d6                	mov    %edx,%esi
ffffffff802004d8:	81 c6 a0 00 00 00    	add    $0xa0,%esi
ffffffff802004de:	bf 05 00 00 00       	mov    $0x5,%edi
ffffffff802004e3:	41 b8 e9 00 00 00    	mov    $0xe9,%r8d
ffffffff802004e9:	45 31 c9             	xor    %r9d,%r9d
ffffffff802004ec:	89 75 94             	mov    %esi,-0x6c(%rbp)
ffffffff802004ef:	89 d6                	mov    %edx,%esi
ffffffff802004f1:	8b 55 94             	mov    -0x6c(%rbp),%edx
ffffffff802004f4:	89 4d 90             	mov    %ecx,-0x70(%rbp)
ffffffff802004f7:	44 89 c1             	mov    %r8d,%ecx
ffffffff802004fa:	45 89 c8             	mov    %r9d,%r8d
ffffffff802004fd:	e8 2e 00 00 00       	callq  ffffffff80200530 <GDT_SetEntry>
ffffffff80200502:	48 c7 c0 a0 90 20 80 	mov    $0xffffffff802090a0,%rax
ffffffff80200509:	0f 01 10             	lgdt   (%rax)
ffffffff8020050c:	48 c7 c0 15 05 20 80 	mov    $0xffffffff80200515,%rax
ffffffff80200513:	50                   	push   %rax
ffffffff80200514:	c3                   	retq

ffffffff80200515 <flush>:
ffffffff80200515:	66 b8 10 00          	mov    $0x10,%ax
ffffffff80200519:	8e d8                	mov    %eax,%ds
ffffffff8020051b:	8e c0                	mov    %eax,%es
ffffffff8020051d:	8e e0                	mov    %eax,%fs
ffffffff8020051f:	8e e8                	mov    %eax,%gs
ffffffff80200521:	8e d0                	mov    %eax,%ss
ffffffff80200523:	48 83 c4 60          	add    $0x60,%rsp
ffffffff80200527:	5b                   	pop    %rbx
ffffffff80200528:	41 5e                	pop    %r14
ffffffff8020052a:	5d                   	pop    %rbp
ffffffff8020052b:	c3                   	retq
ffffffff8020052c:	0f 1f 40 00          	nopl   0x0(%rax)

ffffffff80200530 <GDT_SetEntry>:
ffffffff80200530:	55                   	push   %rbp
ffffffff80200531:	48 89 e5             	mov    %rsp,%rbp
ffffffff80200534:	48 83 ec 10          	sub    $0x10,%rsp
ffffffff80200538:	44 88 c0             	mov    %r8b,%al
ffffffff8020053b:	41 88 c9             	mov    %cl,%r9b
ffffffff8020053e:	89 7d fc             	mov    %edi,-0x4(%rbp)
ffffffff80200541:	89 75 f8             	mov    %esi,-0x8(%rbp)
ffffffff80200544:	89 55 f4             	mov    %edx,-0xc(%rbp)
ffffffff80200547:	44 88 4d f3          	mov    %r9b,-0xd(%rbp)
ffffffff8020054b:	88 45 f2             	mov    %al,-0xe(%rbp)
ffffffff8020054e:	66 44 8b 55 f8       	mov    -0x8(%rbp),%r10w
ffffffff80200553:	4c 63 5d fc          	movslq -0x4(%rbp),%r11
ffffffff80200557:	66 46 89 14 dd b2 90 	mov    %r10w,-0x7fdf6f4e(,%r11,8)
ffffffff8020055e:	20 80
ffffffff80200560:	8a 45 fa             	mov    -0x6(%rbp),%al
ffffffff80200563:	4c 63 5d fc          	movslq -0x4(%rbp),%r11
ffffffff80200567:	42 88 04 dd b4 90 20 	mov    %al,-0x7fdf6f4c(,%r11,8)
ffffffff8020056e:	80
ffffffff8020056f:	8a 45 fb             	mov    -0x5(%rbp),%al
ffffffff80200572:	4c 63 5d fc          	movslq -0x4(%rbp),%r11
ffffffff80200576:	42 88 04 dd b7 90 20 	mov    %al,-0x7fdf6f49(,%r11,8)
ffffffff8020057d:	80
ffffffff8020057e:	66 44 8b 55 f4       	mov    -0xc(%rbp),%r10w
ffffffff80200583:	4c 63 5d fc          	movslq -0x4(%rbp),%r11
ffffffff80200587:	66 46 89 14 dd b0 90 	mov    %r10w,-0x7fdf6f50(,%r11,8)
ffffffff8020058e:	20 80
ffffffff80200590:	0f b7 4d f6          	movzwl -0xa(%rbp),%ecx
ffffffff80200594:	83 e1 0f             	and    $0xf,%ecx
ffffffff80200597:	88 c8                	mov    %cl,%al
ffffffff80200599:	4c 63 5d fc          	movslq -0x4(%rbp),%r11
ffffffff8020059d:	42 88 04 dd b6 90 20 	mov    %al,-0x7fdf6f4a(,%r11,8)
ffffffff802005a4:	80
ffffffff802005a5:	0f b6 4d f2          	movzbl -0xe(%rbp),%ecx
ffffffff802005a9:	81 e1 f0 00 00 00    	and    $0xf0,%ecx
ffffffff802005af:	4c 63 5d fc          	movslq -0x4(%rbp),%r11
ffffffff802005b3:	42 0f b6 14 dd b6 90 	movzbl -0x7fdf6f4a(,%r11,8),%edx
ffffffff802005ba:	20 80
ffffffff802005bc:	09 ca                	or     %ecx,%edx
ffffffff802005be:	88 d0                	mov    %dl,%al
ffffffff802005c0:	42 88 04 dd b6 90 20 	mov    %al,-0x7fdf6f4a(,%r11,8)
ffffffff802005c7:	80
ffffffff802005c8:	8a 45 f3             	mov    -0xd(%rbp),%al
ffffffff802005cb:	4c 63 5d fc          	movslq -0x4(%rbp),%r11
ffffffff802005cf:	4e 8d 1c dd b0 90 20 	lea    -0x7fdf6f50(,%r11,8),%r11
ffffffff802005d6:	80
ffffffff802005d7:	41 88 43 05          	mov    %al,0x5(%r11)
ffffffff802005db:	48 83 c4 10          	add    $0x10,%rsp
ffffffff802005df:	5d                   	pop    %rbp
ffffffff802005e0:	c3                   	retq
ffffffff802005e1:	66 2e 0f 1f 84 00 00 	nopw   %cs:0x0(%rax,%rax,1)
ffffffff802005e8:	00 00 00
ffffffff802005eb:	0f 1f 44 00 00       	nopl   0x0(%rax,%rax,1)

ffffffff802005f0 <IDT_Initialize>:
ffffffff802005f0:	55                   	push   %rbp
ffffffff802005f1:	48 89 e5             	mov    %rsp,%rbp
ffffffff802005f4:	48 83 ec 20          	sub    $0x20,%rsp
ffffffff802005f8:	66 c7 04 25 e0 a4 20 	movw   $0xfff,0xffffffff8020a4e0
ffffffff802005ff:	80 ff 0f
ffffffff80200602:	48 c7 04 25 e2 a4 20 	movq   $0xffffffff8020a4f0,0xffffffff8020a4e2
ffffffff80200609:	80 f0 a4 20 80
ffffffff8020060e:	48 c7 45 f8 e0 a4 20 	movq   $0xffffffff8020a4e0,-0x8(%rbp)
ffffffff80200615:	80
ffffffff80200616:	fa                   	cli
ffffffff80200617:	48 8b 45 f8          	mov    -0x8(%rbp),%rax
ffffffff8020061b:	0f 01 18             	lidt   (%rax)
ffffffff8020061e:	c7 45 f4 00 00 00 00 	movl   $0x0,-0xc(%rbp)
ffffffff80200625:	81 7d f4 00 01 00 00 	cmpl   $0x100,-0xc(%rbp)
ffffffff8020062c:	7d 2d                	jge    ffffffff8020065b <IDT_Initialize+0x6b>
ffffffff8020062e:	31 c0                	xor    %eax,%eax
ffffffff80200630:	89 c6                	mov    %eax,%esi
ffffffff80200632:	89 c7                	mov    %eax,%edi
ffffffff80200634:	89 c2                	mov    %eax,%edx
ffffffff80200636:	89 c1                	mov    %eax,%ecx
ffffffff80200638:	e8 c3 00 00 00       	callq  ffffffff80200700 <IDT_SetEntry>
ffffffff8020063d:	48 63 75 f4          	movslq -0xc(%rbp),%rsi
ffffffff80200641:	48 8d 34 f5 f0 b4 20 	lea    -0x7fdf4b10(,%rsi,8),%rsi
ffffffff80200648:	80
ffffffff80200649:	48 c7 06 00 00 00 00 	movq   $0x0,(%rsi)
ffffffff80200650:	8b 45 f4             	mov    -0xc(%rbp),%eax
ffffffff80200653:	83 c0 01             	add    $0x1,%eax
ffffffff80200656:	89 45 f4             	mov    %eax,-0xc(%rbp)
ffffffff80200659:	eb ca                	jmp    ffffffff80200625 <IDT_Initialize+0x35>
ffffffff8020065b:	c7 45 f0 01 00 00 00 	movl   $0x1,-0x10(%rbp)
ffffffff80200662:	c7 45 ec 00 00 00 00 	movl   $0x0,-0x14(%rbp)
ffffffff80200669:	81 7d ec 00 01 00 00 	cmpl   $0x100,-0x14(%rbp)
ffffffff80200670:	0f 8d 84 00 00 00    	jge    ffffffff802006fa <IDT_Initialize+0x10a>
ffffffff80200676:	83 7d ec 08          	cmpl   $0x8,-0x14(%rbp)
ffffffff8020067a:	74 0c                	je     ffffffff80200688 <IDT_Initialize+0x98>
ffffffff8020067c:	83 7d ec 0a          	cmpl   $0xa,-0x14(%rbp)
ffffffff80200680:	7c 0d                	jl     ffffffff8020068f <IDT_Initialize+0x9f>
ffffffff80200682:	83 7d ec 0e          	cmpl   $0xe,-0x14(%rbp)
ffffffff80200686:	7f 07                	jg     ffffffff8020068f <IDT_Initialize+0x9f>
ffffffff80200688:	c7 45 f0 00 00 00 00 	movl   $0x0,-0x10(%rbp)
ffffffff8020068f:	b8 08 00 00 00       	mov    $0x8,%eax
ffffffff80200694:	b9 8e 00 00 00       	mov    $0x8e,%ecx
ffffffff80200699:	48 63 55 ec          	movslq -0x14(%rbp),%rdx
ffffffff8020069d:	89 d6                	mov    %edx,%esi
ffffffff8020069f:	48 c1 e2 05          	shl    $0x5,%rdx
ffffffff802006a3:	48 8d ba f0 bc 20 80 	lea    -0x7fdf4310(%rdx),%rdi
ffffffff802006aa:	0f b6 55 f0          	movzbl -0x10(%rbp),%edx
ffffffff802006ae:	41 88 f0             	mov    %sil,%r8b
ffffffff802006b1:	41 0f b6 f0          	movzbl %r8b,%esi
ffffffff802006b5:	89 45 e8             	mov    %eax,-0x18(%rbp)
ffffffff802006b8:	89 4d e4             	mov    %ecx,-0x1c(%rbp)
ffffffff802006bb:	e8 f0 00 00 00       	callq  ffffffff802007b0 <IDT_FillSWInterruptHandler>
ffffffff802006c0:	48 63 7d ec          	movslq -0x14(%rbp),%rdi
ffffffff802006c4:	41 88 f8             	mov    %dil,%r8b
ffffffff802006c7:	48 c1 e7 05          	shl    $0x5,%rdi
ffffffff802006cb:	48 8d b7 f0 bc 20 80 	lea    -0x7fdf4310(%rdi),%rsi
ffffffff802006d2:	41 0f b6 f8          	movzbl %r8b,%edi
ffffffff802006d6:	ba 08 00 00 00       	mov    $0x8,%edx
ffffffff802006db:	b9 8e 00 00 00       	mov    $0x8e,%ecx
ffffffff802006e0:	e8 1b 00 00 00       	callq  ffffffff80200700 <IDT_SetEntry>
ffffffff802006e5:	c7 45 f0 01 00 00 00 	movl   $0x1,-0x10(%rbp)
ffffffff802006ec:	8b 45 ec             	mov    -0x14(%rbp),%eax
ffffffff802006ef:	83 c0 01             	add    $0x1,%eax
ffffffff802006f2:	89 45 ec             	mov    %eax,-0x14(%rbp)
ffffffff802006f5:	e9 6f ff ff ff       	jmpq   ffffffff80200669 <IDT_Initialize+0x79>
ffffffff802006fa:	48 83 c4 20          	add    $0x20,%rsp
ffffffff802006fe:	5d                   	pop    %rbp
ffffffff802006ff:	c3                   	retq

ffffffff80200700 <IDT_SetEntry>:
ffffffff80200700:	55                   	push   %rbp
ffffffff80200701:	48 89 e5             	mov    %rsp,%rbp
ffffffff80200704:	48 83 ec 18          	sub    $0x18,%rsp
ffffffff80200708:	88 c8                	mov    %cl,%al
ffffffff8020070a:	66 41 89 d0          	mov    %dx,%r8w
ffffffff8020070e:	41 88 f9             	mov    %dil,%r9b
ffffffff80200711:	44 88 4d ff          	mov    %r9b,-0x1(%rbp)
ffffffff80200715:	48 89 75 f0          	mov    %rsi,-0x10(%rbp)
ffffffff80200719:	66 44 89 45 ee       	mov    %r8w,-0x12(%rbp)
ffffffff8020071e:	88 45 ed             	mov    %al,-0x13(%rbp)
ffffffff80200721:	66 44 8b 45 f0       	mov    -0x10(%rbp),%r8w
ffffffff80200726:	0f b6 4d ff          	movzbl -0x1(%rbp),%ecx
ffffffff8020072a:	89 ce                	mov    %ecx,%esi
ffffffff8020072c:	48 c1 e6 04          	shl    $0x4,%rsi
ffffffff80200730:	66 44 89 86 f0 a4 20 	mov    %r8w,-0x7fdf5b10(%rsi)
ffffffff80200737:	80
ffffffff80200738:	66 44 8b 45 f2       	mov    -0xe(%rbp),%r8w
ffffffff8020073d:	0f b6 4d ff          	movzbl -0x1(%rbp),%ecx
ffffffff80200741:	89 ce                	mov    %ecx,%esi
ffffffff80200743:	48 c1 e6 04          	shl    $0x4,%rsi
ffffffff80200747:	66 44 89 86 f6 a4 20 	mov    %r8w,-0x7fdf5b0a(%rsi)
ffffffff8020074e:	80
ffffffff8020074f:	8b 4d f4             	mov    -0xc(%rbp),%ecx
ffffffff80200752:	0f b6 55 ff          	movzbl -0x1(%rbp),%edx
ffffffff80200756:	89 d6                	mov    %edx,%esi
ffffffff80200758:	48 c1 e6 04          	shl    $0x4,%rsi
ffffffff8020075c:	89 8e f8 a4 20 80    	mov    %ecx,-0x7fdf5b08(%rsi)
ffffffff80200762:	8a 45 ed             	mov    -0x13(%rbp),%al
ffffffff80200765:	0f b6 4d ff          	movzbl -0x1(%rbp),%ecx
ffffffff80200769:	89 ce                	mov    %ecx,%esi
ffffffff8020076b:	48 c1 e6 04          	shl    $0x4,%rsi
ffffffff8020076f:	88 86 f5 a4 20 80    	mov    %al,-0x7fdf5b0b(%rsi)
ffffffff80200775:	0f b6 4d ff          	movzbl -0x1(%rbp),%ecx
ffffffff80200779:	89 ce                	mov    %ecx,%esi
ffffffff8020077b:	48 c1 e6 04          	shl    $0x4,%rsi
ffffffff8020077f:	c6 86 f4 a4 20 80 00 	movb   $0x0,-0x7fdf5b0c(%rsi)
ffffffff80200786:	0f b7 4d ee          	movzwl -0x12(%rbp),%ecx
ffffffff8020078a:	66 41 89 c8          	mov    %cx,%r8w
ffffffff8020078e:	0f b6 4d ff          	movzbl -0x1(%rbp),%ecx
ffffffff80200792:	89 ce                	mov    %ecx,%esi
ffffffff80200794:	48 c1 e6 04          	shl    $0x4,%rsi
ffffffff80200798:	48 8d b6 f0 a4 20 80 	lea    -0x7fdf5b10(%rsi),%rsi
ffffffff8020079f:	66 44 89 46 02       	mov    %r8w,0x2(%rsi)
ffffffff802007a4:	48 83 c4 18          	add    $0x18,%rsp
ffffffff802007a8:	5d                   	pop    %rbp
ffffffff802007a9:	c3                   	retq
ffffffff802007aa:	66 0f 1f 44 00 00    	nopw   0x0(%rax,%rax,1)

ffffffff802007b0 <IDT_FillSWInterruptHandler>:
ffffffff802007b0:	55                   	push   %rbp
ffffffff802007b1:	48 89 e5             	mov    %rsp,%rbp
ffffffff802007b4:	53                   	push   %rbx
ffffffff802007b5:	48 83 ec 10          	sub    $0x10,%rsp
ffffffff802007b9:	88 d0                	mov    %dl,%al
ffffffff802007bb:	40 88 f1             	mov    %sil,%cl
ffffffff802007be:	48 89 7d f0          	mov    %rdi,-0x10(%rbp)
ffffffff802007c2:	88 4d ef             	mov    %cl,-0x11(%rbp)
ffffffff802007c5:	88 45 ee             	mov    %al,-0x12(%rbp)
ffffffff802007c8:	c7 45 e8 00 00 00 00 	movl   $0x0,-0x18(%rbp)
ffffffff802007cf:	80 7d ee 00          	cmpb   $0x0,-0x12(%rbp)
ffffffff802007d3:	74 30                	je     ffffffff80200805 <IDT_FillSWInterruptHandler+0x55>
ffffffff802007d5:	8b 45 e8             	mov    -0x18(%rbp),%eax
ffffffff802007d8:	89 c1                	mov    %eax,%ecx
ffffffff802007da:	83 c1 01             	add    $0x1,%ecx
ffffffff802007dd:	89 4d e8             	mov    %ecx,-0x18(%rbp)
ffffffff802007e0:	48 63 d0             	movslq %eax,%rdx
ffffffff802007e3:	48 8b 75 f0          	mov    -0x10(%rbp),%rsi
ffffffff802007e7:	c6 04 16 6a          	movb   $0x6a,(%rsi,%rdx,1)
ffffffff802007eb:	40 8a 7d ee          	mov    -0x12(%rbp),%dil
ffffffff802007ef:	8b 45 e8             	mov    -0x18(%rbp),%eax
ffffffff802007f2:	89 c1                	mov    %eax,%ecx
ffffffff802007f4:	83 c1 01             	add    $0x1,%ecx
ffffffff802007f7:	89 4d e8             	mov    %ecx,-0x18(%rbp)
ffffffff802007fa:	48 63 d0             	movslq %eax,%rdx
ffffffff802007fd:	48 8b 75 f0          	mov    -0x10(%rbp),%rsi
ffffffff80200801:	40 88 3c 16          	mov    %dil,(%rsi,%rdx,1)
ffffffff80200805:	48 63 45 e8          	movslq -0x18(%rbp),%rax
ffffffff80200809:	89 c1                	mov    %eax,%ecx
ffffffff8020080b:	ff c1                	inc    %ecx
ffffffff8020080d:	89 4d e8             	mov    %ecx,-0x18(%rbp)
ffffffff80200810:	48 8b 55 f0          	mov    -0x10(%rbp),%rdx
ffffffff80200814:	c6 04 02 6a          	movb   $0x6a,(%rdx,%rax,1)
ffffffff80200818:	40 8a 75 ef          	mov    -0x11(%rbp),%sil
ffffffff8020081c:	48 63 45 e8          	movslq -0x18(%rbp),%rax
ffffffff80200820:	89 c1                	mov    %eax,%ecx
ffffffff80200822:	ff c1                	inc    %ecx
ffffffff80200824:	89 4d e8             	mov    %ecx,-0x18(%rbp)
ffffffff80200827:	48 8b 55 f0          	mov    -0x10(%rbp),%rdx
ffffffff8020082b:	40 88 34 02          	mov    %sil,(%rdx,%rax,1)
ffffffff8020082f:	48 63 45 e8          	movslq -0x18(%rbp),%rax
ffffffff80200833:	89 c1                	mov    %eax,%ecx
ffffffff80200835:	ff c1                	inc    %ecx
ffffffff80200837:	89 4d e8             	mov    %ecx,-0x18(%rbp)
ffffffff8020083a:	48 8b 55 f0          	mov    -0x10(%rbp),%rdx
ffffffff8020083e:	c6 04 02 50          	movb   $0x50,(%rdx,%rax,1)
ffffffff80200842:	48 63 45 e8          	movslq -0x18(%rbp),%rax
ffffffff80200846:	89 c1                	mov    %eax,%ecx
ffffffff80200848:	ff c1                	inc    %ecx
ffffffff8020084a:	89 4d e8             	mov    %ecx,-0x18(%rbp)
ffffffff8020084d:	48 8b 55 f0          	mov    -0x10(%rbp),%rdx
ffffffff80200851:	c6 04 02 48          	movb   $0x48,(%rdx,%rax,1)
ffffffff80200855:	48 63 45 e8          	movslq -0x18(%rbp),%rax
ffffffff80200859:	89 c1                	mov    %eax,%ecx
ffffffff8020085b:	ff c1                	inc    %ecx
ffffffff8020085d:	89 4d e8             	mov    %ecx,-0x18(%rbp)
ffffffff80200860:	48 8b 55 f0          	mov    -0x10(%rbp),%rdx
ffffffff80200864:	c6 04 02 b8          	movb   $0xb8,(%rdx,%rax,1)
ffffffff80200868:	48 63 45 e8          	movslq -0x18(%rbp),%rax
ffffffff8020086c:	89 c1                	mov    %eax,%ecx
ffffffff8020086e:	ff c1                	inc    %ecx
ffffffff80200870:	89 4d e8             	mov    %ecx,-0x18(%rbp)
ffffffff80200873:	48 8b 55 f0          	mov    -0x10(%rbp),%rdx
ffffffff80200877:	48 c7 c7 90 09 20 80 	mov    $0xffffffff80200990,%rdi
ffffffff8020087e:	40 88 fe             	mov    %dil,%sil
ffffffff80200881:	40 88 34 02          	mov    %sil,(%rdx,%rax,1)
ffffffff80200885:	48 63 45 e8          	movslq -0x18(%rbp),%rax
ffffffff80200889:	89 c1                	mov    %eax,%ecx
ffffffff8020088b:	ff c1                	inc    %ecx
ffffffff8020088d:	89 4d e8             	mov    %ecx,-0x18(%rbp)
ffffffff80200890:	48 8b 55 f0          	mov    -0x10(%rbp),%rdx
ffffffff80200894:	48 89 fb             	mov    %rdi,%rbx
ffffffff80200897:	88 f9                	mov    %bh,%cl
ffffffff80200899:	88 0c 02             	mov    %cl,(%rdx,%rax,1)
ffffffff8020089c:	48 63 45 e8          	movslq -0x18(%rbp),%rax
ffffffff802008a0:	41 89 c0             	mov    %eax,%r8d
ffffffff802008a3:	41 ff c0             	inc    %r8d
ffffffff802008a6:	44 89 45 e8          	mov    %r8d,-0x18(%rbp)
ffffffff802008aa:	48 8b 55 f0          	mov    -0x10(%rbp),%rdx
ffffffff802008ae:	48 89 fb             	mov    %rdi,%rbx
ffffffff802008b1:	48 c1 eb 10          	shr    $0x10,%rbx
ffffffff802008b5:	88 d9                	mov    %bl,%cl
ffffffff802008b7:	88 0c 02             	mov    %cl,(%rdx,%rax,1)
ffffffff802008ba:	48 63 45 e8          	movslq -0x18(%rbp),%rax
ffffffff802008be:	41 89 c0             	mov    %eax,%r8d
ffffffff802008c1:	41 ff c0             	inc    %r8d
ffffffff802008c4:	44 89 45 e8          	mov    %r8d,-0x18(%rbp)
ffffffff802008c8:	48 8b 55 f0          	mov    -0x10(%rbp),%rdx
ffffffff802008cc:	48 89 fb             	mov    %rdi,%rbx
ffffffff802008cf:	48 c1 eb 18          	shr    $0x18,%rbx
ffffffff802008d3:	88 d9                	mov    %bl,%cl
ffffffff802008d5:	88 0c 02             	mov    %cl,(%rdx,%rax,1)
ffffffff802008d8:	48 63 45 e8          	movslq -0x18(%rbp),%rax
ffffffff802008dc:	41 89 c0             	mov    %eax,%r8d
ffffffff802008df:	41 ff c0             	inc    %r8d
ffffffff802008e2:	44 89 45 e8          	mov    %r8d,-0x18(%rbp)
ffffffff802008e6:	48 8b 55 f0          	mov    -0x10(%rbp),%rdx
ffffffff802008ea:	48 89 fb             	mov    %rdi,%rbx
ffffffff802008ed:	48 c1 eb 20          	shr    $0x20,%rbx
ffffffff802008f1:	88 d9                	mov    %bl,%cl
ffffffff802008f3:	88 0c 02             	mov    %cl,(%rdx,%rax,1)
ffffffff802008f6:	48 63 45 e8          	movslq -0x18(%rbp),%rax
ffffffff802008fa:	41 89 c0             	mov    %eax,%r8d
ffffffff802008fd:	41 ff c0             	inc    %r8d
ffffffff80200900:	44 89 45 e8          	mov    %r8d,-0x18(%rbp)
ffffffff80200904:	48 8b 55 f0          	mov    -0x10(%rbp),%rdx
ffffffff80200908:	48 89 fb             	mov    %rdi,%rbx
ffffffff8020090b:	48 c1 eb 28          	shr    $0x28,%rbx
ffffffff8020090f:	88 d9                	mov    %bl,%cl
ffffffff80200911:	88 0c 02             	mov    %cl,(%rdx,%rax,1)
ffffffff80200914:	48 63 45 e8          	movslq -0x18(%rbp),%rax
ffffffff80200918:	41 89 c0             	mov    %eax,%r8d
ffffffff8020091b:	41 ff c0             	inc    %r8d
ffffffff8020091e:	44 89 45 e8          	mov    %r8d,-0x18(%rbp)
ffffffff80200922:	48 8b 55 f0          	mov    -0x10(%rbp),%rdx
ffffffff80200926:	48 89 fb             	mov    %rdi,%rbx
ffffffff80200929:	48 c1 eb 30          	shr    $0x30,%rbx
ffffffff8020092d:	88 d9                	mov    %bl,%cl
ffffffff8020092f:	88 0c 02             	mov    %cl,(%rdx,%rax,1)
ffffffff80200932:	48 63 45 e8          	movslq -0x18(%rbp),%rax
ffffffff80200936:	41 89 c0             	mov    %eax,%r8d
ffffffff80200939:	41 ff c0             	inc    %r8d
ffffffff8020093c:	44 89 45 e8          	mov    %r8d,-0x18(%rbp)
ffffffff80200940:	48 8b 55 f0          	mov    -0x10(%rbp),%rdx
ffffffff80200944:	48 c1 ef 38          	shr    $0x38,%rdi
ffffffff80200948:	40 88 f9             	mov    %dil,%cl
ffffffff8020094b:	88 0c 02             	mov    %cl,(%rdx,%rax,1)
ffffffff8020094e:	44 8b 45 e8          	mov    -0x18(%rbp),%r8d
ffffffff80200952:	45 89 c1             	mov    %r8d,%r9d
ffffffff80200955:	41 83 c1 01          	add    $0x1,%r9d
ffffffff80200959:	44 89 4d e8          	mov    %r9d,-0x18(%rbp)
ffffffff8020095d:	49 63 c0             	movslq %r8d,%rax
ffffffff80200960:	48 8b 55 f0          	mov    -0x10(%rbp),%rdx
ffffffff80200964:	c6 04 02 50          	movb   $0x50,(%rdx,%rax,1)
ffffffff80200968:	44 8b 45 e8          	mov    -0x18(%rbp),%r8d
ffffffff8020096c:	45 89 c1             	mov    %r8d,%r9d
ffffffff8020096f:	41 83 c1 01          	add    $0x1,%r9d
ffffffff80200973:	44 89 4d e8          	mov    %r9d,-0x18(%rbp)
ffffffff80200977:	49 63 c0             	movslq %r8d,%rax
ffffffff8020097a:	48 8b 55 f0          	mov    -0x10(%rbp),%rdx
ffffffff8020097e:	c6 04 02 c3          	movb   $0xc3,(%rdx,%rax,1)
ffffffff80200982:	48 83 c4 10          	add    $0x10,%rsp
ffffffff80200986:	5b                   	pop    %rbx
ffffffff80200987:	5d                   	pop    %rbp
ffffffff80200988:	c3                   	retq
ffffffff80200989:	0f 1f 80 00 00 00 00 	nopl   0x0(%rax)

ffffffff80200990 <IDT_DefaultHandler>:
ffffffff80200990:	53                   	push   %rbx
ffffffff80200991:	51                   	push   %rcx
ffffffff80200992:	52                   	push   %rdx
ffffffff80200993:	55                   	push   %rbp
ffffffff80200994:	56                   	push   %rsi
ffffffff80200995:	57                   	push   %rdi
ffffffff80200996:	41 50                	push   %r8
ffffffff80200998:	41 51                	push   %r9
ffffffff8020099a:	41 52                	push   %r10
ffffffff8020099c:	41 53                	push   %r11
ffffffff8020099e:	41 54                	push   %r12
ffffffff802009a0:	41 55                	push   %r13
ffffffff802009a2:	41 56                	push   %r14
ffffffff802009a4:	41 57                	push   %r15
ffffffff802009a6:	48 89 e7             	mov    %rsp,%rdi
ffffffff802009a9:	e8 22 00 00 00       	callq  ffffffff802009d0 <IDT_MainHandler>
ffffffff802009ae:	41 5f                	pop    %r15
ffffffff802009b0:	41 5e                	pop    %r14
ffffffff802009b2:	41 5d                	pop    %r13
ffffffff802009b4:	41 5c                	pop    %r12
ffffffff802009b6:	41 5b                	pop    %r11
ffffffff802009b8:	41 5a                	pop    %r10
ffffffff802009ba:	41 59                	pop    %r9
ffffffff802009bc:	41 58                	pop    %r8
ffffffff802009be:	5f                   	pop    %rdi
ffffffff802009bf:	5e                   	pop    %rsi
ffffffff802009c0:	5d                   	pop    %rbp
ffffffff802009c1:	5a                   	pop    %rdx
ffffffff802009c2:	59                   	pop    %rcx
ffffffff802009c3:	5b                   	pop    %rbx
ffffffff802009c4:	58                   	pop    %rax
ffffffff802009c5:	48 83 c4 18          	add    $0x18,%rsp
ffffffff802009c9:	48 cf                	iretq
ffffffff802009cb:	0f 1f 44 00 00       	nopl   0x0(%rax,%rax,1)

ffffffff802009d0 <IDT_MainHandler>:
ffffffff802009d0:	55                   	push   %rbp
ffffffff802009d1:	48 89 e5             	mov    %rsp,%rbp
ffffffff802009d4:	48 83 ec 10          	sub    $0x10,%rsp
ffffffff802009d8:	48 89 7d f8          	mov    %rdi,-0x8(%rbp)
ffffffff802009dc:	48 8b bf 80 00 00 00 	mov    0x80(%rdi),%rdi
ffffffff802009e3:	48 8d 3c fd f0 b4 20 	lea    -0x7fdf4b10(,%rdi,8),%rdi
ffffffff802009ea:	80
ffffffff802009eb:	48 83 3f 00          	cmpq   $0x0,(%rdi)
ffffffff802009ef:	74 1c                	je     ffffffff80200a0d <IDT_MainHandler+0x3d>
ffffffff802009f1:	48 8b 45 f8          	mov    -0x8(%rbp),%rax
ffffffff802009f5:	48 8b 80 80 00 00 00 	mov    0x80(%rax),%rax
ffffffff802009fc:	48 8d 04 c5 f0 b4 20 	lea    -0x7fdf4b10(,%rax,8),%rax
ffffffff80200a03:	80
ffffffff80200a04:	48 8b 00             	mov    (%rax),%rax
ffffffff80200a07:	48 8b 7d f8          	mov    -0x8(%rbp),%rdi
ffffffff80200a0b:	ff d0                	callq  *%rax
ffffffff80200a0d:	48 83 c4 10          	add    $0x10,%rsp
ffffffff80200a11:	5d                   	pop    %rbp
ffffffff80200a12:	c3                   	retq
ffffffff80200a13:	0f 1f 00             	nopl   (%rax)
ffffffff80200a16:	66 2e 0f 1f 84 00 00 	nopw   %cs:0x0(%rax,%rax,1)
ffffffff80200a1d:	00 00 00

ffffffff80200a20 <IDT_RegisterHandler>:
ffffffff80200a20:	55                   	push   %rbp
ffffffff80200a21:	48 89 e5             	mov    %rsp,%rbp
ffffffff80200a24:	48 83 ec 10          	sub    $0x10,%rsp
ffffffff80200a28:	40 88 f8             	mov    %dil,%al
ffffffff80200a2b:	88 45 ff             	mov    %al,-0x1(%rbp)
ffffffff80200a2e:	48 89 75 f0          	mov    %rsi,-0x10(%rbp)
ffffffff80200a32:	0f b6 7d ff          	movzbl -0x1(%rbp),%edi
ffffffff80200a36:	89 f9                	mov    %edi,%ecx
ffffffff80200a38:	48 8d 0c cd f0 b4 20 	lea    -0x7fdf4b10(,%rcx,8),%rcx
ffffffff80200a3f:	80
ffffffff80200a40:	48 89 31             	mov    %rsi,(%rcx)
ffffffff80200a43:	48 83 c4 10          	add    $0x10,%rsp
ffffffff80200a47:	5d                   	pop    %rbp
ffffffff80200a48:	c3                   	retq
ffffffff80200a49:	0f 1f 80 00 00 00 00 	nopl   0x0(%rax)

ffffffff80200a50 <CPUID_RequestInfo>:
ffffffff80200a50:	55                   	push   %rbp
ffffffff80200a51:	48 89 e5             	mov    %rsp,%rbp
ffffffff80200a54:	53                   	push   %rbx
ffffffff80200a55:	50                   	push   %rax
ffffffff80200a56:	89 7d f4             	mov    %edi,-0xc(%rbp)
ffffffff80200a59:	89 75 f0             	mov    %esi,-0x10(%rbp)
ffffffff80200a5c:	8b 45 f4             	mov    -0xc(%rbp),%eax
ffffffff80200a5f:	89 f1                	mov    %esi,%ecx
ffffffff80200a61:	0f a2                	cpuid
ffffffff80200a63:	89 45 f4             	mov    %eax,-0xc(%rbp)
ffffffff80200a66:	89 1c 25 f0 dc 20 80 	mov    %ebx,0xffffffff8020dcf0
ffffffff80200a6d:	89 4d f0             	mov    %ecx,-0x10(%rbp)
ffffffff80200a70:	89 14 25 f4 dc 20 80 	mov    %edx,0xffffffff8020dcf4
ffffffff80200a77:	48 83 c4 08          	add    $0x8,%rsp
ffffffff80200a7b:	5b                   	pop    %rbx
ffffffff80200a7c:	5d                   	pop    %rbp
ffffffff80200a7d:	c3                   	retq
ffffffff80200a7e:	66 90                	xchg   %ax,%ax

ffffffff80200a80 <CPUID_FeatureIsAvailable>:
ffffffff80200a80:	55                   	push   %rbp
ffffffff80200a81:	48 89 e5             	mov    %rsp,%rbp
ffffffff80200a84:	48 83 ec 20          	sub    $0x20,%rsp
ffffffff80200a88:	89 7d f8             	mov    %edi,-0x8(%rbp)
ffffffff80200a8b:	89 75 f4             	mov    %esi,-0xc(%rbp)
ffffffff80200a8e:	8b 75 f8             	mov    -0x8(%rbp),%esi
ffffffff80200a91:	89 f0                	mov    %esi,%eax
ffffffff80200a93:	48 89 c1             	mov    %rax,%rcx
ffffffff80200a96:	48 83 e9 03          	sub    $0x3,%rcx
ffffffff80200a9a:	48 89 45 e8          	mov    %rax,-0x18(%rbp)
ffffffff80200a9e:	48 89 4d e0          	mov    %rcx,-0x20(%rbp)
ffffffff80200aa2:	0f 87 82 00 00 00    	ja     ffffffff80200b2a <CPUID_FeatureIsAvailable+0xaa>
ffffffff80200aa8:	48 8b 45 e8          	mov    -0x18(%rbp),%rax
ffffffff80200aac:	48 8b 0c c5 00 70 20 	mov    -0x7fdf9000(,%rax,8),%rcx
ffffffff80200ab3:	80
ffffffff80200ab4:	ff e1                	jmpq   *%rcx
ffffffff80200ab6:	8b 04 25 f8 dc 20 80 	mov    0xffffffff8020dcf8,%eax
ffffffff80200abd:	23 45 f4             	and    -0xc(%rbp),%eax
ffffffff80200ac0:	3b 45 f4             	cmp    -0xc(%rbp),%eax
ffffffff80200ac3:	0f 94 c1             	sete   %cl
ffffffff80200ac6:	80 e1 01             	and    $0x1,%cl
ffffffff80200ac9:	0f b6 c1             	movzbl %cl,%eax
ffffffff80200acc:	88 c1                	mov    %al,%cl
ffffffff80200ace:	88 4d ff             	mov    %cl,-0x1(%rbp)
ffffffff80200ad1:	eb 5b                	jmp    ffffffff80200b2e <CPUID_FeatureIsAvailable+0xae>
ffffffff80200ad3:	8b 04 25 f0 dc 20 80 	mov    0xffffffff8020dcf0,%eax
ffffffff80200ada:	23 45 f4             	and    -0xc(%rbp),%eax
ffffffff80200add:	3b 45 f4             	cmp    -0xc(%rbp),%eax
ffffffff80200ae0:	0f 94 c1             	sete   %cl
ffffffff80200ae3:	80 e1 01             	and    $0x1,%cl
ffffffff80200ae6:	0f b6 c1             	movzbl %cl,%eax
ffffffff80200ae9:	88 c1                	mov    %al,%cl
ffffffff80200aeb:	88 4d ff             	mov    %cl,-0x1(%rbp)
ffffffff80200aee:	eb 3e                	jmp    ffffffff80200b2e <CPUID_FeatureIsAvailable+0xae>
ffffffff80200af0:	8b 04 25 fc dc 20 80 	mov    0xffffffff8020dcfc,%eax
ffffffff80200af7:	23 45 f4             	and    -0xc(%rbp),%eax
ffffffff80200afa:	3b 45 f4             	cmp    -0xc(%rbp),%eax
ffffffff80200afd:	0f 94 c1             	sete   %cl
ffffffff80200b00:	80 e1 01             	and    $0x1,%cl
ffffffff80200b03:	0f b6 c1             	movzbl %cl,%eax
ffffffff80200b06:	88 c1                	mov    %al,%cl
ffffffff80200b08:	88 4d ff             	mov    %cl,-0x1(%rbp)
ffffffff80200b0b:	eb 21                	jmp    ffffffff80200b2e <CPUID_FeatureIsAvailable+0xae>
ffffffff80200b0d:	8b 04 25 f4 dc 20 80 	mov    0xffffffff8020dcf4,%eax
ffffffff80200b14:	23 45 f4             	and    -0xc(%rbp),%eax
ffffffff80200b17:	3b 45 f4             	cmp    -0xc(%rbp),%eax
ffffffff80200b1a:	0f 94 c1             	sete   %cl
ffffffff80200b1d:	80 e1 01             	and    $0x1,%cl
ffffffff80200b20:	0f b6 c1             	movzbl %cl,%eax
ffffffff80200b23:	88 c1                	mov    %al,%cl
ffffffff80200b25:	88 4d ff             	mov    %cl,-0x1(%rbp)
ffffffff80200b28:	eb 04                	jmp    ffffffff80200b2e <CPUID_FeatureIsAvailable+0xae>
ffffffff80200b2a:	c6 45 ff 00          	movb   $0x0,-0x1(%rbp)
ffffffff80200b2e:	0f b6 45 ff          	movzbl -0x1(%rbp),%eax
ffffffff80200b32:	48 83 c4 20          	add    $0x20,%rsp
ffffffff80200b36:	5d                   	pop    %rbp
ffffffff80200b37:	c3                   	retq
ffffffff80200b38:	0f 1f 84 00 00 00 00 	nopl   0x0(%rax,%rax,1)
ffffffff80200b3f:	00

ffffffff80200b40 <CPUID_GetValue>:
ffffffff80200b40:	55                   	push   %rbp
ffffffff80200b41:	48 89 e5             	mov    %rsp,%rbp
ffffffff80200b44:	48 83 ec 18          	sub    $0x18,%rsp
ffffffff80200b48:	89 7d f8             	mov    %edi,-0x8(%rbp)
ffffffff80200b4b:	8b 7d f8             	mov    -0x8(%rbp),%edi
ffffffff80200b4e:	89 f8                	mov    %edi,%eax
ffffffff80200b50:	48 89 c1             	mov    %rax,%rcx
ffffffff80200b53:	48 83 e9 03          	sub    $0x3,%rcx
ffffffff80200b57:	48 89 45 f0          	mov    %rax,-0x10(%rbp)
ffffffff80200b5b:	48 89 4d e8          	mov    %rcx,-0x18(%rbp)
ffffffff80200b5f:	77 3e                	ja     ffffffff80200b9f <CPUID_GetValue+0x5f>
ffffffff80200b61:	48 8b 45 f0          	mov    -0x10(%rbp),%rax
ffffffff80200b65:	48 8b 0c c5 20 70 20 	mov    -0x7fdf8fe0(,%rax,8),%rcx
ffffffff80200b6c:	80
ffffffff80200b6d:	ff e1                	jmpq   *%rcx
ffffffff80200b6f:	8b 04 25 f8 dc 20 80 	mov    0xffffffff8020dcf8,%eax
ffffffff80200b76:	89 45 fc             	mov    %eax,-0x4(%rbp)
ffffffff80200b79:	eb 2b                	jmp    ffffffff80200ba6 <CPUID_GetValue+0x66>
ffffffff80200b7b:	8b 04 25 f0 dc 20 80 	mov    0xffffffff8020dcf0,%eax
ffffffff80200b82:	89 45 fc             	mov    %eax,-0x4(%rbp)
ffffffff80200b85:	eb 1f                	jmp    ffffffff80200ba6 <CPUID_GetValue+0x66>
ffffffff80200b87:	8b 04 25 fc dc 20 80 	mov    0xffffffff8020dcfc,%eax
ffffffff80200b8e:	89 45 fc             	mov    %eax,-0x4(%rbp)
ffffffff80200b91:	eb 13                	jmp    ffffffff80200ba6 <CPUID_GetValue+0x66>
ffffffff80200b93:	8b 04 25 f4 dc 20 80 	mov    0xffffffff8020dcf4,%eax
ffffffff80200b9a:	89 45 fc             	mov    %eax,-0x4(%rbp)
ffffffff80200b9d:	eb 07                	jmp    ffffffff80200ba6 <CPUID_GetValue+0x66>
ffffffff80200b9f:	c7 45 fc 00 00 00 00 	movl   $0x0,-0x4(%rbp)
ffffffff80200ba6:	8b 45 fc             	mov    -0x4(%rbp),%eax
ffffffff80200ba9:	48 83 c4 18          	add    $0x18,%rsp
ffffffff80200bad:	5d                   	pop    %rbp
ffffffff80200bae:	c3                   	retq
ffffffff80200baf:	90                   	nop

ffffffff80200bb0 <FPU_Initialize>:
ffffffff80200bb0:	55                   	push   %rbp
ffffffff80200bb1:	48 89 e5             	mov    %rsp,%rbp
ffffffff80200bb4:	48 83 ec 30          	sub    $0x30,%rsp
ffffffff80200bb8:	b8 01 00 00 00       	mov    $0x1,%eax
ffffffff80200bbd:	31 c9                	xor    %ecx,%ecx
ffffffff80200bbf:	bf 01 00 00 00       	mov    $0x1,%edi
ffffffff80200bc4:	31 f6                	xor    %esi,%esi
ffffffff80200bc6:	89 45 f8             	mov    %eax,-0x8(%rbp)
ffffffff80200bc9:	89 4d f4             	mov    %ecx,-0xc(%rbp)
ffffffff80200bcc:	e8 7f fe ff ff       	callq  ffffffff80200a50 <CPUID_RequestInfo>
ffffffff80200bd1:	b8 03 00 00 00       	mov    $0x3,%eax
ffffffff80200bd6:	b9 01 00 00 00       	mov    $0x1,%ecx
ffffffff80200bdb:	bf 03 00 00 00       	mov    $0x3,%edi
ffffffff80200be0:	be 01 00 00 00       	mov    $0x1,%esi
ffffffff80200be5:	89 45 f0             	mov    %eax,-0x10(%rbp)
ffffffff80200be8:	89 4d ec             	mov    %ecx,-0x14(%rbp)
ffffffff80200beb:	e8 90 fe ff ff       	callq  ffffffff80200a80 <CPUID_FeatureIsAvailable>
ffffffff80200bf0:	3c 00                	cmp    $0x0,%al
ffffffff80200bf2:	75 12                	jne    ffffffff80200c06 <FPU_Initialize+0x56>
ffffffff80200bf4:	b8 ff 00 00 00       	mov    $0xff,%eax
ffffffff80200bf9:	bf ff 00 00 00       	mov    $0xff,%edi
ffffffff80200bfe:	89 45 e8             	mov    %eax,-0x18(%rbp)
ffffffff80200c01:	e8 ba f6 ff ff       	callq  ffffffff802002c0 <bootstrap_kernel_panic>
ffffffff80200c06:	b8 03 00 00 00       	mov    $0x3,%eax
ffffffff80200c0b:	b9 00 00 00 02       	mov    $0x2000000,%ecx
ffffffff80200c10:	bf 03 00 00 00       	mov    $0x3,%edi
ffffffff80200c15:	be 00 00 00 02       	mov    $0x2000000,%esi
ffffffff80200c1a:	89 45 e4             	mov    %eax,-0x1c(%rbp)
ffffffff80200c1d:	89 4d e0             	mov    %ecx,-0x20(%rbp)
ffffffff80200c20:	e8 5b fe ff ff       	callq  ffffffff80200a80 <CPUID_FeatureIsAvailable>
ffffffff80200c25:	3c 00                	cmp    $0x0,%al
ffffffff80200c27:	75 12                	jne    ffffffff80200c3b <FPU_Initialize+0x8b>
ffffffff80200c29:	b8 ff 00 00 00       	mov    $0xff,%eax
ffffffff80200c2e:	bf ff 00 00 00       	mov    $0xff,%edi
ffffffff80200c33:	89 45 dc             	mov    %eax,-0x24(%rbp)
ffffffff80200c36:	e8 85 f6 ff ff       	callq  ffffffff802002c0 <bootstrap_kernel_panic>
ffffffff80200c3b:	b8 03 00 00 00       	mov    $0x3,%eax
ffffffff80200c40:	b9 00 00 00 01       	mov    $0x1000000,%ecx
ffffffff80200c45:	bf 03 00 00 00       	mov    $0x3,%edi
ffffffff80200c4a:	be 00 00 00 01       	mov    $0x1000000,%esi
ffffffff80200c4f:	89 45 d8             	mov    %eax,-0x28(%rbp)
ffffffff80200c52:	89 4d d4             	mov    %ecx,-0x2c(%rbp)
ffffffff80200c55:	e8 26 fe ff ff       	callq  ffffffff80200a80 <CPUID_FeatureIsAvailable>
ffffffff80200c5a:	3c 00                	cmp    $0x0,%al
ffffffff80200c5c:	75 12                	jne    ffffffff80200c70 <FPU_Initialize+0xc0>
ffffffff80200c5e:	b8 ff 00 00 00       	mov    $0xff,%eax
ffffffff80200c63:	bf ff 00 00 00       	mov    $0xff,%edi
ffffffff80200c68:	89 45 d0             	mov    %eax,-0x30(%rbp)
ffffffff80200c6b:	e8 50 f6 ff ff       	callq  ffffffff802002c0 <bootstrap_kernel_panic>
ffffffff80200c70:	c7 45 fc 00 00 00 00 	movl   $0x0,-0x4(%rbp)
ffffffff80200c77:	0f 20 c0             	mov    %cr0,%rax
ffffffff80200c7a:	89 45 fc             	mov    %eax,-0x4(%rbp)
ffffffff80200c7d:	8b 45 fc             	mov    -0x4(%rbp),%eax
ffffffff80200c80:	83 e0 fb             	and    $0xfffffffb,%eax
ffffffff80200c83:	89 45 fc             	mov    %eax,-0x4(%rbp)
ffffffff80200c86:	8b 45 fc             	mov    -0x4(%rbp),%eax
ffffffff80200c89:	83 c8 20             	or     $0x20,%eax
ffffffff80200c8c:	89 45 fc             	mov    %eax,-0x4(%rbp)
ffffffff80200c8f:	8b 45 fc             	mov    -0x4(%rbp),%eax
ffffffff80200c92:	83 c8 02             	or     $0x2,%eax
ffffffff80200c95:	89 45 fc             	mov    %eax,-0x4(%rbp)
ffffffff80200c98:	8b 45 fc             	mov    -0x4(%rbp),%eax
ffffffff80200c9b:	0f 22 c0             	mov    %rax,%cr0
ffffffff80200c9e:	0f 20 e0             	mov    %cr4,%rax
ffffffff80200ca1:	89 45 fc             	mov    %eax,-0x4(%rbp)
ffffffff80200ca4:	8b 45 fc             	mov    -0x4(%rbp),%eax
ffffffff80200ca7:	0d 00 02 00 00       	or     $0x200,%eax
ffffffff80200cac:	89 45 fc             	mov    %eax,-0x4(%rbp)
ffffffff80200caf:	8b 45 fc             	mov    -0x4(%rbp),%eax
ffffffff80200cb2:	0d 00 04 00 00       	or     $0x400,%eax
ffffffff80200cb7:	89 45 fc             	mov    %eax,-0x4(%rbp)
ffffffff80200cba:	8b 45 fc             	mov    -0x4(%rbp),%eax
ffffffff80200cbd:	0d 00 00 04 00       	or     $0x40000,%eax
ffffffff80200cc2:	89 45 fc             	mov    %eax,-0x4(%rbp)
ffffffff80200cc5:	8b 45 fc             	mov    -0x4(%rbp),%eax
ffffffff80200cc8:	0f 22 e0             	mov    %rax,%cr4
ffffffff80200ccb:	db e3                	fninit
ffffffff80200ccd:	48 83 c4 30          	add    $0x30,%rsp
ffffffff80200cd1:	5d                   	pop    %rbp
ffffffff80200cd2:	c3                   	retq
ffffffff80200cd3:	66 2e 0f 1f 84 00 00 	nopw   %cs:0x0(%rax,%rax,1)
ffffffff80200cda:	00 00 00
ffffffff80200cdd:	0f 1f 00             	nopl   (%rax)

ffffffff80200ce0 <RTC_Initialize>:
ffffffff80200ce0:	55                   	push   %rbp
ffffffff80200ce1:	48 89 e5             	mov    %rsp,%rbp
ffffffff80200ce4:	48 83 ec 10          	sub    $0x10,%rsp
ffffffff80200ce8:	48 c7 c7 30 7d 20 80 	mov    $0xffffffff80207d30,%rdi
ffffffff80200cef:	31 f6                	xor    %esi,%esi
ffffffff80200cf1:	e8 5a 52 00 00       	callq  ffffffff80205f50 <ACPITables_FindTable>
ffffffff80200cf6:	48 89 45 f8          	mov    %rax,-0x8(%rbp)
ffffffff80200cfa:	48 83 7d f8 00       	cmpq   $0x0,-0x8(%rbp)
ffffffff80200cff:	74 0f                	je     ffffffff80200d10 <RTC_Initialize+0x30>
ffffffff80200d01:	48 8b 45 f8          	mov    -0x8(%rbp),%rax
ffffffff80200d05:	0f b6 48 6c          	movzbl 0x6c(%rax),%ecx
ffffffff80200d09:	89 0c 25 00 dd 20 80 	mov    %ecx,0xffffffff8020dd00
ffffffff80200d10:	48 83 c4 10          	add    $0x10,%rsp
ffffffff80200d14:	5d                   	pop    %rbp
ffffffff80200d15:	c3                   	retq
ffffffff80200d16:	66 2e 0f 1f 84 00 00 	nopw   %cs:0x0(%rax,%rax,1)
ffffffff80200d1d:	00 00 00

ffffffff80200d20 <RTC_SelectRegister>:
ffffffff80200d20:	55                   	push   %rbp
ffffffff80200d21:	48 89 e5             	mov    %rsp,%rbp
ffffffff80200d24:	48 83 ec 10          	sub    $0x10,%rsp
ffffffff80200d28:	40 88 f0             	mov    %sil,%al
ffffffff80200d2b:	40 88 f9             	mov    %dil,%cl
ffffffff80200d2e:	be 70 00 00 00       	mov    $0x70,%esi
ffffffff80200d33:	88 4d ff             	mov    %cl,-0x1(%rbp)
ffffffff80200d36:	88 45 fe             	mov    %al,-0x2(%rbp)
ffffffff80200d39:	0f b6 7d ff          	movzbl -0x1(%rbp),%edi
ffffffff80200d3d:	c1 e7 07             	shl    $0x7,%edi
ffffffff80200d40:	0f b6 55 fe          	movzbl -0x2(%rbp),%edx
ffffffff80200d44:	09 d7                	or     %edx,%edi
ffffffff80200d46:	40 88 f8             	mov    %dil,%al
ffffffff80200d49:	0f b6 d0             	movzbl %al,%edx
ffffffff80200d4c:	bf 70 00 00 00       	mov    $0x70,%edi
ffffffff80200d51:	89 75 f8             	mov    %esi,-0x8(%rbp)
ffffffff80200d54:	89 d6                	mov    %edx,%esi
ffffffff80200d56:	e8 85 10 00 00       	callq  ffffffff80201de0 <outb>
ffffffff80200d5b:	48 83 c4 10          	add    $0x10,%rsp
ffffffff80200d5f:	5d                   	pop    %rbp
ffffffff80200d60:	c3                   	retq
ffffffff80200d61:	0f 1f 44 00 00       	nopl   0x0(%rax,%rax,1)
ffffffff80200d66:	66 2e 0f 1f 84 00 00 	nopw   %cs:0x0(%rax,%rax,1)
ffffffff80200d6d:	00 00 00

ffffffff80200d70 <RTC_SetRegister>:
ffffffff80200d70:	55                   	push   %rbp
ffffffff80200d71:	48 89 e5             	mov    %rsp,%rbp
ffffffff80200d74:	48 83 ec 10          	sub    $0x10,%rsp
ffffffff80200d78:	88 d0                	mov    %dl,%al
ffffffff80200d7a:	40 88 f1             	mov    %sil,%cl
ffffffff80200d7d:	41 88 f8             	mov    %dil,%r8b
ffffffff80200d80:	44 88 45 ff          	mov    %r8b,-0x1(%rbp)
ffffffff80200d84:	88 4d fe             	mov    %cl,-0x2(%rbp)
ffffffff80200d87:	88 45 fd             	mov    %al,-0x3(%rbp)
ffffffff80200d8a:	8a 45 fe             	mov    -0x2(%rbp),%al
ffffffff80200d8d:	8a 4d fd             	mov    -0x3(%rbp),%cl
ffffffff80200d90:	0f b6 f8             	movzbl %al,%edi
ffffffff80200d93:	0f b6 f1             	movzbl %cl,%esi
ffffffff80200d96:	e8 85 ff ff ff       	callq  ffffffff80200d20 <RTC_SelectRegister>
ffffffff80200d9b:	ba 71 00 00 00       	mov    $0x71,%edx
ffffffff80200da0:	8a 45 ff             	mov    -0x1(%rbp),%al
ffffffff80200da3:	0f b6 f0             	movzbl %al,%esi
ffffffff80200da6:	bf 71 00 00 00       	mov    $0x71,%edi
ffffffff80200dab:	89 55 f8             	mov    %edx,-0x8(%rbp)
ffffffff80200dae:	e8 2d 10 00 00       	callq  ffffffff80201de0 <outb>
ffffffff80200db3:	48 83 c4 10          	add    $0x10,%rsp
ffffffff80200db7:	5d                   	pop    %rbp
ffffffff80200db8:	c3                   	retq
ffffffff80200db9:	0f 1f 80 00 00 00 00 	nopl   0x0(%rax)

ffffffff80200dc0 <RTC_GetRegister>:
ffffffff80200dc0:	55                   	push   %rbp
ffffffff80200dc1:	48 89 e5             	mov    %rsp,%rbp
ffffffff80200dc4:	48 83 ec 10          	sub    $0x10,%rsp
ffffffff80200dc8:	40 88 f0             	mov    %sil,%al
ffffffff80200dcb:	40 88 f9             	mov    %dil,%cl
ffffffff80200dce:	88 4d ff             	mov    %cl,-0x1(%rbp)
ffffffff80200dd1:	88 45 fe             	mov    %al,-0x2(%rbp)
ffffffff80200dd4:	8a 45 ff             	mov    -0x1(%rbp),%al
ffffffff80200dd7:	8a 4d fe             	mov    -0x2(%rbp),%cl
ffffffff80200dda:	0f b6 f8             	movzbl %al,%edi
ffffffff80200ddd:	0f b6 f1             	movzbl %cl,%esi
ffffffff80200de0:	e8 3b ff ff ff       	callq  ffffffff80200d20 <RTC_SelectRegister>
ffffffff80200de5:	be 71 00 00 00       	mov    $0x71,%esi
ffffffff80200dea:	bf 71 00 00 00       	mov    $0x71,%edi
ffffffff80200def:	89 75 f8             	mov    %esi,-0x8(%rbp)
ffffffff80200df2:	e8 19 10 00 00       	callq  ffffffff80201e10 <inb>
ffffffff80200df7:	0f b6 c0             	movzbl %al,%eax
ffffffff80200dfa:	48 83 c4 10          	add    $0x10,%rsp
ffffffff80200dfe:	5d                   	pop    %rbp
ffffffff80200dff:	c3                   	retq

ffffffff80200e00 <RTC_UpdateInProgress>:
ffffffff80200e00:	55                   	push   %rbp
ffffffff80200e01:	48 89 e5             	mov    %rsp,%rbp
ffffffff80200e04:	48 83 ec 10          	sub    $0x10,%rsp
ffffffff80200e08:	b8 01 00 00 00       	mov    $0x1,%eax
ffffffff80200e0d:	b9 0a 00 00 00       	mov    $0xa,%ecx
ffffffff80200e12:	bf 01 00 00 00       	mov    $0x1,%edi
ffffffff80200e17:	be 0a 00 00 00       	mov    $0xa,%esi
ffffffff80200e1c:	89 45 fc             	mov    %eax,-0x4(%rbp)
ffffffff80200e1f:	89 4d f8             	mov    %ecx,-0x8(%rbp)
ffffffff80200e22:	e8 99 ff ff ff       	callq  ffffffff80200dc0 <RTC_GetRegister>
ffffffff80200e27:	0f b6 c8             	movzbl %al,%ecx
ffffffff80200e2a:	81 e1 80 00 00 00    	and    $0x80,%ecx
ffffffff80200e30:	88 c8                	mov    %cl,%al
ffffffff80200e32:	0f b6 c0             	movzbl %al,%eax
ffffffff80200e35:	48 83 c4 10          	add    $0x10,%rsp
ffffffff80200e39:	5d                   	pop    %rbp
ffffffff80200e3a:	c3                   	retq
ffffffff80200e3b:	0f 1f 44 00 00       	nopl   0x0(%rax,%rax,1)

ffffffff80200e40 <RTC_GetRTCTime>:
ffffffff80200e40:	55                   	push   %rbp
ffffffff80200e41:	48 89 e5             	mov    %rsp,%rbp
ffffffff80200e44:	48 83 ec 40          	sub    $0x40,%rsp
ffffffff80200e48:	48 89 7d f8          	mov    %rdi,-0x8(%rbp)
ffffffff80200e4c:	c6 45 ef 00          	movb   $0x0,-0x11(%rbp)
ffffffff80200e50:	e8 ab ff ff ff       	callq  ffffffff80200e00 <RTC_UpdateInProgress>
ffffffff80200e55:	3c 00                	cmp    $0x0,%al
ffffffff80200e57:	74 02                	je     ffffffff80200e5b <RTC_GetRTCTime+0x1b>
ffffffff80200e59:	eb f5                	jmp    ffffffff80200e50 <RTC_GetRTCTime+0x10>
ffffffff80200e5b:	b8 01 00 00 00       	mov    $0x1,%eax
ffffffff80200e60:	31 f6                	xor    %esi,%esi
ffffffff80200e62:	89 c7                	mov    %eax,%edi
ffffffff80200e64:	89 45 e0             	mov    %eax,-0x20(%rbp)
ffffffff80200e67:	e8 54 ff ff ff       	callq  ffffffff80200dc0 <RTC_GetRegister>
ffffffff80200e6c:	88 45 f7             	mov    %al,-0x9(%rbp)
ffffffff80200e6f:	be 02 00 00 00       	mov    $0x2,%esi
ffffffff80200e74:	8b 7d e0             	mov    -0x20(%rbp),%edi
ffffffff80200e77:	e8 44 ff ff ff       	callq  ffffffff80200dc0 <RTC_GetRegister>
ffffffff80200e7c:	88 45 f6             	mov    %al,-0xa(%rbp)
ffffffff80200e7f:	be 04 00 00 00       	mov    $0x4,%esi
ffffffff80200e84:	8b 7d e0             	mov    -0x20(%rbp),%edi
ffffffff80200e87:	e8 34 ff ff ff       	callq  ffffffff80200dc0 <RTC_GetRegister>
ffffffff80200e8c:	88 45 f5             	mov    %al,-0xb(%rbp)
ffffffff80200e8f:	be 07 00 00 00       	mov    $0x7,%esi
ffffffff80200e94:	8b 7d e0             	mov    -0x20(%rbp),%edi
ffffffff80200e97:	e8 24 ff ff ff       	callq  ffffffff80200dc0 <RTC_GetRegister>
ffffffff80200e9c:	88 45 f4             	mov    %al,-0xc(%rbp)
ffffffff80200e9f:	be 08 00 00 00       	mov    $0x8,%esi
ffffffff80200ea4:	8b 7d e0             	mov    -0x20(%rbp),%edi
ffffffff80200ea7:	e8 14 ff ff ff       	callq  ffffffff80200dc0 <RTC_GetRegister>
ffffffff80200eac:	88 45 f3             	mov    %al,-0xd(%rbp)
ffffffff80200eaf:	be 09 00 00 00       	mov    $0x9,%esi
ffffffff80200eb4:	8b 7d e0             	mov    -0x20(%rbp),%edi
ffffffff80200eb7:	e8 04 ff ff ff       	callq  ffffffff80200dc0 <RTC_GetRegister>
ffffffff80200ebc:	0f b6 f0             	movzbl %al,%esi
ffffffff80200ebf:	66 89 f1             	mov    %si,%cx
ffffffff80200ec2:	66 89 4d f0          	mov    %cx,-0x10(%rbp)
ffffffff80200ec6:	8b 34 25 00 dd 20 80 	mov    0xffffffff8020dd00,%esi
ffffffff80200ecd:	83 fe 00             	cmp    $0x0,%esi
ffffffff80200ed0:	74 21                	je     ffffffff80200ef3 <RTC_GetRTCTime+0xb3>
ffffffff80200ed2:	b8 01 00 00 00       	mov    $0x1,%eax
ffffffff80200ed7:	8b 0c 25 00 dd 20 80 	mov    0xffffffff8020dd00,%ecx
ffffffff80200ede:	88 ca                	mov    %cl,%dl
ffffffff80200ee0:	0f b6 f2             	movzbl %dl,%esi
ffffffff80200ee3:	bf 01 00 00 00       	mov    $0x1,%edi
ffffffff80200ee8:	89 45 dc             	mov    %eax,-0x24(%rbp)
ffffffff80200eeb:	e8 d0 fe ff ff       	callq  ffffffff80200dc0 <RTC_GetRegister>
ffffffff80200ef0:	88 45 ef             	mov    %al,-0x11(%rbp)
ffffffff80200ef3:	eb 00                	jmp    ffffffff80200ef5 <RTC_GetRTCTime+0xb5>
ffffffff80200ef5:	8a 45 f7             	mov    -0x9(%rbp),%al
ffffffff80200ef8:	88 45 ee             	mov    %al,-0x12(%rbp)
ffffffff80200efb:	8a 45 f6             	mov    -0xa(%rbp),%al
ffffffff80200efe:	88 45 ed             	mov    %al,-0x13(%rbp)
ffffffff80200f01:	8a 45 f5             	mov    -0xb(%rbp),%al
ffffffff80200f04:	88 45 ec             	mov    %al,-0x14(%rbp)
ffffffff80200f07:	8a 45 f4             	mov    -0xc(%rbp),%al
ffffffff80200f0a:	88 45 eb             	mov    %al,-0x15(%rbp)
ffffffff80200f0d:	8a 45 f3             	mov    -0xd(%rbp),%al
ffffffff80200f10:	88 45 ea             	mov    %al,-0x16(%rbp)
ffffffff80200f13:	66 8b 4d f0          	mov    -0x10(%rbp),%cx
ffffffff80200f17:	88 c8                	mov    %cl,%al
ffffffff80200f19:	88 45 e9             	mov    %al,-0x17(%rbp)
ffffffff80200f1c:	8a 45 ef             	mov    -0x11(%rbp),%al
ffffffff80200f1f:	88 45 e8             	mov    %al,-0x18(%rbp)
ffffffff80200f22:	e8 d9 fe ff ff       	callq  ffffffff80200e00 <RTC_UpdateInProgress>
ffffffff80200f27:	3c 00                	cmp    $0x0,%al
ffffffff80200f29:	74 02                	je     ffffffff80200f2d <RTC_GetRTCTime+0xed>
ffffffff80200f2b:	eb f5                	jmp    ffffffff80200f22 <RTC_GetRTCTime+0xe2>
ffffffff80200f2d:	b8 01 00 00 00       	mov    $0x1,%eax
ffffffff80200f32:	31 f6                	xor    %esi,%esi
ffffffff80200f34:	89 c7                	mov    %eax,%edi
ffffffff80200f36:	89 45 d8             	mov    %eax,-0x28(%rbp)
ffffffff80200f39:	e8 82 fe ff ff       	callq  ffffffff80200dc0 <RTC_GetRegister>
ffffffff80200f3e:	88 45 f7             	mov    %al,-0x9(%rbp)
ffffffff80200f41:	be 02 00 00 00       	mov    $0x2,%esi
ffffffff80200f46:	8b 7d d8             	mov    -0x28(%rbp),%edi
ffffffff80200f49:	e8 72 fe ff ff       	callq  ffffffff80200dc0 <RTC_GetRegister>
ffffffff80200f4e:	88 45 f6             	mov    %al,-0xa(%rbp)
ffffffff80200f51:	be 04 00 00 00       	mov    $0x4,%esi
ffffffff80200f56:	8b 7d d8             	mov    -0x28(%rbp),%edi
ffffffff80200f59:	e8 62 fe ff ff       	callq  ffffffff80200dc0 <RTC_GetRegister>
ffffffff80200f5e:	88 45 f5             	mov    %al,-0xb(%rbp)
ffffffff80200f61:	be 07 00 00 00       	mov    $0x7,%esi
ffffffff80200f66:	8b 7d d8             	mov    -0x28(%rbp),%edi
ffffffff80200f69:	e8 52 fe ff ff       	callq  ffffffff80200dc0 <RTC_GetRegister>
ffffffff80200f6e:	88 45 f4             	mov    %al,-0xc(%rbp)
ffffffff80200f71:	be 08 00 00 00       	mov    $0x8,%esi
ffffffff80200f76:	8b 7d d8             	mov    -0x28(%rbp),%edi
ffffffff80200f79:	e8 42 fe ff ff       	callq  ffffffff80200dc0 <RTC_GetRegister>
ffffffff80200f7e:	88 45 f3             	mov    %al,-0xd(%rbp)
ffffffff80200f81:	be 09 00 00 00       	mov    $0x9,%esi
ffffffff80200f86:	8b 7d d8             	mov    -0x28(%rbp),%edi
ffffffff80200f89:	e8 32 fe ff ff       	callq  ffffffff80200dc0 <RTC_GetRegister>
ffffffff80200f8e:	0f b6 f0             	movzbl %al,%esi
ffffffff80200f91:	66 89 f1             	mov    %si,%cx
ffffffff80200f94:	66 89 4d f0          	mov    %cx,-0x10(%rbp)
ffffffff80200f98:	8b 34 25 00 dd 20 80 	mov    0xffffffff8020dd00,%esi
ffffffff80200f9f:	83 fe 00             	cmp    $0x0,%esi
ffffffff80200fa2:	74 21                	je     ffffffff80200fc5 <RTC_GetRTCTime+0x185>
ffffffff80200fa4:	b8 01 00 00 00       	mov    $0x1,%eax
ffffffff80200fa9:	8b 0c 25 00 dd 20 80 	mov    0xffffffff8020dd00,%ecx
ffffffff80200fb0:	88 ca                	mov    %cl,%dl
ffffffff80200fb2:	0f b6 f2             	movzbl %dl,%esi
ffffffff80200fb5:	bf 01 00 00 00       	mov    $0x1,%edi
ffffffff80200fba:	89 45 d4             	mov    %eax,-0x2c(%rbp)
ffffffff80200fbd:	e8 fe fd ff ff       	callq  ffffffff80200dc0 <RTC_GetRegister>
ffffffff80200fc2:	88 45 ef             	mov    %al,-0x11(%rbp)
ffffffff80200fc5:	eb 00                	jmp    ffffffff80200fc7 <RTC_GetRTCTime+0x187>
ffffffff80200fc7:	b0 01                	mov    $0x1,%al
ffffffff80200fc9:	0f b6 4d ee          	movzbl -0x12(%rbp),%ecx
ffffffff80200fcd:	0f b6 55 f7          	movzbl -0x9(%rbp),%edx
ffffffff80200fd1:	39 d1                	cmp    %edx,%ecx
ffffffff80200fd3:	88 45 d3             	mov    %al,-0x2d(%rbp)
ffffffff80200fd6:	75 65                	jne    ffffffff8020103d <RTC_GetRTCTime+0x1fd>
ffffffff80200fd8:	b0 01                	mov    $0x1,%al
ffffffff80200fda:	0f b6 4d ed          	movzbl -0x13(%rbp),%ecx
ffffffff80200fde:	0f b6 55 f6          	movzbl -0xa(%rbp),%edx
ffffffff80200fe2:	39 d1                	cmp    %edx,%ecx
ffffffff80200fe4:	88 45 d3             	mov    %al,-0x2d(%rbp)
ffffffff80200fe7:	75 54                	jne    ffffffff8020103d <RTC_GetRTCTime+0x1fd>
ffffffff80200fe9:	b0 01                	mov    $0x1,%al
ffffffff80200feb:	0f b6 4d ec          	movzbl -0x14(%rbp),%ecx
ffffffff80200fef:	0f b6 55 f5          	movzbl -0xb(%rbp),%edx
ffffffff80200ff3:	39 d1                	cmp    %edx,%ecx
ffffffff80200ff5:	88 45 d3             	mov    %al,-0x2d(%rbp)
ffffffff80200ff8:	75 43                	jne    ffffffff8020103d <RTC_GetRTCTime+0x1fd>
ffffffff80200ffa:	b0 01                	mov    $0x1,%al
ffffffff80200ffc:	0f b6 4d eb          	movzbl -0x15(%rbp),%ecx
ffffffff80201000:	0f b6 55 f4          	movzbl -0xc(%rbp),%edx
ffffffff80201004:	39 d1                	cmp    %edx,%ecx
ffffffff80201006:	88 45 d3             	mov    %al,-0x2d(%rbp)
ffffffff80201009:	75 32                	jne    ffffffff8020103d <RTC_GetRTCTime+0x1fd>
ffffffff8020100b:	b0 01                	mov    $0x1,%al
ffffffff8020100d:	0f b6 4d ea          	movzbl -0x16(%rbp),%ecx
ffffffff80201011:	0f b6 55 f3          	movzbl -0xd(%rbp),%edx
ffffffff80201015:	39 d1                	cmp    %edx,%ecx
ffffffff80201017:	88 45 d3             	mov    %al,-0x2d(%rbp)
ffffffff8020101a:	75 21                	jne    ffffffff8020103d <RTC_GetRTCTime+0x1fd>
ffffffff8020101c:	b0 01                	mov    $0x1,%al
ffffffff8020101e:	0f b6 4d e9          	movzbl -0x17(%rbp),%ecx
ffffffff80201022:	0f b7 55 f0          	movzwl -0x10(%rbp),%edx
ffffffff80201026:	39 d1                	cmp    %edx,%ecx
ffffffff80201028:	88 45 d3             	mov    %al,-0x2d(%rbp)
ffffffff8020102b:	75 10                	jne    ffffffff8020103d <RTC_GetRTCTime+0x1fd>
ffffffff8020102d:	0f b6 45 e8          	movzbl -0x18(%rbp),%eax
ffffffff80201031:	0f b6 4d ef          	movzbl -0x11(%rbp),%ecx
ffffffff80201035:	39 c8                	cmp    %ecx,%eax
ffffffff80201037:	0f 95 c2             	setne  %dl
ffffffff8020103a:	88 55 d3             	mov    %dl,-0x2d(%rbp)
ffffffff8020103d:	8a 45 d3             	mov    -0x2d(%rbp),%al
ffffffff80201040:	a8 01                	test   $0x1,%al
ffffffff80201042:	0f 85 ad fe ff ff    	jne    ffffffff80200ef5 <RTC_GetRTCTime+0xb5>
ffffffff80201048:	b8 01 00 00 00       	mov    $0x1,%eax
ffffffff8020104d:	b9 0b 00 00 00       	mov    $0xb,%ecx
ffffffff80201052:	bf 01 00 00 00       	mov    $0x1,%edi
ffffffff80201057:	be 0b 00 00 00       	mov    $0xb,%esi
ffffffff8020105c:	89 45 cc             	mov    %eax,-0x34(%rbp)
ffffffff8020105f:	89 4d c8             	mov    %ecx,-0x38(%rbp)
ffffffff80201062:	e8 59 fd ff ff       	callq  ffffffff80200dc0 <RTC_GetRegister>
ffffffff80201067:	88 45 e7             	mov    %al,-0x19(%rbp)
ffffffff8020106a:	0f b6 4d e7          	movzbl -0x19(%rbp),%ecx
ffffffff8020106e:	83 e1 04             	and    $0x4,%ecx
ffffffff80201071:	83 f9 00             	cmp    $0x0,%ecx
ffffffff80201074:	0f 85 03 01 00 00    	jne    ffffffff8020117d <RTC_GetRTCTime+0x33d>
ffffffff8020107a:	0f b6 45 f7          	movzbl -0x9(%rbp),%eax
ffffffff8020107e:	89 c1                	mov    %eax,%ecx
ffffffff80201080:	83 e1 0f             	and    $0xf,%ecx
ffffffff80201083:	c1 e8 04             	shr    $0x4,%eax
ffffffff80201086:	89 c2                	mov    %eax,%edx
ffffffff80201088:	8d 04 92             	lea    (%rdx,%rdx,4),%eax
ffffffff8020108b:	89 ca                	mov    %ecx,%edx
ffffffff8020108d:	89 c6                	mov    %eax,%esi
ffffffff8020108f:	8d 04 72             	lea    (%rdx,%rsi,2),%eax
ffffffff80201092:	40 88 c7             	mov    %al,%dil
ffffffff80201095:	40 88 7d f7          	mov    %dil,-0x9(%rbp)
ffffffff80201099:	0f b6 45 f6          	movzbl -0xa(%rbp),%eax
ffffffff8020109d:	89 c1                	mov    %eax,%ecx
ffffffff8020109f:	83 e1 0f             	and    $0xf,%ecx
ffffffff802010a2:	c1 e8 04             	shr    $0x4,%eax
ffffffff802010a5:	89 c2                	mov    %eax,%edx
ffffffff802010a7:	8d 04 92             	lea    (%rdx,%rdx,4),%eax
ffffffff802010aa:	89 ca                	mov    %ecx,%edx
ffffffff802010ac:	89 c6                	mov    %eax,%esi
ffffffff802010ae:	8d 04 72             	lea    (%rdx,%rsi,2),%eax
ffffffff802010b1:	40 88 c7             	mov    %al,%dil
ffffffff802010b4:	40 88 7d f6          	mov    %dil,-0xa(%rbp)
ffffffff802010b8:	0f b6 45 f5          	movzbl -0xb(%rbp),%eax
ffffffff802010bc:	89 c1                	mov    %eax,%ecx
ffffffff802010be:	83 e1 0f             	and    $0xf,%ecx
ffffffff802010c1:	41 89 c0             	mov    %eax,%r8d
ffffffff802010c4:	41 83 e0 70          	and    $0x70,%r8d
ffffffff802010c8:	41 c1 e8 04          	shr    $0x4,%r8d
ffffffff802010cc:	44 89 c2             	mov    %r8d,%edx
ffffffff802010cf:	44 8d 04 92          	lea    (%rdx,%rdx,4),%r8d
ffffffff802010d3:	89 ca                	mov    %ecx,%edx
ffffffff802010d5:	44 89 c6             	mov    %r8d,%esi
ffffffff802010d8:	8d 0c 72             	lea    (%rdx,%rsi,2),%ecx
ffffffff802010db:	25 80 00 00 00       	and    $0x80,%eax
ffffffff802010e0:	09 c1                	or     %eax,%ecx
ffffffff802010e2:	40 88 cf             	mov    %cl,%dil
ffffffff802010e5:	40 88 7d f5          	mov    %dil,-0xb(%rbp)
ffffffff802010e9:	0f b6 45 f4          	movzbl -0xc(%rbp),%eax
ffffffff802010ed:	89 c1                	mov    %eax,%ecx
ffffffff802010ef:	83 e1 0f             	and    $0xf,%ecx
ffffffff802010f2:	c1 e8 04             	shr    $0x4,%eax
ffffffff802010f5:	89 c2                	mov    %eax,%edx
ffffffff802010f7:	8d 04 92             	lea    (%rdx,%rdx,4),%eax
ffffffff802010fa:	89 ca                	mov    %ecx,%edx
ffffffff802010fc:	89 c6                	mov    %eax,%esi
ffffffff802010fe:	8d 04 72             	lea    (%rdx,%rsi,2),%eax
ffffffff80201101:	40 88 c7             	mov    %al,%dil
ffffffff80201104:	40 88 7d f4          	mov    %dil,-0xc(%rbp)
ffffffff80201108:	0f b6 45 f3          	movzbl -0xd(%rbp),%eax
ffffffff8020110c:	89 c1                	mov    %eax,%ecx
ffffffff8020110e:	83 e1 0f             	and    $0xf,%ecx
ffffffff80201111:	c1 e8 04             	shr    $0x4,%eax
ffffffff80201114:	89 c2                	mov    %eax,%edx
ffffffff80201116:	8d 04 92             	lea    (%rdx,%rdx,4),%eax
ffffffff80201119:	89 ca                	mov    %ecx,%edx
ffffffff8020111b:	89 c6                	mov    %eax,%esi
ffffffff8020111d:	8d 04 72             	lea    (%rdx,%rsi,2),%eax
ffffffff80201120:	40 88 c7             	mov    %al,%dil
ffffffff80201123:	40 88 7d f3          	mov    %dil,-0xd(%rbp)
ffffffff80201127:	0f b7 45 f0          	movzwl -0x10(%rbp),%eax
ffffffff8020112b:	89 c1                	mov    %eax,%ecx
ffffffff8020112d:	83 e1 0f             	and    $0xf,%ecx
ffffffff80201130:	c1 e8 04             	shr    $0x4,%eax
ffffffff80201133:	89 c2                	mov    %eax,%edx
ffffffff80201135:	8d 04 92             	lea    (%rdx,%rdx,4),%eax
ffffffff80201138:	89 ca                	mov    %ecx,%edx
ffffffff8020113a:	89 c6                	mov    %eax,%esi
ffffffff8020113c:	8d 04 72             	lea    (%rdx,%rsi,2),%eax
ffffffff8020113f:	66 41 89 c1          	mov    %ax,%r9w
ffffffff80201143:	66 44 89 4d f0       	mov    %r9w,-0x10(%rbp)
ffffffff80201148:	8b 04 25 00 dd 20 80 	mov    0xffffffff8020dd00,%eax
ffffffff8020114f:	83 f8 00             	cmp    $0x0,%eax
ffffffff80201152:	74 27                	je     ffffffff8020117b <RTC_GetRTCTime+0x33b>
ffffffff80201154:	b8 10 00 00 00       	mov    $0x10,%eax
ffffffff80201159:	0f b6 4d ef          	movzbl -0x11(%rbp),%ecx
ffffffff8020115d:	83 e1 0f             	and    $0xf,%ecx
ffffffff80201160:	0f b6 55 ef          	movzbl -0x11(%rbp),%edx
ffffffff80201164:	89 45 c4             	mov    %eax,-0x3c(%rbp)
ffffffff80201167:	89 d0                	mov    %edx,%eax
ffffffff80201169:	99                   	cltd
ffffffff8020116a:	8b 75 c4             	mov    -0x3c(%rbp),%esi
ffffffff8020116d:	f7 fe                	idiv   %esi
ffffffff8020116f:	6b c0 0a             	imul   $0xa,%eax,%eax
ffffffff80201172:	01 c1                	add    %eax,%ecx
ffffffff80201174:	40 88 cf             	mov    %cl,%dil
ffffffff80201177:	40 88 7d ef          	mov    %dil,-0x11(%rbp)
ffffffff8020117b:	eb 00                	jmp    ffffffff8020117d <RTC_GetRTCTime+0x33d>
ffffffff8020117d:	0f b6 45 e7          	movzbl -0x19(%rbp),%eax
ffffffff80201181:	83 e0 02             	and    $0x2,%eax
ffffffff80201184:	83 f8 00             	cmp    $0x0,%eax
ffffffff80201187:	75 2f                	jne    ffffffff802011b8 <RTC_GetRTCTime+0x378>
ffffffff80201189:	0f b6 45 f5          	movzbl -0xb(%rbp),%eax
ffffffff8020118d:	25 80 00 00 00       	and    $0x80,%eax
ffffffff80201192:	83 f8 00             	cmp    $0x0,%eax
ffffffff80201195:	74 21                	je     ffffffff802011b8 <RTC_GetRTCTime+0x378>
ffffffff80201197:	b8 18 00 00 00       	mov    $0x18,%eax
ffffffff8020119c:	0f b6 4d f5          	movzbl -0xb(%rbp),%ecx
ffffffff802011a0:	83 e1 7f             	and    $0x7f,%ecx
ffffffff802011a3:	83 c1 0c             	add    $0xc,%ecx
ffffffff802011a6:	89 45 c0             	mov    %eax,-0x40(%rbp)
ffffffff802011a9:	89 c8                	mov    %ecx,%eax
ffffffff802011ab:	99                   	cltd
ffffffff802011ac:	8b 4d c0             	mov    -0x40(%rbp),%ecx
ffffffff802011af:	f7 f9                	idiv   %ecx
ffffffff802011b1:	40 88 d6             	mov    %dl,%sil
ffffffff802011b4:	40 88 75 f5          	mov    %sil,-0xb(%rbp)
ffffffff802011b8:	8b 04 25 00 dd 20 80 	mov    0xffffffff8020dd00,%eax
ffffffff802011bf:	83 f8 00             	cmp    $0x0,%eax
ffffffff802011c2:	74 16                	je     ffffffff802011da <RTC_GetRTCTime+0x39a>
ffffffff802011c4:	0f b6 45 ef          	movzbl -0x11(%rbp),%eax
ffffffff802011c8:	6b c0 64             	imul   $0x64,%eax,%eax
ffffffff802011cb:	0f b7 4d f0          	movzwl -0x10(%rbp),%ecx
ffffffff802011cf:	01 c1                	add    %eax,%ecx
ffffffff802011d1:	66 89 ca             	mov    %cx,%dx
ffffffff802011d4:	66 89 55 f0          	mov    %dx,-0x10(%rbp)
ffffffff802011d8:	eb 2b                	jmp    ffffffff80201205 <RTC_GetRTCTime+0x3c5>
ffffffff802011da:	0f b7 45 f0          	movzwl -0x10(%rbp),%eax
ffffffff802011de:	05 d0 07 00 00       	add    $0x7d0,%eax
ffffffff802011e3:	66 89 c1             	mov    %ax,%cx
ffffffff802011e6:	66 89 4d f0          	mov    %cx,-0x10(%rbp)
ffffffff802011ea:	0f b7 45 f0          	movzwl -0x10(%rbp),%eax
ffffffff802011ee:	3d df 07 00 00       	cmp    $0x7df,%eax
ffffffff802011f3:	7d 0e                	jge    ffffffff80201203 <RTC_GetRTCTime+0x3c3>
ffffffff802011f5:	0f b7 45 f0          	movzwl -0x10(%rbp),%eax
ffffffff802011f9:	83 c0 64             	add    $0x64,%eax
ffffffff802011fc:	66 89 c1             	mov    %ax,%cx
ffffffff802011ff:	66 89 4d f0          	mov    %cx,-0x10(%rbp)
ffffffff80201203:	eb 00                	jmp    ffffffff80201205 <RTC_GetRTCTime+0x3c5>
ffffffff80201205:	8a 45 f7             	mov    -0x9(%rbp),%al
ffffffff80201208:	48 8b 4d f8          	mov    -0x8(%rbp),%rcx
ffffffff8020120c:	88 01                	mov    %al,(%rcx)
ffffffff8020120e:	8a 45 f6             	mov    -0xa(%rbp),%al
ffffffff80201211:	48 8b 4d f8          	mov    -0x8(%rbp),%rcx
ffffffff80201215:	88 41 01             	mov    %al,0x1(%rcx)
ffffffff80201218:	8a 45 f5             	mov    -0xb(%rbp),%al
ffffffff8020121b:	48 8b 4d f8          	mov    -0x8(%rbp),%rcx
ffffffff8020121f:	88 41 02             	mov    %al,0x2(%rcx)
ffffffff80201222:	8a 45 f4             	mov    -0xc(%rbp),%al
ffffffff80201225:	48 8b 4d f8          	mov    -0x8(%rbp),%rcx
ffffffff80201229:	88 41 03             	mov    %al,0x3(%rcx)
ffffffff8020122c:	8a 45 f3             	mov    -0xd(%rbp),%al
ffffffff8020122f:	48 8b 4d f8          	mov    -0x8(%rbp),%rcx
ffffffff80201233:	88 41 04             	mov    %al,0x4(%rcx)
ffffffff80201236:	66 8b 55 f0          	mov    -0x10(%rbp),%dx
ffffffff8020123a:	48 8b 4d f8          	mov    -0x8(%rbp),%rcx
ffffffff8020123e:	66 89 51 06          	mov    %dx,0x6(%rcx)
ffffffff80201242:	8a 45 ef             	mov    -0x11(%rbp),%al
ffffffff80201245:	48 8b 4d f8          	mov    -0x8(%rbp),%rcx
ffffffff80201249:	88 41 08             	mov    %al,0x8(%rcx)
ffffffff8020124c:	48 83 c4 40          	add    $0x40,%rsp
ffffffff80201250:	5d                   	pop    %rbp
ffffffff80201251:	c3                   	retq
ffffffff80201252:	66 2e 0f 1f 84 00 00 	nopw   %cs:0x0(%rax,%rax,1)
ffffffff80201259:	00 00 00
ffffffff8020125c:	0f 1f 40 00          	nopl   0x0(%rax)

ffffffff80201260 <debug_gfx_writeLine>:
ffffffff80201260:	55                   	push   %rbp
ffffffff80201261:	48 89 e5             	mov    %rsp,%rbp
ffffffff80201264:	48 81 ec e0 02 00 00 	sub    $0x2e0,%rsp
ffffffff8020126b:	84 c0                	test   %al,%al
ffffffff8020126d:	0f 29 bd e0 fd ff ff 	movaps %xmm7,-0x220(%rbp)
ffffffff80201274:	0f 29 b5 d0 fd ff ff 	movaps %xmm6,-0x230(%rbp)
ffffffff8020127b:	0f 29 ad c0 fd ff ff 	movaps %xmm5,-0x240(%rbp)
ffffffff80201282:	0f 29 a5 b0 fd ff ff 	movaps %xmm4,-0x250(%rbp)
ffffffff80201289:	0f 29 9d a0 fd ff ff 	movaps %xmm3,-0x260(%rbp)
ffffffff80201290:	0f 29 95 90 fd ff ff 	movaps %xmm2,-0x270(%rbp)
ffffffff80201297:	0f 29 8d 80 fd ff ff 	movaps %xmm1,-0x280(%rbp)
ffffffff8020129e:	0f 29 85 70 fd ff ff 	movaps %xmm0,-0x290(%rbp)
ffffffff802012a5:	48 89 bd 68 fd ff ff 	mov    %rdi,-0x298(%rbp)
ffffffff802012ac:	4c 89 8d 60 fd ff ff 	mov    %r9,-0x2a0(%rbp)
ffffffff802012b3:	4c 89 85 58 fd ff ff 	mov    %r8,-0x2a8(%rbp)
ffffffff802012ba:	48 89 8d 50 fd ff ff 	mov    %rcx,-0x2b0(%rbp)
ffffffff802012c1:	48 89 95 48 fd ff ff 	mov    %rdx,-0x2b8(%rbp)
ffffffff802012c8:	48 89 b5 40 fd ff ff 	mov    %rsi,-0x2c0(%rbp)
ffffffff802012cf:	74 70                	je     ffffffff80201341 <debug_gfx_writeLine+0xe1>
ffffffff802012d1:	0f 28 85 70 fd ff ff 	movaps -0x290(%rbp),%xmm0
ffffffff802012d8:	0f 29 85 20 fe ff ff 	movaps %xmm0,-0x1e0(%rbp)
ffffffff802012df:	0f 28 8d 80 fd ff ff 	movaps -0x280(%rbp),%xmm1
ffffffff802012e6:	0f 29 8d 30 fe ff ff 	movaps %xmm1,-0x1d0(%rbp)
ffffffff802012ed:	0f 28 95 90 fd ff ff 	movaps -0x270(%rbp),%xmm2
ffffffff802012f4:	0f 29 95 40 fe ff ff 	movaps %xmm2,-0x1c0(%rbp)
ffffffff802012fb:	0f 28 9d a0 fd ff ff 	movaps -0x260(%rbp),%xmm3
ffffffff80201302:	0f 29 9d 50 fe ff ff 	movaps %xmm3,-0x1b0(%rbp)
ffffffff80201309:	0f 28 a5 b0 fd ff ff 	movaps -0x250(%rbp),%xmm4
ffffffff80201310:	0f 29 a5 60 fe ff ff 	movaps %xmm4,-0x1a0(%rbp)
ffffffff80201317:	0f 28 ad c0 fd ff ff 	movaps -0x240(%rbp),%xmm5
ffffffff8020131e:	0f 29 ad 70 fe ff ff 	movaps %xmm5,-0x190(%rbp)
ffffffff80201325:	0f 28 b5 d0 fd ff ff 	movaps -0x230(%rbp),%xmm6
ffffffff8020132c:	0f 29 b5 80 fe ff ff 	movaps %xmm6,-0x180(%rbp)
ffffffff80201333:	0f 28 bd e0 fd ff ff 	movaps -0x220(%rbp),%xmm7
ffffffff8020133a:	0f 29 bd 90 fe ff ff 	movaps %xmm7,-0x170(%rbp)
ffffffff80201341:	48 8b 85 60 fd ff ff 	mov    -0x2a0(%rbp),%rax
ffffffff80201348:	48 89 85 18 fe ff ff 	mov    %rax,-0x1e8(%rbp)
ffffffff8020134f:	48 8b 8d 58 fd ff ff 	mov    -0x2a8(%rbp),%rcx
ffffffff80201356:	48 89 8d 10 fe ff ff 	mov    %rcx,-0x1f0(%rbp)
ffffffff8020135d:	48 8b 95 50 fd ff ff 	mov    -0x2b0(%rbp),%rdx
ffffffff80201364:	48 89 95 08 fe ff ff 	mov    %rdx,-0x1f8(%rbp)
ffffffff8020136b:	48 8b b5 48 fd ff ff 	mov    -0x2b8(%rbp),%rsi
ffffffff80201372:	48 89 b5 00 fe ff ff 	mov    %rsi,-0x200(%rbp)
ffffffff80201379:	48 8b bd 40 fd ff ff 	mov    -0x2c0(%rbp),%rdi
ffffffff80201380:	48 89 bd f8 fd ff ff 	mov    %rdi,-0x208(%rbp)
ffffffff80201387:	4c 8b 85 68 fd ff ff 	mov    -0x298(%rbp),%r8
ffffffff8020138e:	4c 89 45 f8          	mov    %r8,-0x8(%rbp)
ffffffff80201392:	f4                   	hlt
ffffffff80201393:	41 b9 00 01 00 00    	mov    $0x100,%r9d
ffffffff80201399:	44 89 ca             	mov    %r9d,%edx
ffffffff8020139c:	4c 8d 85 f0 fe ff ff 	lea    -0x110(%rbp),%r8
ffffffff802013a3:	31 f6                	xor    %esi,%esi
ffffffff802013a5:	4c 89 c7             	mov    %r8,%rdi
ffffffff802013a8:	4c 89 85 38 fd ff ff 	mov    %r8,-0x2c8(%rbp)
ffffffff802013af:	e8 2c 33 00 00       	callq  ffffffff802046e0 <memset>
ffffffff802013b4:	48 8d 8d f0 fd ff ff 	lea    -0x210(%rbp),%rcx
ffffffff802013bb:	48 89 8d e0 fe ff ff 	mov    %rcx,-0x120(%rbp)
ffffffff802013c2:	48 8d 4d 10          	lea    0x10(%rbp),%rcx
ffffffff802013c6:	48 89 8d d8 fe ff ff 	mov    %rcx,-0x128(%rbp)
ffffffff802013cd:	c7 85 d4 fe ff ff 30 	movl   $0x30,-0x12c(%rbp)
ffffffff802013d4:	00 00 00
ffffffff802013d7:	c7 85 d0 fe ff ff 08 	movl   $0x8,-0x130(%rbp)
ffffffff802013de:	00 00 00
ffffffff802013e1:	48 8b 75 f8          	mov    -0x8(%rbp),%rsi
ffffffff802013e5:	48 8d 95 d0 fe ff ff 	lea    -0x130(%rbp),%rdx
ffffffff802013ec:	48 8b bd 38 fd ff ff 	mov    -0x2c8(%rbp),%rdi
ffffffff802013f3:	48 89 85 30 fd ff ff 	mov    %rax,-0x2d0(%rbp)
ffffffff802013fa:	e8 41 3c 00 00       	callq  ffffffff80205040 <vsnprintf>
ffffffff802013ff:	89 85 2c fd ff ff    	mov    %eax,-0x2d4(%rbp)
ffffffff80201405:	e8 a6 49 00 00       	callq  ffffffff80205db0 <GetBootInfo>
ffffffff8020140a:	48 89 85 c8 fe ff ff 	mov    %rax,-0x138(%rbp)
ffffffff80201411:	44 8b 0c 25 04 dd 20 	mov    0xffffffff8020dd04,%r9d
ffffffff80201418:	80
ffffffff80201419:	44 89 8d c4 fe ff ff 	mov    %r9d,-0x13c(%rbp)
ffffffff80201420:	44 8b 0c 25 08 dd 20 	mov    0xffffffff8020dd08,%r9d
ffffffff80201427:	80
ffffffff80201428:	44 89 8d c0 fe ff ff 	mov    %r9d,-0x140(%rbp)
ffffffff8020142f:	48 8b 85 c8 fe ff ff 	mov    -0x138(%rbp),%rax
ffffffff80201436:	44 8b 48 38          	mov    0x38(%rax),%r9d
ffffffff8020143a:	44 89 8d bc fe ff ff 	mov    %r9d,-0x144(%rbp)
ffffffff80201441:	48 8b 85 c8 fe ff ff 	mov    -0x138(%rbp),%rax
ffffffff80201448:	48 8b 40 30          	mov    0x30(%rax),%rax
ffffffff8020144c:	48 89 85 b0 fe ff ff 	mov    %rax,-0x150(%rbp)
ffffffff80201453:	c7 85 ac fe ff ff 00 	movl   $0x0,-0x154(%rbp)
ffffffff8020145a:	00 00 00
ffffffff8020145d:	48 63 85 ac fe ff ff 	movslq -0x154(%rbp),%rax
ffffffff80201464:	0f be 8c 05 f0 fe ff 	movsbl -0x110(%rbp,%rax,1),%ecx
ffffffff8020146b:	ff
ffffffff8020146c:	83 f9 00             	cmp    $0x0,%ecx
ffffffff8020146f:	0f 84 14 01 00 00    	je     ffffffff80201589 <debug_gfx_writeLine+0x329>
ffffffff80201475:	c7 85 a8 fe ff ff 00 	movl   $0x0,-0x158(%rbp)
ffffffff8020147c:	00 00 00
ffffffff8020147f:	83 bd a8 fe ff ff 08 	cmpl   $0x8,-0x158(%rbp)
ffffffff80201486:	0f 8d e7 00 00 00    	jge    ffffffff80201573 <debug_gfx_writeLine+0x313>
ffffffff8020148c:	8b 85 c0 fe ff ff    	mov    -0x140(%rbp),%eax
ffffffff80201492:	89 85 a4 fe ff ff    	mov    %eax,-0x15c(%rbp)
ffffffff80201498:	8b 85 a4 fe ff ff    	mov    -0x15c(%rbp),%eax
ffffffff8020149e:	8b 8d c0 fe ff ff    	mov    -0x140(%rbp),%ecx
ffffffff802014a4:	83 c1 0d             	add    $0xd,%ecx
ffffffff802014a7:	39 c8                	cmp    %ecx,%eax
ffffffff802014a9:	0f 8d a1 00 00 00    	jge    ffffffff80201550 <debug_gfx_writeLine+0x2f0>
ffffffff802014af:	b8 08 00 00 00       	mov    $0x8,%eax
ffffffff802014b4:	8b 8d a4 fe ff ff    	mov    -0x15c(%rbp),%ecx
ffffffff802014ba:	8b 95 c0 fe ff ff    	mov    -0x140(%rbp),%edx
ffffffff802014c0:	29 d1                	sub    %edx,%ecx
ffffffff802014c2:	ba 0d 00 00 00       	mov    $0xd,%edx
ffffffff802014c7:	29 ca                	sub    %ecx,%edx
ffffffff802014c9:	48 63 f2             	movslq %edx,%rsi
ffffffff802014cc:	48 63 bd ac fe ff ff 	movslq -0x154(%rbp),%rdi
ffffffff802014d3:	0f be 8c 3d f0 fe ff 	movsbl -0x110(%rbp,%rdi,1),%ecx
ffffffff802014da:	ff
ffffffff802014db:	83 c1 e0             	add    $0xffffffe0,%ecx
ffffffff802014de:	48 63 f9             	movslq %ecx,%rdi
ffffffff802014e1:	48 6b ff 0d          	imul   $0xd,%rdi,%rdi
ffffffff802014e5:	48 8d bf 10 80 20 80 	lea    -0x7fdf7ff0(%rdi),%rdi
ffffffff802014ec:	0f b6 0c 37          	movzbl (%rdi,%rsi,1),%ecx
ffffffff802014f0:	8b 95 a8 fe ff ff    	mov    -0x158(%rbp),%edx
ffffffff802014f6:	89 8d 28 fd ff ff    	mov    %ecx,-0x2d8(%rbp)
ffffffff802014fc:	89 d1                	mov    %edx,%ecx
ffffffff802014fe:	8b 95 28 fd ff ff    	mov    -0x2d8(%rbp),%edx
ffffffff80201504:	d3 fa                	sar    %cl,%edx
ffffffff80201506:	83 e2 01             	and    $0x1,%edx
ffffffff80201509:	69 d2 dd dd dd dd    	imul   $0xdddddddd,%edx,%edx
ffffffff8020150f:	44 8b 85 c4 fe ff ff 	mov    -0x13c(%rbp),%r8d
ffffffff80201516:	2b 85 a8 fe ff ff    	sub    -0x158(%rbp),%eax
ffffffff8020151c:	41 01 c0             	add    %eax,%r8d
ffffffff8020151f:	8b 85 a4 fe ff ff    	mov    -0x15c(%rbp),%eax
ffffffff80201525:	0f af 85 bc fe ff ff 	imul   -0x144(%rbp),%eax
ffffffff8020152c:	41 01 c0             	add    %eax,%r8d
ffffffff8020152f:	49 63 f0             	movslq %r8d,%rsi
ffffffff80201532:	48 8b bd b0 fe ff ff 	mov    -0x150(%rbp),%rdi
ffffffff80201539:	89 14 b7             	mov    %edx,(%rdi,%rsi,4)
ffffffff8020153c:	8b 85 a4 fe ff ff    	mov    -0x15c(%rbp),%eax
ffffffff80201542:	83 c0 01             	add    $0x1,%eax
ffffffff80201545:	89 85 a4 fe ff ff    	mov    %eax,-0x15c(%rbp)
ffffffff8020154b:	e9 48 ff ff ff       	jmpq   ffffffff80201498 <debug_gfx_writeLine+0x238>
ffffffff80201550:	8b 85 c4 fe ff ff    	mov    -0x13c(%rbp),%eax
ffffffff80201556:	83 c0 08             	add    $0x8,%eax
ffffffff80201559:	89 85 c4 fe ff ff    	mov    %eax,-0x13c(%rbp)
ffffffff8020155f:	8b 85 a8 fe ff ff    	mov    -0x158(%rbp),%eax
ffffffff80201565:	83 c0 01             	add    $0x1,%eax
ffffffff80201568:	89 85 a8 fe ff ff    	mov    %eax,-0x158(%rbp)
ffffffff8020156e:	e9 0c ff ff ff       	jmpq   ffffffff8020147f <debug_gfx_writeLine+0x21f>
ffffffff80201573:	eb 00                	jmp    ffffffff80201575 <debug_gfx_writeLine+0x315>
ffffffff80201575:	8b 85 ac fe ff ff    	mov    -0x154(%rbp),%eax
ffffffff8020157b:	83 c0 01             	add    $0x1,%eax
ffffffff8020157e:	89 85 ac fe ff ff    	mov    %eax,-0x154(%rbp)
ffffffff80201584:	e9 d4 fe ff ff       	jmpq   ffffffff8020145d <debug_gfx_writeLine+0x1fd>
ffffffff80201589:	8b 85 c0 fe ff ff    	mov    -0x140(%rbp),%eax
ffffffff8020158f:	89 04 25 08 dd 20 80 	mov    %eax,0xffffffff8020dd08
ffffffff80201596:	8b 85 c4 fe ff ff    	mov    -0x13c(%rbp),%eax
ffffffff8020159c:	89 04 25 04 dd 20 80 	mov    %eax,0xffffffff8020dd04
ffffffff802015a3:	48 81 c4 e0 02 00 00 	add    $0x2e0,%rsp
ffffffff802015aa:	5d                   	pop    %rbp
ffffffff802015ab:	c3                   	retq
ffffffff802015ac:	0f 1f 40 00          	nopl   0x0(%rax)

ffffffff802015b0 <GetVirtualAddress>:
ffffffff802015b0:	55                   	push   %rbp
ffffffff802015b1:	48 89 e5             	mov    %rsp,%rbp
ffffffff802015b4:	48 83 ec 10          	sub    $0x10,%rsp
ffffffff802015b8:	48 89 7d f8          	mov    %rdi,-0x8(%rbp)
ffffffff802015bc:	48 8b 7d f8          	mov    -0x8(%rbp),%rdi
ffffffff802015c0:	e8 9b 2b 00 00       	callq  ffffffff80204160 <VirtMemMan_GetVirtualAddress>
ffffffff802015c5:	48 83 c4 10          	add    $0x10,%rsp
ffffffff802015c9:	5d                   	pop    %rbp
ffffffff802015ca:	c3                   	retq
ffffffff802015cb:	0f 1f 44 00 00       	nopl   0x0(%rax,%rax,1)

ffffffff802015d0 <GetPhysicalAddress>:
ffffffff802015d0:	55                   	push   %rbp
ffffffff802015d1:	48 89 e5             	mov    %rsp,%rbp
ffffffff802015d4:	48 83 ec 10          	sub    $0x10,%rsp
ffffffff802015d8:	48 89 7d f8          	mov    %rdi,-0x8(%rbp)
ffffffff802015dc:	e8 bf 1f 00 00       	callq  ffffffff802035a0 <VirtMemMan_GetCurrent>
ffffffff802015e1:	48 8b 75 f8          	mov    -0x8(%rbp),%rsi
ffffffff802015e5:	48 89 c7             	mov    %rax,%rdi
ffffffff802015e8:	e8 43 29 00 00       	callq  ffffffff80203f30 <VirtMemMan_GetPhysicalAddress>
ffffffff802015ed:	48 83 c4 10          	add    $0x10,%rsp
ffffffff802015f1:	5d                   	pop    %rbp
ffffffff802015f2:	c3                   	retq
ffffffff802015f3:	66 2e 0f 1f 84 00 00 	nopw   %cs:0x0(%rax,%rax,1)
ffffffff802015fa:	00 00 00
ffffffff802015fd:	0f 1f 00             	nopl   (%rax)

ffffffff80201600 <APIC_LocalInitialize>:
ffffffff80201600:	55                   	push   %rbp
ffffffff80201601:	48 89 e5             	mov    %rsp,%rbp
ffffffff80201604:	48 81 ec 90 00 00 00 	sub    $0x90,%rsp
ffffffff8020160b:	b8 21 00 00 00       	mov    $0x21,%eax
ffffffff80201610:	bf 21 00 00 00       	mov    $0x21,%edi
ffffffff80201615:	89 45 e4             	mov    %eax,-0x1c(%rbp)
ffffffff80201618:	e8 f3 07 00 00       	callq  ffffffff80201e10 <inb>
ffffffff8020161d:	bf a1 00 00 00       	mov    $0xa1,%edi
ffffffff80201622:	88 45 ff             	mov    %al,-0x1(%rbp)
ffffffff80201625:	b9 a1 00 00 00       	mov    $0xa1,%ecx
ffffffff8020162a:	89 7d e0             	mov    %edi,-0x20(%rbp)
ffffffff8020162d:	89 cf                	mov    %ecx,%edi
ffffffff8020162f:	e8 dc 07 00 00       	callq  ffffffff80201e10 <inb>
ffffffff80201634:	b9 20 00 00 00       	mov    $0x20,%ecx
ffffffff80201639:	bf 11 00 00 00       	mov    $0x11,%edi
ffffffff8020163e:	88 45 fe             	mov    %al,-0x2(%rbp)
ffffffff80201641:	ba 20 00 00 00       	mov    $0x20,%edx
ffffffff80201646:	be 11 00 00 00       	mov    $0x11,%esi
ffffffff8020164b:	89 7d dc             	mov    %edi,-0x24(%rbp)
ffffffff8020164e:	89 d7                	mov    %edx,%edi
ffffffff80201650:	89 4d d8             	mov    %ecx,-0x28(%rbp)
ffffffff80201653:	e8 88 07 00 00       	callq  ffffffff80201de0 <outb>
ffffffff80201658:	b9 a0 00 00 00       	mov    $0xa0,%ecx
ffffffff8020165d:	ba 11 00 00 00       	mov    $0x11,%edx
ffffffff80201662:	bf a0 00 00 00       	mov    $0xa0,%edi
ffffffff80201667:	be 11 00 00 00       	mov    $0x11,%esi
ffffffff8020166c:	89 4d d4             	mov    %ecx,-0x2c(%rbp)
ffffffff8020166f:	89 55 d0             	mov    %edx,-0x30(%rbp)
ffffffff80201672:	e8 69 07 00 00       	callq  ffffffff80201de0 <outb>
ffffffff80201677:	b9 21 00 00 00       	mov    $0x21,%ecx
ffffffff8020167c:	ba 20 00 00 00       	mov    $0x20,%edx
ffffffff80201681:	bf 21 00 00 00       	mov    $0x21,%edi
ffffffff80201686:	be 20 00 00 00       	mov    $0x20,%esi
ffffffff8020168b:	89 4d cc             	mov    %ecx,-0x34(%rbp)
ffffffff8020168e:	89 55 c8             	mov    %edx,-0x38(%rbp)
ffffffff80201691:	e8 4a 07 00 00       	callq  ffffffff80201de0 <outb>
ffffffff80201696:	b9 a1 00 00 00       	mov    $0xa1,%ecx
ffffffff8020169b:	ba 28 00 00 00       	mov    $0x28,%edx
ffffffff802016a0:	bf a1 00 00 00       	mov    $0xa1,%edi
ffffffff802016a5:	be 28 00 00 00       	mov    $0x28,%esi
ffffffff802016aa:	89 4d c4             	mov    %ecx,-0x3c(%rbp)
ffffffff802016ad:	89 55 c0             	mov    %edx,-0x40(%rbp)
ffffffff802016b0:	e8 2b 07 00 00       	callq  ffffffff80201de0 <outb>
ffffffff802016b5:	b9 21 00 00 00       	mov    $0x21,%ecx
ffffffff802016ba:	ba 04 00 00 00       	mov    $0x4,%edx
ffffffff802016bf:	bf 21 00 00 00       	mov    $0x21,%edi
ffffffff802016c4:	be 04 00 00 00       	mov    $0x4,%esi
ffffffff802016c9:	89 4d bc             	mov    %ecx,-0x44(%rbp)
ffffffff802016cc:	89 55 b8             	mov    %edx,-0x48(%rbp)
ffffffff802016cf:	e8 0c 07 00 00       	callq  ffffffff80201de0 <outb>
ffffffff802016d4:	b9 a1 00 00 00       	mov    $0xa1,%ecx
ffffffff802016d9:	ba 02 00 00 00       	mov    $0x2,%edx
ffffffff802016de:	bf a1 00 00 00       	mov    $0xa1,%edi
ffffffff802016e3:	be 02 00 00 00       	mov    $0x2,%esi
ffffffff802016e8:	89 4d b4             	mov    %ecx,-0x4c(%rbp)
ffffffff802016eb:	89 55 b0             	mov    %edx,-0x50(%rbp)
ffffffff802016ee:	e8 ed 06 00 00       	callq  ffffffff80201de0 <outb>
ffffffff802016f3:	b9 21 00 00 00       	mov    $0x21,%ecx
ffffffff802016f8:	ba 01 00 00 00       	mov    $0x1,%edx
ffffffff802016fd:	bf 21 00 00 00       	mov    $0x21,%edi
ffffffff80201702:	be 01 00 00 00       	mov    $0x1,%esi
ffffffff80201707:	89 4d ac             	mov    %ecx,-0x54(%rbp)
ffffffff8020170a:	89 55 a8             	mov    %edx,-0x58(%rbp)
ffffffff8020170d:	e8 ce 06 00 00       	callq  ffffffff80201de0 <outb>
ffffffff80201712:	b9 a1 00 00 00       	mov    $0xa1,%ecx
ffffffff80201717:	ba 01 00 00 00       	mov    $0x1,%edx
ffffffff8020171c:	bf a1 00 00 00       	mov    $0xa1,%edi
ffffffff80201721:	be 01 00 00 00       	mov    $0x1,%esi
ffffffff80201726:	89 4d a4             	mov    %ecx,-0x5c(%rbp)
ffffffff80201729:	89 55 a0             	mov    %edx,-0x60(%rbp)
ffffffff8020172c:	e8 af 06 00 00       	callq  ffffffff80201de0 <outb>
ffffffff80201731:	b9 21 00 00 00       	mov    $0x21,%ecx
ffffffff80201736:	8a 45 ff             	mov    -0x1(%rbp),%al
ffffffff80201739:	0f b6 f0             	movzbl %al,%esi
ffffffff8020173c:	bf 21 00 00 00       	mov    $0x21,%edi
ffffffff80201741:	89 4d 9c             	mov    %ecx,-0x64(%rbp)
ffffffff80201744:	e8 97 06 00 00       	callq  ffffffff80201de0 <outb>
ffffffff80201749:	b9 a1 00 00 00       	mov    $0xa1,%ecx
ffffffff8020174e:	8a 45 fe             	mov    -0x2(%rbp),%al
ffffffff80201751:	0f b6 f0             	movzbl %al,%esi
ffffffff80201754:	bf a1 00 00 00       	mov    $0xa1,%edi
ffffffff80201759:	89 4d 98             	mov    %ecx,-0x68(%rbp)
ffffffff8020175c:	e8 7f 06 00 00       	callq  ffffffff80201de0 <outb>
ffffffff80201761:	b9 21 00 00 00       	mov    $0x21,%ecx
ffffffff80201766:	ba ff 00 00 00       	mov    $0xff,%edx
ffffffff8020176b:	bf 21 00 00 00       	mov    $0x21,%edi
ffffffff80201770:	be ff 00 00 00       	mov    $0xff,%esi
ffffffff80201775:	89 4d 94             	mov    %ecx,-0x6c(%rbp)
ffffffff80201778:	89 55 90             	mov    %edx,-0x70(%rbp)
ffffffff8020177b:	e8 60 06 00 00       	callq  ffffffff80201de0 <outb>
ffffffff80201780:	b9 a1 00 00 00       	mov    $0xa1,%ecx
ffffffff80201785:	ba ff 00 00 00       	mov    $0xff,%edx
ffffffff8020178a:	bf a1 00 00 00       	mov    $0xa1,%edi
ffffffff8020178f:	be ff 00 00 00       	mov    $0xff,%esi
ffffffff80201794:	89 4d 8c             	mov    %ecx,-0x74(%rbp)
ffffffff80201797:	89 55 88             	mov    %edx,-0x78(%rbp)
ffffffff8020179a:	e8 41 06 00 00       	callq  ffffffff80201de0 <outb>
ffffffff8020179f:	c7 45 f8 20 00 00 00 	movl   $0x20,-0x8(%rbp)
ffffffff802017a6:	81 7d f8 00 01 00 00 	cmpl   $0x100,-0x8(%rbp)
ffffffff802017ad:	7d 1f                	jge    ffffffff802017ce <APIC_LocalInitialize+0x1ce>
ffffffff802017af:	8b 45 f8             	mov    -0x8(%rbp),%eax
ffffffff802017b2:	88 c1                	mov    %al,%cl
ffffffff802017b4:	0f b6 f9             	movzbl %cl,%edi
ffffffff802017b7:	48 c7 c6 b0 18 20 80 	mov    $0xffffffff802018b0,%rsi
ffffffff802017be:	e8 5d f2 ff ff       	callq  ffffffff80200a20 <IDT_RegisterHandler>
ffffffff802017c3:	8b 45 f8             	mov    -0x8(%rbp),%eax
ffffffff802017c6:	83 c0 01             	add    $0x1,%eax
ffffffff802017c9:	89 45 f8             	mov    %eax,-0x8(%rbp)
ffffffff802017cc:	eb d8                	jmp    ffffffff802017a6 <APIC_LocalInitialize+0x1a6>
ffffffff802017ce:	b8 1b 00 00 00       	mov    $0x1b,%eax
ffffffff802017d3:	bf 1b 00 00 00       	mov    $0x1b,%edi
ffffffff802017d8:	89 45 84             	mov    %eax,-0x7c(%rbp)
ffffffff802017db:	e8 40 07 00 00       	callq  ffffffff80201f20 <rdmsr>
ffffffff802017e0:	48 89 45 f0          	mov    %rax,-0x10(%rbp)
ffffffff802017e4:	89 c7                	mov    %eax,%edi
ffffffff802017e6:	81 e7 00 f0 ff ff    	and    $0xfffff000,%edi
ffffffff802017ec:	e8 bf fd ff ff       	callq  ffffffff802015b0 <GetVirtualAddress>
ffffffff802017f1:	48 89 04 25 10 dd 20 	mov    %rax,0xffffffff8020dd10
ffffffff802017f8:	80
ffffffff802017f9:	48 8b 45 f0          	mov    -0x10(%rbp),%rax
ffffffff802017fd:	48 0d 00 08 00 00    	or     $0x800,%rax
ffffffff80201803:	48 89 45 f0          	mov    %rax,-0x10(%rbp)
ffffffff80201807:	48 8b 75 f0          	mov    -0x10(%rbp),%rsi
ffffffff8020180b:	bf 1b 00 00 00       	mov    $0x1b,%edi
ffffffff80201810:	e8 cb 06 00 00       	callq  ffffffff80201ee0 <wrmsr>
ffffffff80201815:	bf 80 00 00 00       	mov    $0x80,%edi
ffffffff8020181a:	b9 80 00 00 00       	mov    $0x80,%ecx
ffffffff8020181f:	89 7d 80             	mov    %edi,-0x80(%rbp)
ffffffff80201822:	89 cf                	mov    %ecx,%edi
ffffffff80201824:	e8 b7 00 00 00       	callq  ffffffff802018e0 <APIC_Read>
ffffffff80201829:	b9 80 00 00 00       	mov    $0x80,%ecx
ffffffff8020182e:	89 45 ec             	mov    %eax,-0x14(%rbp)
ffffffff80201831:	8b 45 ec             	mov    -0x14(%rbp),%eax
ffffffff80201834:	25 00 ff ff ff       	and    $0xffffff00,%eax
ffffffff80201839:	89 45 ec             	mov    %eax,-0x14(%rbp)
ffffffff8020183c:	8b 75 ec             	mov    -0x14(%rbp),%esi
ffffffff8020183f:	bf 80 00 00 00       	mov    $0x80,%edi
ffffffff80201844:	89 8d 7c ff ff ff    	mov    %ecx,-0x84(%rbp)
ffffffff8020184a:	e8 c1 00 00 00       	callq  ffffffff80201910 <APIC_Write>
ffffffff8020184f:	b8 f0 00 00 00       	mov    $0xf0,%eax
ffffffff80201854:	bf f0 00 00 00       	mov    $0xf0,%edi
ffffffff80201859:	89 85 78 ff ff ff    	mov    %eax,-0x88(%rbp)
ffffffff8020185f:	e8 7c 00 00 00       	callq  ffffffff802018e0 <APIC_Read>
ffffffff80201864:	b9 f0 00 00 00       	mov    $0xf0,%ecx
ffffffff80201869:	89 45 e8             	mov    %eax,-0x18(%rbp)
ffffffff8020186c:	8b 45 e8             	mov    -0x18(%rbp),%eax
ffffffff8020186f:	0d ff 00 00 00       	or     $0xff,%eax
ffffffff80201874:	89 45 e8             	mov    %eax,-0x18(%rbp)
ffffffff80201877:	8b 75 e8             	mov    -0x18(%rbp),%esi
ffffffff8020187a:	bf f0 00 00 00       	mov    $0xf0,%edi
ffffffff8020187f:	89 8d 74 ff ff ff    	mov    %ecx,-0x8c(%rbp)
ffffffff80201885:	e8 86 00 00 00       	callq  ffffffff80201910 <APIC_Write>
ffffffff8020188a:	b8 01 00 00 00       	mov    $0x1,%eax
ffffffff8020188f:	bf 01 00 00 00       	mov    $0x1,%edi
ffffffff80201894:	89 85 70 ff ff ff    	mov    %eax,-0x90(%rbp)
ffffffff8020189a:	e8 a1 00 00 00       	callq  ffffffff80201940 <APIC_SetEnableMode>
ffffffff8020189f:	31 c0                	xor    %eax,%eax
ffffffff802018a1:	88 c2                	mov    %al,%dl
ffffffff802018a3:	0f b6 c2             	movzbl %dl,%eax
ffffffff802018a6:	48 81 c4 90 00 00 00 	add    $0x90,%rsp
ffffffff802018ad:	5d                   	pop    %rbp
ffffffff802018ae:	c3                   	retq
ffffffff802018af:	90                   	nop

ffffffff802018b0 <APIC_MainHandler>:
ffffffff802018b0:	55                   	push   %rbp
ffffffff802018b1:	48 89 e5             	mov    %rsp,%rbp
ffffffff802018b4:	48 83 ec 10          	sub    $0x10,%rsp
ffffffff802018b8:	48 89 7d f8          	mov    %rdi,-0x8(%rbp)
ffffffff802018bc:	48 8b 7d f8          	mov    -0x8(%rbp),%rdi
ffffffff802018c0:	48 8b bf 80 00 00 00 	mov    0x80(%rdi),%rdi
ffffffff802018c7:	40 88 f8             	mov    %dil,%al
ffffffff802018ca:	0f b6 f8             	movzbl %al,%edi
ffffffff802018cd:	e8 0e 04 00 00       	callq  ffffffff80201ce0 <APIC_SendEOI>
ffffffff802018d2:	48 83 c4 10          	add    $0x10,%rsp
ffffffff802018d6:	5d                   	pop    %rbp
ffffffff802018d7:	c3                   	retq
ffffffff802018d8:	0f 1f 84 00 00 00 00 	nopl   0x0(%rax,%rax,1)
ffffffff802018df:	00

ffffffff802018e0 <APIC_Read>:
ffffffff802018e0:	55                   	push   %rbp
ffffffff802018e1:	48 89 e5             	mov    %rsp,%rbp
ffffffff802018e4:	48 83 ec 04          	sub    $0x4,%rsp
ffffffff802018e8:	89 7d fc             	mov    %edi,-0x4(%rbp)
ffffffff802018eb:	c1 ef 02             	shr    $0x2,%edi
ffffffff802018ee:	89 f8                	mov    %edi,%eax
ffffffff802018f0:	48 8b 0c 25 10 dd 20 	mov    0xffffffff8020dd10,%rcx
ffffffff802018f7:	80
ffffffff802018f8:	8b 04 81             	mov    (%rcx,%rax,4),%eax
ffffffff802018fb:	48 83 c4 04          	add    $0x4,%rsp
ffffffff802018ff:	5d                   	pop    %rbp
ffffffff80201900:	c3                   	retq
ffffffff80201901:	0f 1f 44 00 00       	nopl   0x0(%rax,%rax,1)
ffffffff80201906:	66 2e 0f 1f 84 00 00 	nopw   %cs:0x0(%rax,%rax,1)
ffffffff8020190d:	00 00 00

ffffffff80201910 <APIC_Write>:
ffffffff80201910:	55                   	push   %rbp
ffffffff80201911:	48 89 e5             	mov    %rsp,%rbp
ffffffff80201914:	50                   	push   %rax
ffffffff80201915:	89 7d fc             	mov    %edi,-0x4(%rbp)
ffffffff80201918:	89 75 f8             	mov    %esi,-0x8(%rbp)
ffffffff8020191b:	8b 7d fc             	mov    -0x4(%rbp),%edi
ffffffff8020191e:	c1 ef 02             	shr    $0x2,%edi
ffffffff80201921:	89 f8                	mov    %edi,%eax
ffffffff80201923:	48 8b 0c 25 10 dd 20 	mov    0xffffffff8020dd10,%rcx
ffffffff8020192a:	80
ffffffff8020192b:	89 34 81             	mov    %esi,(%rcx,%rax,4)
ffffffff8020192e:	48 83 c4 08          	add    $0x8,%rsp
ffffffff80201932:	5d                   	pop    %rbp
ffffffff80201933:	c3                   	retq
ffffffff80201934:	66 90                	xchg   %ax,%ax
ffffffff80201936:	66 2e 0f 1f 84 00 00 	nopw   %cs:0x0(%rax,%rax,1)
ffffffff8020193d:	00 00 00

ffffffff80201940 <APIC_SetEnableMode>:
ffffffff80201940:	55                   	push   %rbp
ffffffff80201941:	48 89 e5             	mov    %rsp,%rbp
ffffffff80201944:	48 83 ec 10          	sub    $0x10,%rsp
ffffffff80201948:	40 88 f8             	mov    %dil,%al
ffffffff8020194b:	bf f0 00 00 00       	mov    $0xf0,%edi
ffffffff80201950:	88 45 ff             	mov    %al,-0x1(%rbp)
ffffffff80201953:	b9 f0 00 00 00       	mov    $0xf0,%ecx
ffffffff80201958:	89 7d f4             	mov    %edi,-0xc(%rbp)
ffffffff8020195b:	89 cf                	mov    %ecx,%edi
ffffffff8020195d:	e8 7e ff ff ff       	callq  ffffffff802018e0 <APIC_Read>
ffffffff80201962:	b9 f0 00 00 00       	mov    $0xf0,%ecx
ffffffff80201967:	31 ff                	xor    %edi,%edi
ffffffff80201969:	89 45 f8             	mov    %eax,-0x8(%rbp)
ffffffff8020196c:	8b 45 f8             	mov    -0x8(%rbp),%eax
ffffffff8020196f:	0f b6 55 ff          	movzbl -0x1(%rbp),%edx
ffffffff80201973:	83 e2 01             	and    $0x1,%edx
ffffffff80201976:	29 d7                	sub    %edx,%edi
ffffffff80201978:	33 7d f8             	xor    -0x8(%rbp),%edi
ffffffff8020197b:	81 e7 00 01 00 00    	and    $0x100,%edi
ffffffff80201981:	31 f8                	xor    %edi,%eax
ffffffff80201983:	89 45 f8             	mov    %eax,-0x8(%rbp)
ffffffff80201986:	8b 75 f8             	mov    -0x8(%rbp),%esi
ffffffff80201989:	bf f0 00 00 00       	mov    $0xf0,%edi
ffffffff8020198e:	89 4d f0             	mov    %ecx,-0x10(%rbp)
ffffffff80201991:	e8 7a ff ff ff       	callq  ffffffff80201910 <APIC_Write>
ffffffff80201996:	48 83 c4 10          	add    $0x10,%rsp
ffffffff8020199a:	5d                   	pop    %rbp
ffffffff8020199b:	c3                   	retq
ffffffff8020199c:	0f 1f 40 00          	nopl   0x0(%rax)

ffffffff802019a0 <APIC_SetEnableInterrupt>:
ffffffff802019a0:	55                   	push   %rbp
ffffffff802019a1:	48 89 e5             	mov    %rsp,%rbp
ffffffff802019a4:	48 83 ec 10          	sub    $0x10,%rsp
ffffffff802019a8:	89 7d fc             	mov    %edi,-0x4(%rbp)
ffffffff802019ab:	89 75 f8             	mov    %esi,-0x8(%rbp)
ffffffff802019ae:	81 7d fc 20 03 00 00 	cmpl   $0x320,-0x4(%rbp)
ffffffff802019b5:	72 09                	jb     ffffffff802019c0 <APIC_SetEnableInterrupt+0x20>
ffffffff802019b7:	81 7d fc 70 03 00 00 	cmpl   $0x370,-0x4(%rbp)
ffffffff802019be:	76 02                	jbe    ffffffff802019c2 <APIC_SetEnableInterrupt+0x22>
ffffffff802019c0:	eb 34                	jmp    ffffffff802019f6 <APIC_SetEnableInterrupt+0x56>
ffffffff802019c2:	8b 7d fc             	mov    -0x4(%rbp),%edi
ffffffff802019c5:	e8 16 ff ff ff       	callq  ffffffff802018e0 <APIC_Read>
ffffffff802019ca:	31 ff                	xor    %edi,%edi
ffffffff802019cc:	89 45 f4             	mov    %eax,-0xc(%rbp)
ffffffff802019cf:	8b 45 f4             	mov    -0xc(%rbp),%eax
ffffffff802019d2:	8b 4d f8             	mov    -0x8(%rbp),%ecx
ffffffff802019d5:	83 f1 ff             	xor    $0xffffffff,%ecx
ffffffff802019d8:	83 e1 01             	and    $0x1,%ecx
ffffffff802019db:	29 cf                	sub    %ecx,%edi
ffffffff802019dd:	33 7d f4             	xor    -0xc(%rbp),%edi
ffffffff802019e0:	81 e7 00 00 01 00    	and    $0x10000,%edi
ffffffff802019e6:	31 f8                	xor    %edi,%eax
ffffffff802019e8:	89 45 f4             	mov    %eax,-0xc(%rbp)
ffffffff802019eb:	8b 7d fc             	mov    -0x4(%rbp),%edi
ffffffff802019ee:	8b 75 f4             	mov    -0xc(%rbp),%esi
ffffffff802019f1:	e8 1a ff ff ff       	callq  ffffffff80201910 <APIC_Write>
ffffffff802019f6:	48 83 c4 10          	add    $0x10,%rsp
ffffffff802019fa:	5d                   	pop    %rbp
ffffffff802019fb:	c3                   	retq
ffffffff802019fc:	0f 1f 40 00          	nopl   0x0(%rax)

ffffffff80201a00 <APIC_SetVector>:
ffffffff80201a00:	55                   	push   %rbp
ffffffff80201a01:	48 89 e5             	mov    %rsp,%rbp
ffffffff80201a04:	48 83 ec 10          	sub    $0x10,%rsp
ffffffff80201a08:	40 88 f0             	mov    %sil,%al
ffffffff80201a0b:	89 7d fc             	mov    %edi,-0x4(%rbp)
ffffffff80201a0e:	88 45 fb             	mov    %al,-0x5(%rbp)
ffffffff80201a11:	81 7d fc 20 03 00 00 	cmpl   $0x320,-0x4(%rbp)
ffffffff80201a18:	72 09                	jb     ffffffff80201a23 <APIC_SetVector+0x23>
ffffffff80201a1a:	81 7d fc 70 03 00 00 	cmpl   $0x370,-0x4(%rbp)
ffffffff80201a21:	76 02                	jbe    ffffffff80201a25 <APIC_SetVector+0x25>
ffffffff80201a23:	eb 20                	jmp    ffffffff80201a45 <APIC_SetVector+0x45>
ffffffff80201a25:	8b 7d fc             	mov    -0x4(%rbp),%edi
ffffffff80201a28:	e8 b3 fe ff ff       	callq  ffffffff802018e0 <APIC_Read>
ffffffff80201a2d:	89 45 f4             	mov    %eax,-0xc(%rbp)
ffffffff80201a30:	0f b6 45 fb          	movzbl -0x5(%rbp),%eax
ffffffff80201a34:	0b 45 f4             	or     -0xc(%rbp),%eax
ffffffff80201a37:	89 45 f4             	mov    %eax,-0xc(%rbp)
ffffffff80201a3a:	8b 7d fc             	mov    -0x4(%rbp),%edi
ffffffff80201a3d:	8b 75 f4             	mov    -0xc(%rbp),%esi
ffffffff80201a40:	e8 cb fe ff ff       	callq  ffffffff80201910 <APIC_Write>
ffffffff80201a45:	48 83 c4 10          	add    $0x10,%rsp
ffffffff80201a49:	5d                   	pop    %rbp
ffffffff80201a4a:	c3                   	retq
ffffffff80201a4b:	0f 1f 44 00 00       	nopl   0x0(%rax,%rax,1)

ffffffff80201a50 <APIC_SetDeliveryMode>:
ffffffff80201a50:	55                   	push   %rbp
ffffffff80201a51:	48 89 e5             	mov    %rsp,%rbp
ffffffff80201a54:	48 83 ec 10          	sub    $0x10,%rsp
ffffffff80201a58:	40 88 f0             	mov    %sil,%al
ffffffff80201a5b:	89 7d fc             	mov    %edi,-0x4(%rbp)
ffffffff80201a5e:	88 45 fb             	mov    %al,-0x5(%rbp)
ffffffff80201a61:	81 7d fc 20 03 00 00 	cmpl   $0x320,-0x4(%rbp)
ffffffff80201a68:	72 09                	jb     ffffffff80201a73 <APIC_SetDeliveryMode+0x23>
ffffffff80201a6a:	81 7d fc 60 03 00 00 	cmpl   $0x360,-0x4(%rbp)
ffffffff80201a71:	76 02                	jbe    ffffffff80201a75 <APIC_SetDeliveryMode+0x25>
ffffffff80201a73:	eb 26                	jmp    ffffffff80201a9b <APIC_SetDeliveryMode+0x4b>
ffffffff80201a75:	8b 7d fc             	mov    -0x4(%rbp),%edi
ffffffff80201a78:	e8 63 fe ff ff       	callq  ffffffff802018e0 <APIC_Read>
ffffffff80201a7d:	89 45 f4             	mov    %eax,-0xc(%rbp)
ffffffff80201a80:	0f b6 45 fb          	movzbl -0x5(%rbp),%eax
ffffffff80201a84:	83 e0 07             	and    $0x7,%eax
ffffffff80201a87:	c1 e0 08             	shl    $0x8,%eax
ffffffff80201a8a:	0b 45 f4             	or     -0xc(%rbp),%eax
ffffffff80201a8d:	89 45 f4             	mov    %eax,-0xc(%rbp)
ffffffff80201a90:	8b 7d fc             	mov    -0x4(%rbp),%edi
ffffffff80201a93:	8b 75 f4             	mov    -0xc(%rbp),%esi
ffffffff80201a96:	e8 75 fe ff ff       	callq  ffffffff80201910 <APIC_Write>
ffffffff80201a9b:	48 83 c4 10          	add    $0x10,%rsp
ffffffff80201a9f:	5d                   	pop    %rbp
ffffffff80201aa0:	c3                   	retq
ffffffff80201aa1:	0f 1f 44 00 00       	nopl   0x0(%rax,%rax,1)
ffffffff80201aa6:	66 2e 0f 1f 84 00 00 	nopw   %cs:0x0(%rax,%rax,1)
ffffffff80201aad:	00 00 00

ffffffff80201ab0 <APIC_SetTriggerMode>:
ffffffff80201ab0:	55                   	push   %rbp
ffffffff80201ab1:	48 89 e5             	mov    %rsp,%rbp
ffffffff80201ab4:	48 83 ec 10          	sub    $0x10,%rsp
ffffffff80201ab8:	40 88 f0             	mov    %sil,%al
ffffffff80201abb:	89 7d fc             	mov    %edi,-0x4(%rbp)
ffffffff80201abe:	88 45 fb             	mov    %al,-0x5(%rbp)
ffffffff80201ac1:	81 7d fc 50 03 00 00 	cmpl   $0x350,-0x4(%rbp)
ffffffff80201ac8:	72 09                	jb     ffffffff80201ad3 <APIC_SetTriggerMode+0x23>
ffffffff80201aca:	81 7d fc 60 03 00 00 	cmpl   $0x360,-0x4(%rbp)
ffffffff80201ad1:	76 02                	jbe    ffffffff80201ad5 <APIC_SetTriggerMode+0x25>
ffffffff80201ad3:	eb 26                	jmp    ffffffff80201afb <APIC_SetTriggerMode+0x4b>
ffffffff80201ad5:	8b 7d fc             	mov    -0x4(%rbp),%edi
ffffffff80201ad8:	e8 03 fe ff ff       	callq  ffffffff802018e0 <APIC_Read>
ffffffff80201add:	89 45 f4             	mov    %eax,-0xc(%rbp)
ffffffff80201ae0:	0f b6 45 fb          	movzbl -0x5(%rbp),%eax
ffffffff80201ae4:	83 e0 01             	and    $0x1,%eax
ffffffff80201ae7:	c1 e0 0f             	shl    $0xf,%eax
ffffffff80201aea:	0b 45 f4             	or     -0xc(%rbp),%eax
ffffffff80201aed:	89 45 f4             	mov    %eax,-0xc(%rbp)
ffffffff80201af0:	8b 7d fc             	mov    -0x4(%rbp),%edi
ffffffff80201af3:	8b 75 f4             	mov    -0xc(%rbp),%esi
ffffffff80201af6:	e8 15 fe ff ff       	callq  ffffffff80201910 <APIC_Write>
ffffffff80201afb:	48 83 c4 10          	add    $0x10,%rsp
ffffffff80201aff:	5d                   	pop    %rbp
ffffffff80201b00:	c3                   	retq
ffffffff80201b01:	0f 1f 44 00 00       	nopl   0x0(%rax,%rax,1)
ffffffff80201b06:	66 2e 0f 1f 84 00 00 	nopw   %cs:0x0(%rax,%rax,1)
ffffffff80201b0d:	00 00 00

ffffffff80201b10 <APIC_SetPolarity>:
ffffffff80201b10:	55                   	push   %rbp
ffffffff80201b11:	48 89 e5             	mov    %rsp,%rbp
ffffffff80201b14:	48 83 ec 10          	sub    $0x10,%rsp
ffffffff80201b18:	40 88 f0             	mov    %sil,%al
ffffffff80201b1b:	89 7d fc             	mov    %edi,-0x4(%rbp)
ffffffff80201b1e:	88 45 fb             	mov    %al,-0x5(%rbp)
ffffffff80201b21:	81 7d fc 50 03 00 00 	cmpl   $0x350,-0x4(%rbp)
ffffffff80201b28:	72 09                	jb     ffffffff80201b33 <APIC_SetPolarity+0x23>
ffffffff80201b2a:	81 7d fc 60 03 00 00 	cmpl   $0x360,-0x4(%rbp)
ffffffff80201b31:	76 02                	jbe    ffffffff80201b35 <APIC_SetPolarity+0x25>
ffffffff80201b33:	eb 26                	jmp    ffffffff80201b5b <APIC_SetPolarity+0x4b>
ffffffff80201b35:	8b 7d fc             	mov    -0x4(%rbp),%edi
ffffffff80201b38:	e8 a3 fd ff ff       	callq  ffffffff802018e0 <APIC_Read>
ffffffff80201b3d:	89 45 f4             	mov    %eax,-0xc(%rbp)
ffffffff80201b40:	0f b6 45 fb          	movzbl -0x5(%rbp),%eax
ffffffff80201b44:	83 e0 01             	and    $0x1,%eax
ffffffff80201b47:	c1 e0 0d             	shl    $0xd,%eax
ffffffff80201b4a:	0b 45 f4             	or     -0xc(%rbp),%eax
ffffffff80201b4d:	89 45 f4             	mov    %eax,-0xc(%rbp)
ffffffff80201b50:	8b 7d fc             	mov    -0x4(%rbp),%edi
ffffffff80201b53:	8b 75 f4             	mov    -0xc(%rbp),%esi
ffffffff80201b56:	e8 b5 fd ff ff       	callq  ffffffff80201910 <APIC_Write>
ffffffff80201b5b:	48 83 c4 10          	add    $0x10,%rsp
ffffffff80201b5f:	5d                   	pop    %rbp
ffffffff80201b60:	c3                   	retq
ffffffff80201b61:	0f 1f 44 00 00       	nopl   0x0(%rax,%rax,1)
ffffffff80201b66:	66 2e 0f 1f 84 00 00 	nopw   %cs:0x0(%rax,%rax,1)
ffffffff80201b6d:	00 00 00

ffffffff80201b70 <APIC_SetTimerMode>:
ffffffff80201b70:	55                   	push   %rbp
ffffffff80201b71:	48 89 e5             	mov    %rsp,%rbp
ffffffff80201b74:	48 83 ec 10          	sub    $0x10,%rsp
ffffffff80201b78:	40 88 f8             	mov    %dil,%al
ffffffff80201b7b:	bf 20 03 00 00       	mov    $0x320,%edi
ffffffff80201b80:	88 45 ff             	mov    %al,-0x1(%rbp)
ffffffff80201b83:	b9 20 03 00 00       	mov    $0x320,%ecx
ffffffff80201b88:	89 7d f4             	mov    %edi,-0xc(%rbp)
ffffffff80201b8b:	89 cf                	mov    %ecx,%edi
ffffffff80201b8d:	e8 4e fd ff ff       	callq  ffffffff802018e0 <APIC_Read>
ffffffff80201b92:	b9 20 03 00 00       	mov    $0x320,%ecx
ffffffff80201b97:	89 45 f8             	mov    %eax,-0x8(%rbp)
ffffffff80201b9a:	0f b6 45 ff          	movzbl -0x1(%rbp),%eax
ffffffff80201b9e:	83 e0 03             	and    $0x3,%eax
ffffffff80201ba1:	c1 e0 11             	shl    $0x11,%eax
ffffffff80201ba4:	0b 45 f8             	or     -0x8(%rbp),%eax
ffffffff80201ba7:	89 45 f8             	mov    %eax,-0x8(%rbp)
ffffffff80201baa:	8b 75 f8             	mov    -0x8(%rbp),%esi
ffffffff80201bad:	bf 20 03 00 00       	mov    $0x320,%edi
ffffffff80201bb2:	89 4d f0             	mov    %ecx,-0x10(%rbp)
ffffffff80201bb5:	e8 56 fd ff ff       	callq  ffffffff80201910 <APIC_Write>
ffffffff80201bba:	48 83 c4 10          	add    $0x10,%rsp
ffffffff80201bbe:	5d                   	pop    %rbp
ffffffff80201bbf:	c3                   	retq

ffffffff80201bc0 <APIC_SetTimerDivisor>:
ffffffff80201bc0:	55                   	push   %rbp
ffffffff80201bc1:	48 89 e5             	mov    %rsp,%rbp
ffffffff80201bc4:	48 83 ec 10          	sub    $0x10,%rsp
ffffffff80201bc8:	40 88 f8             	mov    %dil,%al
ffffffff80201bcb:	88 45 ff             	mov    %al,-0x1(%rbp)
ffffffff80201bce:	c6 45 fe 00          	movb   $0x0,-0x2(%rbp)
ffffffff80201bd2:	0f b6 7d ff          	movzbl -0x1(%rbp),%edi
ffffffff80201bd6:	83 ff 10             	cmp    $0x10,%edi
ffffffff80201bd9:	7e 27                	jle    ffffffff80201c02 <APIC_SetTimerDivisor+0x42>
ffffffff80201bdb:	b8 10 00 00 00       	mov    $0x10,%eax
ffffffff80201be0:	0f b6 4d fe          	movzbl -0x2(%rbp),%ecx
ffffffff80201be4:	83 c9 08             	or     $0x8,%ecx
ffffffff80201be7:	88 ca                	mov    %cl,%dl
ffffffff80201be9:	88 55 fe             	mov    %dl,-0x2(%rbp)
ffffffff80201bec:	0f b6 4d ff          	movzbl -0x1(%rbp),%ecx
ffffffff80201bf0:	89 45 f8             	mov    %eax,-0x8(%rbp)
ffffffff80201bf3:	89 c8                	mov    %ecx,%eax
ffffffff80201bf5:	99                   	cltd
ffffffff80201bf6:	8b 4d f8             	mov    -0x8(%rbp),%ecx
ffffffff80201bf9:	f7 f9                	idiv   %ecx
ffffffff80201bfb:	40 88 c6             	mov    %al,%sil
ffffffff80201bfe:	40 88 75 ff          	mov    %sil,-0x1(%rbp)
ffffffff80201c02:	0f b6 45 ff          	movzbl -0x1(%rbp),%eax
ffffffff80201c06:	83 f8 10             	cmp    $0x10,%eax
ffffffff80201c09:	75 0e                	jne    ffffffff80201c19 <APIC_SetTimerDivisor+0x59>
ffffffff80201c0b:	0f b6 45 fe          	movzbl -0x2(%rbp),%eax
ffffffff80201c0f:	83 c8 03             	or     $0x3,%eax
ffffffff80201c12:	88 c1                	mov    %al,%cl
ffffffff80201c14:	88 4d fe             	mov    %cl,-0x2(%rbp)
ffffffff80201c17:	eb 26                	jmp    ffffffff80201c3f <APIC_SetTimerDivisor+0x7f>
ffffffff80201c19:	0f b6 45 ff          	movzbl -0x1(%rbp),%eax
ffffffff80201c1d:	83 f8 01             	cmp    $0x1,%eax
ffffffff80201c20:	75 06                	jne    ffffffff80201c28 <APIC_SetTimerDivisor+0x68>
ffffffff80201c22:	c6 45 fe 0b          	movb   $0xb,-0x2(%rbp)
ffffffff80201c26:	eb 15                	jmp    ffffffff80201c3d <APIC_SetTimerDivisor+0x7d>
ffffffff80201c28:	0f b6 45 ff          	movzbl -0x1(%rbp),%eax
ffffffff80201c2c:	c1 f8 02             	sar    $0x2,%eax
ffffffff80201c2f:	83 e0 03             	and    $0x3,%eax
ffffffff80201c32:	0f b6 4d fe          	movzbl -0x2(%rbp),%ecx
ffffffff80201c36:	09 c1                	or     %eax,%ecx
ffffffff80201c38:	88 ca                	mov    %cl,%dl
ffffffff80201c3a:	88 55 fe             	mov    %dl,-0x2(%rbp)
ffffffff80201c3d:	eb 00                	jmp    ffffffff80201c3f <APIC_SetTimerDivisor+0x7f>
ffffffff80201c3f:	b8 e0 03 00 00       	mov    $0x3e0,%eax
ffffffff80201c44:	0f b6 75 fe          	movzbl -0x2(%rbp),%esi
ffffffff80201c48:	bf e0 03 00 00       	mov    $0x3e0,%edi
ffffffff80201c4d:	89 45 f4             	mov    %eax,-0xc(%rbp)
ffffffff80201c50:	e8 bb fc ff ff       	callq  ffffffff80201910 <APIC_Write>
ffffffff80201c55:	48 83 c4 10          	add    $0x10,%rsp
ffffffff80201c59:	5d                   	pop    %rbp
ffffffff80201c5a:	c3                   	retq
ffffffff80201c5b:	0f 1f 44 00 00       	nopl   0x0(%rax,%rax,1)

ffffffff80201c60 <APIC_SetTimerValue>:
ffffffff80201c60:	55                   	push   %rbp
ffffffff80201c61:	48 89 e5             	mov    %rsp,%rbp
ffffffff80201c64:	48 83 ec 10          	sub    $0x10,%rsp
ffffffff80201c68:	b8 80 03 00 00       	mov    $0x380,%eax
ffffffff80201c6d:	89 7d fc             	mov    %edi,-0x4(%rbp)
ffffffff80201c70:	8b 75 fc             	mov    -0x4(%rbp),%esi
ffffffff80201c73:	bf 80 03 00 00       	mov    $0x380,%edi
ffffffff80201c78:	89 45 f8             	mov    %eax,-0x8(%rbp)
ffffffff80201c7b:	e8 90 fc ff ff       	callq  ffffffff80201910 <APIC_Write>
ffffffff80201c80:	48 83 c4 10          	add    $0x10,%rsp
ffffffff80201c84:	5d                   	pop    %rbp
ffffffff80201c85:	c3                   	retq
ffffffff80201c86:	66 2e 0f 1f 84 00 00 	nopw   %cs:0x0(%rax,%rax,1)
ffffffff80201c8d:	00 00 00

ffffffff80201c90 <APIC_GetTimerValue>:
ffffffff80201c90:	55                   	push   %rbp
ffffffff80201c91:	48 89 e5             	mov    %rsp,%rbp
ffffffff80201c94:	48 83 ec 10          	sub    $0x10,%rsp
ffffffff80201c98:	b8 80 03 00 00       	mov    $0x380,%eax
ffffffff80201c9d:	bf 80 03 00 00       	mov    $0x380,%edi
ffffffff80201ca2:	89 45 fc             	mov    %eax,-0x4(%rbp)
ffffffff80201ca5:	e8 36 fc ff ff       	callq  ffffffff802018e0 <APIC_Read>
ffffffff80201caa:	48 83 c4 10          	add    $0x10,%rsp
ffffffff80201cae:	5d                   	pop    %rbp
ffffffff80201caf:	c3                   	retq

ffffffff80201cb0 <APIC_GetID>:
ffffffff80201cb0:	55                   	push   %rbp
ffffffff80201cb1:	48 89 e5             	mov    %rsp,%rbp
ffffffff80201cb4:	48 83 ec 10          	sub    $0x10,%rsp
ffffffff80201cb8:	b8 20 00 00 00       	mov    $0x20,%eax
ffffffff80201cbd:	bf 20 00 00 00       	mov    $0x20,%edi
ffffffff80201cc2:	89 45 fc             	mov    %eax,-0x4(%rbp)
ffffffff80201cc5:	e8 16 fc ff ff       	callq  ffffffff802018e0 <APIC_Read>
ffffffff80201cca:	88 c1                	mov    %al,%cl
ffffffff80201ccc:	0f b6 c1             	movzbl %cl,%eax
ffffffff80201ccf:	48 83 c4 10          	add    $0x10,%rsp
ffffffff80201cd3:	5d                   	pop    %rbp
ffffffff80201cd4:	c3                   	retq
ffffffff80201cd5:	90                   	nop
ffffffff80201cd6:	66 2e 0f 1f 84 00 00 	nopw   %cs:0x0(%rax,%rax,1)
ffffffff80201cdd:	00 00 00

ffffffff80201ce0 <APIC_SendEOI>:
ffffffff80201ce0:	55                   	push   %rbp
ffffffff80201ce1:	48 89 e5             	mov    %rsp,%rbp
ffffffff80201ce4:	48 83 ec 20          	sub    $0x20,%rsp
ffffffff80201ce8:	40 88 f8             	mov    %dil,%al
ffffffff80201ceb:	bf 20 00 00 00       	mov    $0x20,%edi
ffffffff80201cf0:	88 45 ff             	mov    %al,-0x1(%rbp)
ffffffff80201cf3:	0f b6 45 ff          	movzbl -0x1(%rbp),%eax
ffffffff80201cf7:	99                   	cltd
ffffffff80201cf8:	f7 ff                	idiv   %edi
ffffffff80201cfa:	c1 e0 04             	shl    $0x4,%eax
ffffffff80201cfd:	05 00 01 00 00       	add    $0x100,%eax
ffffffff80201d02:	89 45 f8             	mov    %eax,-0x8(%rbp)
ffffffff80201d05:	8b 7d f8             	mov    -0x8(%rbp),%edi
ffffffff80201d08:	e8 d3 fb ff ff       	callq  ffffffff802018e0 <APIC_Read>
ffffffff80201d0d:	bf 20 00 00 00       	mov    $0x20,%edi
ffffffff80201d12:	b9 01 00 00 00       	mov    $0x1,%ecx
ffffffff80201d17:	89 45 f4             	mov    %eax,-0xc(%rbp)
ffffffff80201d1a:	8b 45 f4             	mov    -0xc(%rbp),%eax
ffffffff80201d1d:	0f b6 75 ff          	movzbl -0x1(%rbp),%esi
ffffffff80201d21:	89 45 f0             	mov    %eax,-0x10(%rbp)
ffffffff80201d24:	89 f0                	mov    %esi,%eax
ffffffff80201d26:	99                   	cltd
ffffffff80201d27:	f7 ff                	idiv   %edi
ffffffff80201d29:	89 4d ec             	mov    %ecx,-0x14(%rbp)
ffffffff80201d2c:	89 d1                	mov    %edx,%ecx
ffffffff80201d2e:	8b 55 ec             	mov    -0x14(%rbp),%edx
ffffffff80201d31:	d3 e2                	shl    %cl,%edx
ffffffff80201d33:	8b 75 f0             	mov    -0x10(%rbp),%esi
ffffffff80201d36:	21 d6                	and    %edx,%esi
ffffffff80201d38:	0f b6 55 ff          	movzbl -0x1(%rbp),%edx
ffffffff80201d3c:	89 d0                	mov    %edx,%eax
ffffffff80201d3e:	99                   	cltd
ffffffff80201d3f:	f7 ff                	idiv   %edi
ffffffff80201d41:	89 d1                	mov    %edx,%ecx
ffffffff80201d43:	d3 ee                	shr    %cl,%esi
ffffffff80201d45:	83 fe 00             	cmp    $0x0,%esi
ffffffff80201d48:	74 19                	je     ffffffff80201d63 <APIC_SendEOI+0x83>
ffffffff80201d4a:	b8 b0 00 00 00       	mov    $0xb0,%eax
ffffffff80201d4f:	31 c9                	xor    %ecx,%ecx
ffffffff80201d51:	bf b0 00 00 00       	mov    $0xb0,%edi
ffffffff80201d56:	31 f6                	xor    %esi,%esi
ffffffff80201d58:	89 45 e8             	mov    %eax,-0x18(%rbp)
ffffffff80201d5b:	89 4d e4             	mov    %ecx,-0x1c(%rbp)
ffffffff80201d5e:	e8 ad fb ff ff       	callq  ffffffff80201910 <APIC_Write>
ffffffff80201d63:	48 83 c4 20          	add    $0x20,%rsp
ffffffff80201d67:	5d                   	pop    %rbp
ffffffff80201d68:	c3                   	retq
ffffffff80201d69:	0f 1f 80 00 00 00 00 	nopl   0x0(%rax)

ffffffff80201d70 <APIC_SendIPI>:
ffffffff80201d70:	55                   	push   %rbp
ffffffff80201d71:	48 89 e5             	mov    %rsp,%rbp
ffffffff80201d74:	48 83 ec 20          	sub    $0x20,%rsp
ffffffff80201d78:	88 d0                	mov    %dl,%al
ffffffff80201d7a:	40 88 f1             	mov    %sil,%cl
ffffffff80201d7d:	ba 10 03 00 00       	mov    $0x310,%edx
ffffffff80201d82:	89 7d fc             	mov    %edi,-0x4(%rbp)
ffffffff80201d85:	88 4d fb             	mov    %cl,-0x5(%rbp)
ffffffff80201d88:	88 45 fa             	mov    %al,-0x6(%rbp)
ffffffff80201d8b:	8b 75 fc             	mov    -0x4(%rbp),%esi
ffffffff80201d8e:	c1 e6 18             	shl    $0x18,%esi
ffffffff80201d91:	89 75 f4             	mov    %esi,-0xc(%rbp)
ffffffff80201d94:	0f b6 75 fa          	movzbl -0x6(%rbp),%esi
ffffffff80201d98:	83 e6 07             	and    $0x7,%esi
ffffffff80201d9b:	c1 e6 08             	shl    $0x8,%esi
ffffffff80201d9e:	81 ce 00 40 00 00    	or     $0x4000,%esi
ffffffff80201da4:	0f b6 7d fb          	movzbl -0x5(%rbp),%edi
ffffffff80201da8:	09 fe                	or     %edi,%esi
ffffffff80201daa:	89 75 f0             	mov    %esi,-0x10(%rbp)
ffffffff80201dad:	8b 75 f4             	mov    -0xc(%rbp),%esi
ffffffff80201db0:	bf 10 03 00 00       	mov    $0x310,%edi
ffffffff80201db5:	89 55 ec             	mov    %edx,-0x14(%rbp)
ffffffff80201db8:	e8 53 fb ff ff       	callq  ffffffff80201910 <APIC_Write>
ffffffff80201dbd:	ba 00 03 00 00       	mov    $0x300,%edx
ffffffff80201dc2:	8b 75 f0             	mov    -0x10(%rbp),%esi
ffffffff80201dc5:	bf 00 03 00 00       	mov    $0x300,%edi
ffffffff80201dca:	89 55 e8             	mov    %edx,-0x18(%rbp)
ffffffff80201dcd:	e8 3e fb ff ff       	callq  ffffffff80201910 <APIC_Write>
ffffffff80201dd2:	48 83 c4 20          	add    $0x20,%rsp
ffffffff80201dd6:	5d                   	pop    %rbp
ffffffff80201dd7:	c3                   	retq
ffffffff80201dd8:	0f 1f 84 00 00 00 00 	nopl   0x0(%rax,%rax,1)
ffffffff80201ddf:	00

ffffffff80201de0 <outb>:
ffffffff80201de0:	55                   	push   %rbp
ffffffff80201de1:	48 89 e5             	mov    %rsp,%rbp
ffffffff80201de4:	48 83 ec 04          	sub    $0x4,%rsp
ffffffff80201de8:	40 88 f0             	mov    %sil,%al
ffffffff80201deb:	66 89 f9             	mov    %di,%cx
ffffffff80201dee:	66 89 4d fe          	mov    %cx,-0x2(%rbp)
ffffffff80201df2:	88 45 fd             	mov    %al,-0x3(%rbp)
ffffffff80201df5:	66 8b 55 fe          	mov    -0x2(%rbp),%dx
ffffffff80201df9:	8a 45 fd             	mov    -0x3(%rbp),%al
ffffffff80201dfc:	ee                   	out    %al,(%dx)
ffffffff80201dfd:	48 83 c4 04          	add    $0x4,%rsp
ffffffff80201e01:	5d                   	pop    %rbp
ffffffff80201e02:	c3                   	retq
ffffffff80201e03:	0f 1f 00             	nopl   (%rax)
ffffffff80201e06:	66 2e 0f 1f 84 00 00 	nopw   %cs:0x0(%rax,%rax,1)
ffffffff80201e0d:	00 00 00

ffffffff80201e10 <inb>:
ffffffff80201e10:	55                   	push   %rbp
ffffffff80201e11:	48 89 e5             	mov    %rsp,%rbp
ffffffff80201e14:	48 83 ec 04          	sub    $0x4,%rsp
ffffffff80201e18:	66 89 f8             	mov    %di,%ax
ffffffff80201e1b:	66 89 45 fe          	mov    %ax,-0x2(%rbp)
ffffffff80201e1f:	66 8b 55 fe          	mov    -0x2(%rbp),%dx
ffffffff80201e23:	ec                   	in     (%dx),%al
ffffffff80201e24:	88 45 fd             	mov    %al,-0x3(%rbp)
ffffffff80201e27:	0f b6 45 fd          	movzbl -0x3(%rbp),%eax
ffffffff80201e2b:	48 83 c4 04          	add    $0x4,%rsp
ffffffff80201e2f:	5d                   	pop    %rbp
ffffffff80201e30:	c3                   	retq
ffffffff80201e31:	0f 1f 44 00 00       	nopl   0x0(%rax,%rax,1)
ffffffff80201e36:	66 2e 0f 1f 84 00 00 	nopw   %cs:0x0(%rax,%rax,1)
ffffffff80201e3d:	00 00 00

ffffffff80201e40 <outw>:
ffffffff80201e40:	55                   	push   %rbp
ffffffff80201e41:	48 89 e5             	mov    %rsp,%rbp
ffffffff80201e44:	48 83 ec 04          	sub    $0x4,%rsp
ffffffff80201e48:	66 89 f0             	mov    %si,%ax
ffffffff80201e4b:	66 89 f9             	mov    %di,%cx
ffffffff80201e4e:	66 89 4d fe          	mov    %cx,-0x2(%rbp)
ffffffff80201e52:	66 89 45 fc          	mov    %ax,-0x4(%rbp)
ffffffff80201e56:	66 8b 55 fe          	mov    -0x2(%rbp),%dx
ffffffff80201e5a:	66 8b 45 fc          	mov    -0x4(%rbp),%ax
ffffffff80201e5e:	66 ef                	out    %ax,(%dx)
ffffffff80201e60:	48 83 c4 04          	add    $0x4,%rsp
ffffffff80201e64:	5d                   	pop    %rbp
ffffffff80201e65:	c3                   	retq
ffffffff80201e66:	66 2e 0f 1f 84 00 00 	nopw   %cs:0x0(%rax,%rax,1)
ffffffff80201e6d:	00 00 00

ffffffff80201e70 <inw>:
ffffffff80201e70:	55                   	push   %rbp
ffffffff80201e71:	48 89 e5             	mov    %rsp,%rbp
ffffffff80201e74:	48 83 ec 04          	sub    $0x4,%rsp
ffffffff80201e78:	66 89 f8             	mov    %di,%ax
ffffffff80201e7b:	66 89 45 fe          	mov    %ax,-0x2(%rbp)
ffffffff80201e7f:	66 8b 55 fe          	mov    -0x2(%rbp),%dx
ffffffff80201e83:	66 ed                	in     (%dx),%ax
ffffffff80201e85:	66 89 45 fc          	mov    %ax,-0x4(%rbp)
ffffffff80201e89:	0f b7 45 fc          	movzwl -0x4(%rbp),%eax
ffffffff80201e8d:	48 83 c4 04          	add    $0x4,%rsp
ffffffff80201e91:	5d                   	pop    %rbp
ffffffff80201e92:	c3                   	retq
ffffffff80201e93:	0f 1f 00             	nopl   (%rax)
ffffffff80201e96:	66 2e 0f 1f 84 00 00 	nopw   %cs:0x0(%rax,%rax,1)
ffffffff80201e9d:	00 00 00

ffffffff80201ea0 <outl>:
ffffffff80201ea0:	55                   	push   %rbp
ffffffff80201ea1:	48 89 e5             	mov    %rsp,%rbp
ffffffff80201ea4:	50                   	push   %rax
ffffffff80201ea5:	66 89 f8             	mov    %di,%ax
ffffffff80201ea8:	66 89 45 fe          	mov    %ax,-0x2(%rbp)
ffffffff80201eac:	89 75 f8             	mov    %esi,-0x8(%rbp)
ffffffff80201eaf:	66 8b 55 fe          	mov    -0x2(%rbp),%dx
ffffffff80201eb3:	8b 45 f8             	mov    -0x8(%rbp),%eax
ffffffff80201eb6:	ef                   	out    %eax,(%dx)
ffffffff80201eb7:	48 83 c4 08          	add    $0x8,%rsp
ffffffff80201ebb:	5d                   	pop    %rbp
ffffffff80201ebc:	c3                   	retq
ffffffff80201ebd:	0f 1f 00             	nopl   (%rax)

ffffffff80201ec0 <inl>:
ffffffff80201ec0:	55                   	push   %rbp
ffffffff80201ec1:	48 89 e5             	mov    %rsp,%rbp
ffffffff80201ec4:	50                   	push   %rax
ffffffff80201ec5:	66 89 f8             	mov    %di,%ax
ffffffff80201ec8:	66 89 45 fe          	mov    %ax,-0x2(%rbp)
ffffffff80201ecc:	66 8b 55 fe          	mov    -0x2(%rbp),%dx
ffffffff80201ed0:	ed                   	in     (%dx),%eax
ffffffff80201ed1:	89 45 f8             	mov    %eax,-0x8(%rbp)
ffffffff80201ed4:	8b 45 f8             	mov    -0x8(%rbp),%eax
ffffffff80201ed7:	48 83 c4 08          	add    $0x8,%rsp
ffffffff80201edb:	5d                   	pop    %rbp
ffffffff80201edc:	c3                   	retq
ffffffff80201edd:	0f 1f 00             	nopl   (%rax)

ffffffff80201ee0 <wrmsr>:
ffffffff80201ee0:	55                   	push   %rbp
ffffffff80201ee1:	48 89 e5             	mov    %rsp,%rbp
ffffffff80201ee4:	48 83 ec 18          	sub    $0x18,%rsp
ffffffff80201ee8:	89 7d fc             	mov    %edi,-0x4(%rbp)
ffffffff80201eeb:	48 89 75 f0          	mov    %rsi,-0x10(%rbp)
ffffffff80201eef:	48 8b 75 f0          	mov    -0x10(%rbp),%rsi
ffffffff80201ef3:	89 f7                	mov    %esi,%edi
ffffffff80201ef5:	89 7d ec             	mov    %edi,-0x14(%rbp)
ffffffff80201ef8:	48 8b 75 f0          	mov    -0x10(%rbp),%rsi
ffffffff80201efc:	48 c1 ee 20          	shr    $0x20,%rsi
ffffffff80201f00:	89 f7                	mov    %esi,%edi
ffffffff80201f02:	89 7d e8             	mov    %edi,-0x18(%rbp)
ffffffff80201f05:	8b 45 ec             	mov    -0x14(%rbp),%eax
ffffffff80201f08:	8b 55 e8             	mov    -0x18(%rbp),%edx
ffffffff80201f0b:	8b 4d fc             	mov    -0x4(%rbp),%ecx
ffffffff80201f0e:	0f 30                	wrmsr
ffffffff80201f10:	48 83 c4 18          	add    $0x18,%rsp
ffffffff80201f14:	5d                   	pop    %rbp
ffffffff80201f15:	c3                   	retq
ffffffff80201f16:	66 2e 0f 1f 84 00 00 	nopw   %cs:0x0(%rax,%rax,1)
ffffffff80201f1d:	00 00 00

ffffffff80201f20 <rdmsr>:
ffffffff80201f20:	55                   	push   %rbp
ffffffff80201f21:	48 89 e5             	mov    %rsp,%rbp
ffffffff80201f24:	48 83 ec 0c          	sub    $0xc,%rsp
ffffffff80201f28:	89 7d fc             	mov    %edi,-0x4(%rbp)
ffffffff80201f2b:	c7 45 f8 00 00 00 00 	movl   $0x0,-0x8(%rbp)
ffffffff80201f32:	c7 45 f4 00 00 00 00 	movl   $0x0,-0xc(%rbp)
ffffffff80201f39:	8b 4d fc             	mov    -0x4(%rbp),%ecx
ffffffff80201f3c:	0f 32                	rdmsr
ffffffff80201f3e:	89 45 f8             	mov    %eax,-0x8(%rbp)
ffffffff80201f41:	89 55 f4             	mov    %edx,-0xc(%rbp)
ffffffff80201f44:	8b 45 f4             	mov    -0xc(%rbp),%eax
ffffffff80201f47:	89 c6                	mov    %eax,%esi
ffffffff80201f49:	48 c1 e6 20          	shl    $0x20,%rsi
ffffffff80201f4d:	8b 45 f8             	mov    -0x8(%rbp),%eax
ffffffff80201f50:	41 89 c0             	mov    %eax,%r8d
ffffffff80201f53:	4c 09 c6             	or     %r8,%rsi
ffffffff80201f56:	48 89 f0             	mov    %rsi,%rax
ffffffff80201f59:	48 83 c4 0c          	add    $0xc,%rsp
ffffffff80201f5d:	5d                   	pop    %rbp
ffffffff80201f5e:	c3                   	retq
ffffffff80201f5f:	90                   	nop

ffffffff80201f60 <IOAPIC_Initialize>:
ffffffff80201f60:	55                   	push   %rbp
ffffffff80201f61:	48 89 e5             	mov    %rsp,%rbp
ffffffff80201f64:	48 83 ec 20          	sub    $0x20,%rsp
ffffffff80201f68:	48 89 7d f0          	mov    %rdi,-0x10(%rbp)
ffffffff80201f6c:	89 75 ec             	mov    %esi,-0x14(%rbp)
ffffffff80201f6f:	8b 34 25 18 dd 20 80 	mov    0xffffffff8020dd18,%esi
ffffffff80201f76:	81 fe 80 00 00 00    	cmp    $0x80,%esi
ffffffff80201f7c:	72 09                	jb     ffffffff80201f87 <IOAPIC_Initialize+0x27>
ffffffff80201f7e:	c6 45 ff ff          	movb   $0xff,-0x1(%rbp)
ffffffff80201f82:	e9 95 00 00 00       	jmpq   ffffffff8020201c <IOAPIC_Initialize+0xbc>
ffffffff80201f87:	48 8b 45 f0          	mov    -0x10(%rbp),%rax
ffffffff80201f8b:	8b 0c 25 18 dd 20 80 	mov    0xffffffff8020dd18,%ecx
ffffffff80201f92:	89 ca                	mov    %ecx,%edx
ffffffff80201f94:	48 8d 14 52          	lea    (%rdx,%rdx,2),%rdx
ffffffff80201f98:	48 89 04 d5 e0 98 20 	mov    %rax,-0x7fdf6720(,%rdx,8)
ffffffff80201f9f:	80
ffffffff80201fa0:	8b 4d ec             	mov    -0x14(%rbp),%ecx
ffffffff80201fa3:	8b 34 25 18 dd 20 80 	mov    0xffffffff8020dd18,%esi
ffffffff80201faa:	89 f0                	mov    %esi,%eax
ffffffff80201fac:	48 8d 04 40          	lea    (%rax,%rax,2),%rax
ffffffff80201fb0:	89 0c c5 e8 98 20 80 	mov    %ecx,-0x7fdf6718(,%rax,8)
ffffffff80201fb7:	48 8b 7d f0          	mov    -0x10(%rbp),%rdi
ffffffff80201fbb:	31 f6                	xor    %esi,%esi
ffffffff80201fbd:	e8 6e 00 00 00       	callq  ffffffff80202030 <IOAPIC_Read>
ffffffff80201fc2:	c1 e8 18             	shr    $0x18,%eax
ffffffff80201fc5:	83 e0 0f             	and    $0xf,%eax
ffffffff80201fc8:	8b 0c 25 18 dd 20 80 	mov    0xffffffff8020dd18,%ecx
ffffffff80201fcf:	89 ca                	mov    %ecx,%edx
ffffffff80201fd1:	48 8d 14 52          	lea    (%rdx,%rdx,2),%rdx
ffffffff80201fd5:	89 04 d5 ec 98 20 80 	mov    %eax,-0x7fdf6714(,%rdx,8)
ffffffff80201fdc:	48 8b 7d f0          	mov    -0x10(%rbp),%rdi
ffffffff80201fe0:	be 01 00 00 00       	mov    $0x1,%esi
ffffffff80201fe5:	e8 46 00 00 00       	callq  ffffffff80202030 <IOAPIC_Read>
ffffffff80201fea:	c1 e8 10             	shr    $0x10,%eax
ffffffff80201fed:	41 88 c0             	mov    %al,%r8b
ffffffff80201ff0:	41 0f b6 c0          	movzbl %r8b,%eax
ffffffff80201ff4:	8b 0c 25 18 dd 20 80 	mov    0xffffffff8020dd18,%ecx
ffffffff80201ffb:	89 ca                	mov    %ecx,%edx
ffffffff80201ffd:	48 8d 14 52          	lea    (%rdx,%rdx,2),%rdx
ffffffff80202001:	89 04 d5 f0 98 20 80 	mov    %eax,-0x7fdf6710(,%rdx,8)
ffffffff80202008:	8b 04 25 18 dd 20 80 	mov    0xffffffff8020dd18,%eax
ffffffff8020200f:	ff c0                	inc    %eax
ffffffff80202011:	89 04 25 18 dd 20 80 	mov    %eax,0xffffffff8020dd18
ffffffff80202018:	c6 45 ff 00          	movb   $0x0,-0x1(%rbp)
ffffffff8020201c:	0f b6 45 ff          	movzbl -0x1(%rbp),%eax
ffffffff80202020:	48 83 c4 20          	add    $0x20,%rsp
ffffffff80202024:	5d                   	pop    %rbp
ffffffff80202025:	c3                   	retq
ffffffff80202026:	66 2e 0f 1f 84 00 00 	nopw   %cs:0x0(%rax,%rax,1)
ffffffff8020202d:	00 00 00

ffffffff80202030 <IOAPIC_Read>:
ffffffff80202030:	55                   	push   %rbp
ffffffff80202031:	48 89 e5             	mov    %rsp,%rbp
ffffffff80202034:	48 83 ec 10          	sub    $0x10,%rsp
ffffffff80202038:	48 89 7d f8          	mov    %rdi,-0x8(%rbp)
ffffffff8020203c:	89 75 f4             	mov    %esi,-0xc(%rbp)
ffffffff8020203f:	8b 75 f4             	mov    -0xc(%rbp),%esi
ffffffff80202042:	48 8b 7d f8          	mov    -0x8(%rbp),%rdi
ffffffff80202046:	89 37                	mov    %esi,(%rdi)
ffffffff80202048:	48 8b 7d f8          	mov    -0x8(%rbp),%rdi
ffffffff8020204c:	8b 47 10             	mov    0x10(%rdi),%eax
ffffffff8020204f:	48 83 c4 10          	add    $0x10,%rsp
ffffffff80202053:	5d                   	pop    %rbp
ffffffff80202054:	c3                   	retq
ffffffff80202055:	90                   	nop
ffffffff80202056:	66 2e 0f 1f 84 00 00 	nopw   %cs:0x0(%rax,%rax,1)
ffffffff8020205d:	00 00 00

ffffffff80202060 <IOAPIC_Write>:
ffffffff80202060:	55                   	push   %rbp
ffffffff80202061:	48 89 e5             	mov    %rsp,%rbp
ffffffff80202064:	48 83 ec 10          	sub    $0x10,%rsp
ffffffff80202068:	48 89 7d f8          	mov    %rdi,-0x8(%rbp)
ffffffff8020206c:	89 75 f4             	mov    %esi,-0xc(%rbp)
ffffffff8020206f:	89 55 f0             	mov    %edx,-0x10(%rbp)
ffffffff80202072:	8b 55 f4             	mov    -0xc(%rbp),%edx
ffffffff80202075:	48 8b 7d f8          	mov    -0x8(%rbp),%rdi
ffffffff80202079:	89 17                	mov    %edx,(%rdi)
ffffffff8020207b:	8b 55 f0             	mov    -0x10(%rbp),%edx
ffffffff8020207e:	48 8b 7d f8          	mov    -0x8(%rbp),%rdi
ffffffff80202082:	89 57 10             	mov    %edx,0x10(%rdi)
ffffffff80202085:	48 83 c4 10          	add    $0x10,%rsp
ffffffff80202089:	5d                   	pop    %rbp
ffffffff8020208a:	c3                   	retq
ffffffff8020208b:	0f 1f 44 00 00       	nopl   0x0(%rax,%rax,1)

ffffffff80202090 <IOAPIC_GetVector>:
ffffffff80202090:	55                   	push   %rbp
ffffffff80202091:	48 89 e5             	mov    %rsp,%rbp
ffffffff80202094:	48 83 ec 30          	sub    $0x30,%rsp
ffffffff80202098:	40 88 f8             	mov    %dil,%al
ffffffff8020209b:	88 45 fe             	mov    %al,-0x2(%rbp)
ffffffff8020209e:	48 89 75 f0          	mov    %rsi,-0x10(%rbp)
ffffffff802020a2:	c7 45 ec 00 00 00 00 	movl   $0x0,-0x14(%rbp)
ffffffff802020a9:	48 c7 45 e0 00 00 00 	movq   $0x0,-0x20(%rbp)
ffffffff802020b0:	00
ffffffff802020b1:	c7 45 dc 00 00 00 00 	movl   $0x0,-0x24(%rbp)
ffffffff802020b8:	8b 45 dc             	mov    -0x24(%rbp),%eax
ffffffff802020bb:	8b 0c 25 18 dd 20 80 	mov    0xffffffff8020dd18,%ecx
ffffffff802020c2:	39 c8                	cmp    %ecx,%eax
ffffffff802020c4:	73 7e                	jae    ffffffff80202144 <IOAPIC_GetVector+0xb4>
ffffffff802020c6:	0f b6 45 fe          	movzbl -0x2(%rbp),%eax
ffffffff802020ca:	8b 4d dc             	mov    -0x24(%rbp),%ecx
ffffffff802020cd:	89 ca                	mov    %ecx,%edx
ffffffff802020cf:	48 8d 14 52          	lea    (%rdx,%rdx,2),%rdx
ffffffff802020d3:	48 8d 14 d5 e0 98 20 	lea    -0x7fdf6720(,%rdx,8),%rdx
ffffffff802020da:	80
ffffffff802020db:	3b 42 08             	cmp    0x8(%rdx),%eax
ffffffff802020de:	72 54                	jb     ffffffff80202134 <IOAPIC_GetVector+0xa4>
ffffffff802020e0:	0f b6 45 fe          	movzbl -0x2(%rbp),%eax
ffffffff802020e4:	8b 4d dc             	mov    -0x24(%rbp),%ecx
ffffffff802020e7:	89 ca                	mov    %ecx,%edx
ffffffff802020e9:	48 8d 14 52          	lea    (%rdx,%rdx,2),%rdx
ffffffff802020ed:	48 8d 34 d5 e0 98 20 	lea    -0x7fdf6720(,%rdx,8),%rsi
ffffffff802020f4:	80
ffffffff802020f5:	8b 0c d5 e8 98 20 80 	mov    -0x7fdf6718(,%rdx,8),%ecx
ffffffff802020fc:	03 4e 10             	add    0x10(%rsi),%ecx
ffffffff802020ff:	39 c8                	cmp    %ecx,%eax
ffffffff80202101:	73 31                	jae    ffffffff80202134 <IOAPIC_GetVector+0xa4>
ffffffff80202103:	0f b6 45 fe          	movzbl -0x2(%rbp),%eax
ffffffff80202107:	8b 4d dc             	mov    -0x24(%rbp),%ecx
ffffffff8020210a:	89 ca                	mov    %ecx,%edx
ffffffff8020210c:	48 8d 14 52          	lea    (%rdx,%rdx,2),%rdx
ffffffff80202110:	8b 0c d5 e8 98 20 80 	mov    -0x7fdf6718(,%rdx,8),%ecx
ffffffff80202117:	29 c8                	sub    %ecx,%eax
ffffffff80202119:	89 45 ec             	mov    %eax,-0x14(%rbp)
ffffffff8020211c:	8b 45 dc             	mov    -0x24(%rbp),%eax
ffffffff8020211f:	89 c2                	mov    %eax,%edx
ffffffff80202121:	48 8d 14 52          	lea    (%rdx,%rdx,2),%rdx
ffffffff80202125:	48 8d 14 d5 e0 98 20 	lea    -0x7fdf6720(,%rdx,8),%rdx
ffffffff8020212c:	80
ffffffff8020212d:	48 8b 12             	mov    (%rdx),%rdx
ffffffff80202130:	48 89 55 e0          	mov    %rdx,-0x20(%rbp)
ffffffff80202134:	eb 00                	jmp    ffffffff80202136 <IOAPIC_GetVector+0xa6>
ffffffff80202136:	8b 45 dc             	mov    -0x24(%rbp),%eax
ffffffff80202139:	83 c0 01             	add    $0x1,%eax
ffffffff8020213c:	89 45 dc             	mov    %eax,-0x24(%rbp)
ffffffff8020213f:	e9 74 ff ff ff       	jmpq   ffffffff802020b8 <IOAPIC_GetVector+0x28>
ffffffff80202144:	48 83 7d e0 00       	cmpq   $0x0,-0x20(%rbp)
ffffffff80202149:	75 06                	jne    ffffffff80202151 <IOAPIC_GetVector+0xc1>
ffffffff8020214b:	c6 45 ff ff          	movb   $0xff,-0x1(%rbp)
ffffffff8020214f:	eb 37                	jmp    ffffffff80202188 <IOAPIC_GetVector+0xf8>
ffffffff80202151:	8b 45 ec             	mov    -0x14(%rbp),%eax
ffffffff80202154:	d1 e0                	shl    %eax
ffffffff80202156:	83 c0 10             	add    $0x10,%eax
ffffffff80202159:	89 45 d8             	mov    %eax,-0x28(%rbp)
ffffffff8020215c:	48 8b 7d e0          	mov    -0x20(%rbp),%rdi
ffffffff80202160:	8b 75 d8             	mov    -0x28(%rbp),%esi
ffffffff80202163:	e8 c8 fe ff ff       	callq  ffffffff80202030 <IOAPIC_Read>
ffffffff80202168:	89 45 d4             	mov    %eax,-0x2c(%rbp)
ffffffff8020216b:	8b 45 d4             	mov    -0x2c(%rbp),%eax
ffffffff8020216e:	25 ff 00 00 00       	and    $0xff,%eax
ffffffff80202173:	88 c1                	mov    %al,%cl
ffffffff80202175:	48 8b 7d f0          	mov    -0x10(%rbp),%rdi
ffffffff80202179:	88 0f                	mov    %cl,(%rdi)
ffffffff8020217b:	8b 45 d4             	mov    -0x2c(%rbp),%eax
ffffffff8020217e:	25 ff 00 00 00       	and    $0xff,%eax
ffffffff80202183:	88 c1                	mov    %al,%cl
ffffffff80202185:	88 4d ff             	mov    %cl,-0x1(%rbp)
ffffffff80202188:	0f b6 45 ff          	movzbl -0x1(%rbp),%eax
ffffffff8020218c:	48 83 c4 30          	add    $0x30,%rsp
ffffffff80202190:	5d                   	pop    %rbp
ffffffff80202191:	c3                   	retq
ffffffff80202192:	0f 1f 40 00          	nopl   0x0(%rax)
ffffffff80202196:	66 2e 0f 1f 84 00 00 	nopw   %cs:0x0(%rax,%rax,1)
ffffffff8020219d:	00 00 00

ffffffff802021a0 <IOAPIC_MapIRQ>:
ffffffff802021a0:	55                   	push   %rbp
ffffffff802021a1:	48 89 e5             	mov    %rsp,%rbp
ffffffff802021a4:	41 56                	push   %r14
ffffffff802021a6:	53                   	push   %rbx
ffffffff802021a7:	48 83 ec 40          	sub    $0x40,%rsp
ffffffff802021ab:	44 88 c8             	mov    %r9b,%al
ffffffff802021ae:	45 88 c2             	mov    %r8b,%r10b
ffffffff802021b1:	41 88 cb             	mov    %cl,%r11b
ffffffff802021b4:	40 88 f3             	mov    %sil,%bl
ffffffff802021b7:	41 88 fe             	mov    %dil,%r14b
ffffffff802021ba:	44 88 75 ef          	mov    %r14b,-0x11(%rbp)
ffffffff802021be:	88 5d ee             	mov    %bl,-0x12(%rbp)
ffffffff802021c1:	48 89 55 e0          	mov    %rdx,-0x20(%rbp)
ffffffff802021c5:	44 88 5d df          	mov    %r11b,-0x21(%rbp)
ffffffff802021c9:	44 88 55 de          	mov    %r10b,-0x22(%rbp)
ffffffff802021cd:	88 45 dd             	mov    %al,-0x23(%rbp)
ffffffff802021d0:	c7 45 d8 00 00 00 00 	movl   $0x0,-0x28(%rbp)
ffffffff802021d7:	48 c7 45 d0 00 00 00 	movq   $0x0,-0x30(%rbp)
ffffffff802021de:	00
ffffffff802021df:	c7 45 cc 00 00 00 00 	movl   $0x0,-0x34(%rbp)
ffffffff802021e6:	8b 45 cc             	mov    -0x34(%rbp),%eax
ffffffff802021e9:	8b 0c 25 18 dd 20 80 	mov    0xffffffff8020dd18,%ecx
ffffffff802021f0:	39 c8                	cmp    %ecx,%eax
ffffffff802021f2:	0f 83 9f 00 00 00    	jae    ffffffff80202297 <IOAPIC_MapIRQ+0xf7>
ffffffff802021f8:	0f b6 45 ef          	movzbl -0x11(%rbp),%eax
ffffffff802021fc:	8b 4d cc             	mov    -0x34(%rbp),%ecx
ffffffff802021ff:	89 ca                	mov    %ecx,%edx
ffffffff80202201:	48 8d 14 52          	lea    (%rdx,%rdx,2),%rdx
ffffffff80202205:	48 8d 14 d5 e0 98 20 	lea    -0x7fdf6720(,%rdx,8),%rdx
ffffffff8020220c:	80
ffffffff8020220d:	3b 42 08             	cmp    0x8(%rdx),%eax
ffffffff80202210:	72 75                	jb     ffffffff80202287 <IOAPIC_MapIRQ+0xe7>
ffffffff80202212:	0f b6 45 ef          	movzbl -0x11(%rbp),%eax
ffffffff80202216:	8b 4d cc             	mov    -0x34(%rbp),%ecx
ffffffff80202219:	89 ca                	mov    %ecx,%edx
ffffffff8020221b:	48 8d 14 52          	lea    (%rdx,%rdx,2),%rdx
ffffffff8020221f:	48 8d 34 d5 e0 98 20 	lea    -0x7fdf6720(,%rdx,8),%rsi
ffffffff80202226:	80
ffffffff80202227:	8b 0c d5 e8 98 20 80 	mov    -0x7fdf6718(,%rdx,8),%ecx
ffffffff8020222e:	03 4e 10             	add    0x10(%rsi),%ecx
ffffffff80202231:	39 c8                	cmp    %ecx,%eax
ffffffff80202233:	73 52                	jae    ffffffff80202287 <IOAPIC_MapIRQ+0xe7>
ffffffff80202235:	0f b6 45 ef          	movzbl -0x11(%rbp),%eax
ffffffff80202239:	8b 4d cc             	mov    -0x34(%rbp),%ecx
ffffffff8020223c:	89 ca                	mov    %ecx,%edx
ffffffff8020223e:	48 8d 14 52          	lea    (%rdx,%rdx,2),%rdx
ffffffff80202242:	8b 0c d5 e8 98 20 80 	mov    -0x7fdf6718(,%rdx,8),%ecx
ffffffff80202249:	29 c8                	sub    %ecx,%eax
ffffffff8020224b:	89 45 d8             	mov    %eax,-0x28(%rbp)
ffffffff8020224e:	8b 45 cc             	mov    -0x34(%rbp),%eax
ffffffff80202251:	89 c2                	mov    %eax,%edx
ffffffff80202253:	48 8d 14 52          	lea    (%rdx,%rdx,2),%rdx
ffffffff80202257:	48 8b 14 d5 e0 98 20 	mov    -0x7fdf6720(,%rdx,8),%rdx
ffffffff8020225e:	80
ffffffff8020225f:	48 89 55 d0          	mov    %rdx,-0x30(%rbp)
ffffffff80202263:	8b 45 cc             	mov    -0x34(%rbp),%eax
ffffffff80202266:	0f b6 4d ee          	movzbl -0x12(%rbp),%ecx
ffffffff8020226a:	89 ca                	mov    %ecx,%edx
ffffffff8020226c:	89 04 d5 e0 90 20 80 	mov    %eax,-0x7fdf6f20(,%rdx,8)
ffffffff80202273:	8b 45 d8             	mov    -0x28(%rbp),%eax
ffffffff80202276:	0f b6 4d ee          	movzbl -0x12(%rbp),%ecx
ffffffff8020227a:	89 ca                	mov    %ecx,%edx
ffffffff8020227c:	48 8d 14 d5 e0 90 20 	lea    -0x7fdf6f20(,%rdx,8),%rdx
ffffffff80202283:	80
ffffffff80202284:	89 42 04             	mov    %eax,0x4(%rdx)
ffffffff80202287:	eb 00                	jmp    ffffffff80202289 <IOAPIC_MapIRQ+0xe9>
ffffffff80202289:	8b 45 cc             	mov    -0x34(%rbp),%eax
ffffffff8020228c:	83 c0 01             	add    $0x1,%eax
ffffffff8020228f:	89 45 cc             	mov    %eax,-0x34(%rbp)
ffffffff80202292:	e9 4f ff ff ff       	jmpq   ffffffff802021e6 <IOAPIC_MapIRQ+0x46>
ffffffff80202297:	48 83 7d d0 00       	cmpq   $0x0,-0x30(%rbp)
ffffffff8020229c:	75 05                	jne    ffffffff802022a3 <IOAPIC_MapIRQ+0x103>
ffffffff8020229e:	e9 e6 00 00 00       	jmpq   ffffffff80202389 <IOAPIC_MapIRQ+0x1e9>
ffffffff802022a3:	8b 45 d8             	mov    -0x28(%rbp),%eax
ffffffff802022a6:	d1 e0                	shl    %eax
ffffffff802022a8:	83 c0 10             	add    $0x10,%eax
ffffffff802022ab:	89 45 c8             	mov    %eax,-0x38(%rbp)
ffffffff802022ae:	8b 45 d8             	mov    -0x28(%rbp),%eax
ffffffff802022b1:	d1 e0                	shl    %eax
ffffffff802022b3:	83 c0 10             	add    $0x10,%eax
ffffffff802022b6:	83 c0 01             	add    $0x1,%eax
ffffffff802022b9:	89 45 c4             	mov    %eax,-0x3c(%rbp)
ffffffff802022bc:	48 8b 7d d0          	mov    -0x30(%rbp),%rdi
ffffffff802022c0:	8b 75 c4             	mov    -0x3c(%rbp),%esi
ffffffff802022c3:	e8 68 fd ff ff       	callq  ffffffff80202030 <IOAPIC_Read>
ffffffff802022c8:	89 45 c0             	mov    %eax,-0x40(%rbp)
ffffffff802022cb:	8b 45 c0             	mov    -0x40(%rbp),%eax
ffffffff802022ce:	25 ff ff ff 00       	and    $0xffffff,%eax
ffffffff802022d3:	89 45 c0             	mov    %eax,-0x40(%rbp)
ffffffff802022d6:	48 8b 7d e0          	mov    -0x20(%rbp),%rdi
ffffffff802022da:	48 c1 e7 18          	shl    $0x18,%rdi
ffffffff802022de:	8b 45 c0             	mov    -0x40(%rbp),%eax
ffffffff802022e1:	89 c1                	mov    %eax,%ecx
ffffffff802022e3:	48 09 f9             	or     %rdi,%rcx
ffffffff802022e6:	89 c8                	mov    %ecx,%eax
ffffffff802022e8:	89 45 c0             	mov    %eax,-0x40(%rbp)
ffffffff802022eb:	48 8b 7d d0          	mov    -0x30(%rbp),%rdi
ffffffff802022ef:	8b 75 c4             	mov    -0x3c(%rbp),%esi
ffffffff802022f2:	8b 55 c0             	mov    -0x40(%rbp),%edx
ffffffff802022f5:	e8 66 fd ff ff       	callq  ffffffff80202060 <IOAPIC_Write>
ffffffff802022fa:	48 8b 7d d0          	mov    -0x30(%rbp),%rdi
ffffffff802022fe:	8b 75 c8             	mov    -0x38(%rbp),%esi
ffffffff80202301:	e8 2a fd ff ff       	callq  ffffffff80202030 <IOAPIC_Read>
ffffffff80202306:	89 45 bc             	mov    %eax,-0x44(%rbp)
ffffffff80202309:	8b 45 bc             	mov    -0x44(%rbp),%eax
ffffffff8020230c:	25 ff df ff ff       	and    $0xffffdfff,%eax
ffffffff80202311:	89 45 bc             	mov    %eax,-0x44(%rbp)
ffffffff80202314:	0f b6 45 de          	movzbl -0x22(%rbp),%eax
ffffffff80202318:	83 e0 01             	and    $0x1,%eax
ffffffff8020231b:	c1 e0 0d             	shl    $0xd,%eax
ffffffff8020231e:	0b 45 bc             	or     -0x44(%rbp),%eax
ffffffff80202321:	89 45 bc             	mov    %eax,-0x44(%rbp)
ffffffff80202324:	8b 45 bc             	mov    -0x44(%rbp),%eax
ffffffff80202327:	25 ff 7f ff ff       	and    $0xffff7fff,%eax
ffffffff8020232c:	89 45 bc             	mov    %eax,-0x44(%rbp)
ffffffff8020232f:	0f b6 45 df          	movzbl -0x21(%rbp),%eax
ffffffff80202333:	83 e0 01             	and    $0x1,%eax
ffffffff80202336:	c1 e0 0f             	shl    $0xf,%eax
ffffffff80202339:	0b 45 bc             	or     -0x44(%rbp),%eax
ffffffff8020233c:	89 45 bc             	mov    %eax,-0x44(%rbp)
ffffffff8020233f:	8b 45 bc             	mov    -0x44(%rbp),%eax
ffffffff80202342:	25 ff f7 ff ff       	and    $0xfffff7ff,%eax
ffffffff80202347:	89 45 bc             	mov    %eax,-0x44(%rbp)
ffffffff8020234a:	8b 45 bc             	mov    -0x44(%rbp),%eax
ffffffff8020234d:	25 ff f8 ff ff       	and    $0xfffff8ff,%eax
ffffffff80202352:	89 45 bc             	mov    %eax,-0x44(%rbp)
ffffffff80202355:	8b 45 bc             	mov    -0x44(%rbp),%eax
ffffffff80202358:	25 00 ff ff ff       	and    $0xffffff00,%eax
ffffffff8020235d:	89 45 bc             	mov    %eax,-0x44(%rbp)
ffffffff80202360:	0f b6 45 ee          	movzbl -0x12(%rbp),%eax
ffffffff80202364:	0b 45 bc             	or     -0x44(%rbp),%eax
ffffffff80202367:	89 45 bc             	mov    %eax,-0x44(%rbp)
ffffffff8020236a:	0f b6 45 dd          	movzbl -0x23(%rbp),%eax
ffffffff8020236e:	83 e0 07             	and    $0x7,%eax
ffffffff80202371:	c1 e0 08             	shl    $0x8,%eax
ffffffff80202374:	0b 45 bc             	or     -0x44(%rbp),%eax
ffffffff80202377:	89 45 bc             	mov    %eax,-0x44(%rbp)
ffffffff8020237a:	48 8b 7d d0          	mov    -0x30(%rbp),%rdi
ffffffff8020237e:	8b 75 c8             	mov    -0x38(%rbp),%esi
ffffffff80202381:	8b 55 bc             	mov    -0x44(%rbp),%edx
ffffffff80202384:	e8 d7 fc ff ff       	callq  ffffffff80202060 <IOAPIC_Write>
ffffffff80202389:	48 83 c4 40          	add    $0x40,%rsp
ffffffff8020238d:	5b                   	pop    %rbx
ffffffff8020238e:	41 5e                	pop    %r14
ffffffff80202390:	5d                   	pop    %rbp
ffffffff80202391:	c3                   	retq
ffffffff80202392:	0f 1f 40 00          	nopl   0x0(%rax)
ffffffff80202396:	66 2e 0f 1f 84 00 00 	nopw   %cs:0x0(%rax,%rax,1)
ffffffff8020239d:	00 00 00

ffffffff802023a0 <IOAPIC_SetEnableMode>:
ffffffff802023a0:	55                   	push   %rbp
ffffffff802023a1:	48 89 e5             	mov    %rsp,%rbp
ffffffff802023a4:	48 83 ec 20          	sub    $0x20,%rsp
ffffffff802023a8:	40 88 f0             	mov    %sil,%al
ffffffff802023ab:	40 88 f9             	mov    %dil,%cl
ffffffff802023ae:	88 4d ff             	mov    %cl,-0x1(%rbp)
ffffffff802023b1:	88 45 fe             	mov    %al,-0x2(%rbp)
ffffffff802023b4:	0f b6 75 ff          	movzbl -0x1(%rbp),%esi
ffffffff802023b8:	89 f2                	mov    %esi,%edx
ffffffff802023ba:	48 8d 14 d5 e0 90 20 	lea    -0x7fdf6f20(,%rdx,8),%rdx
ffffffff802023c1:	80
ffffffff802023c2:	83 3a ff             	cmpl   $0xffffffff,(%rdx)
ffffffff802023c5:	74 75                	je     ffffffff8020243c <IOAPIC_SetEnableMode+0x9c>
ffffffff802023c7:	0f b6 45 ff          	movzbl -0x1(%rbp),%eax
ffffffff802023cb:	89 c1                	mov    %eax,%ecx
ffffffff802023cd:	8b 04 cd e4 90 20 80 	mov    -0x7fdf6f1c(,%rcx,8),%eax
ffffffff802023d4:	89 c1                	mov    %eax,%ecx
ffffffff802023d6:	8d 44 09 10          	lea    0x10(%rcx,%rcx,1),%eax
ffffffff802023da:	89 45 f8             	mov    %eax,-0x8(%rbp)
ffffffff802023dd:	0f b6 45 ff          	movzbl -0x1(%rbp),%eax
ffffffff802023e1:	89 c1                	mov    %eax,%ecx
ffffffff802023e3:	8b 04 cd e0 90 20 80 	mov    -0x7fdf6f20(,%rcx,8),%eax
ffffffff802023ea:	89 c1                	mov    %eax,%ecx
ffffffff802023ec:	48 8d 0c 49          	lea    (%rcx,%rcx,2),%rcx
ffffffff802023f0:	48 8d 0c cd e0 98 20 	lea    -0x7fdf6720(,%rcx,8),%rcx
ffffffff802023f7:	80
ffffffff802023f8:	48 8b 09             	mov    (%rcx),%rcx
ffffffff802023fb:	48 89 4d f0          	mov    %rcx,-0x10(%rbp)
ffffffff802023ff:	48 8b 7d f0          	mov    -0x10(%rbp),%rdi
ffffffff80202403:	8b 75 f8             	mov    -0x8(%rbp),%esi
ffffffff80202406:	e8 25 fc ff ff       	callq  ffffffff80202030 <IOAPIC_Read>
ffffffff8020240b:	31 f6                	xor    %esi,%esi
ffffffff8020240d:	89 45 ec             	mov    %eax,-0x14(%rbp)
ffffffff80202410:	8b 45 ec             	mov    -0x14(%rbp),%eax
ffffffff80202413:	0f b6 55 fe          	movzbl -0x2(%rbp),%edx
ffffffff80202417:	83 f2 ff             	xor    $0xffffffff,%edx
ffffffff8020241a:	83 e2 01             	and    $0x1,%edx
ffffffff8020241d:	29 d6                	sub    %edx,%esi
ffffffff8020241f:	33 75 ec             	xor    -0x14(%rbp),%esi
ffffffff80202422:	81 e6 00 00 01 00    	and    $0x10000,%esi
ffffffff80202428:	31 f0                	xor    %esi,%eax
ffffffff8020242a:	89 45 ec             	mov    %eax,-0x14(%rbp)
ffffffff8020242d:	48 8b 7d f0          	mov    -0x10(%rbp),%rdi
ffffffff80202431:	8b 75 f8             	mov    -0x8(%rbp),%esi
ffffffff80202434:	8b 55 ec             	mov    -0x14(%rbp),%edx
ffffffff80202437:	e8 24 fc ff ff       	callq  ffffffff80202060 <IOAPIC_Write>
ffffffff8020243c:	48 83 c4 20          	add    $0x20,%rsp
ffffffff80202440:	5d                   	pop    %rbp
ffffffff80202441:	c3                   	retq
ffffffff80202442:	66 2e 0f 1f 84 00 00 	nopw   %cs:0x0(%rax,%rax,1)
ffffffff80202449:	00 00 00
ffffffff8020244c:	0f 1f 40 00          	nopl   0x0(%rax)

ffffffff80202450 <APIC_Initialize>:
ffffffff80202450:	55                   	push   %rbp
ffffffff80202451:	48 89 e5             	mov    %rsp,%rbp
ffffffff80202454:	48 81 ec b0 00 00 00 	sub    $0xb0,%rsp
ffffffff8020245b:	b8 01 00 00 00       	mov    $0x1,%eax
ffffffff80202460:	31 c9                	xor    %ecx,%ecx
ffffffff80202462:	bf 01 00 00 00       	mov    $0x1,%edi
ffffffff80202467:	31 f6                	xor    %esi,%esi
ffffffff80202469:	89 45 a4             	mov    %eax,-0x5c(%rbp)
ffffffff8020246c:	89 4d a0             	mov    %ecx,-0x60(%rbp)
ffffffff8020246f:	e8 dc e5 ff ff       	callq  ffffffff80200a50 <CPUID_RequestInfo>
ffffffff80202474:	b8 03 00 00 00       	mov    $0x3,%eax
ffffffff80202479:	b9 00 02 00 00       	mov    $0x200,%ecx
ffffffff8020247e:	bf 03 00 00 00       	mov    $0x3,%edi
ffffffff80202483:	be 00 02 00 00       	mov    $0x200,%esi
ffffffff80202488:	89 45 9c             	mov    %eax,-0x64(%rbp)
ffffffff8020248b:	89 4d 98             	mov    %ecx,-0x68(%rbp)
ffffffff8020248e:	e8 ed e5 ff ff       	callq  ffffffff80200a80 <CPUID_FeatureIsAvailable>
ffffffff80202493:	88 45 fb             	mov    %al,-0x5(%rbp)
ffffffff80202496:	80 7d fb 00          	cmpb   $0x0,-0x5(%rbp)
ffffffff8020249a:	75 0c                	jne    ffffffff802024a8 <APIC_Initialize+0x58>
ffffffff8020249c:	c7 45 fc ff ff ff ff 	movl   $0xffffffff,-0x4(%rbp)
ffffffff802024a3:	e9 db 03 00 00       	jmpq   ffffffff80202883 <APIC_Initialize+0x433>
ffffffff802024a8:	48 c7 04 25 20 dd 20 	movq   $0x0,0xffffffff8020dd20
ffffffff802024af:	80 00 00 00 00
ffffffff802024b4:	e8 47 f1 ff ff       	callq  ffffffff80201600 <APIC_LocalInitialize>
ffffffff802024b9:	48 c7 c7 35 7d 20 80 	mov    $0xffffffff80207d35,%rdi
ffffffff802024c0:	31 f6                	xor    %esi,%esi
ffffffff802024c2:	88 45 97             	mov    %al,-0x69(%rbp)
ffffffff802024c5:	e8 86 3a 00 00       	callq  ffffffff80205f50 <ACPITables_FindTable>
ffffffff802024ca:	48 89 45 f0          	mov    %rax,-0x10(%rbp)
ffffffff802024ce:	c7 45 ec 01 00 00 00 	movl   $0x1,-0x14(%rbp)
ffffffff802024d5:	48 8b 45 f0          	mov    -0x10(%rbp),%rax
ffffffff802024d9:	89 c6                	mov    %eax,%esi
ffffffff802024db:	89 f7                	mov    %esi,%edi
ffffffff802024dd:	e8 4e dd ff ff       	callq  ffffffff80200230 <bootstrap_render>
ffffffff802024e2:	48 83 7d f0 00       	cmpq   $0x0,-0x10(%rbp)
ffffffff802024e7:	0f 84 71 03 00 00    	je     ffffffff8020285e <APIC_Initialize+0x40e>
ffffffff802024ed:	b8 1f ff 00 ff       	mov    $0xff00ff1f,%eax
ffffffff802024f2:	bf 1f ff 00 ff       	mov    $0xff00ff1f,%edi
ffffffff802024f7:	89 45 90             	mov    %eax,-0x70(%rbp)
ffffffff802024fa:	e8 31 dd ff ff       	callq  ffffffff80200230 <bootstrap_render>
ffffffff802024ff:	48 83 7d f0 00       	cmpq   $0x0,-0x10(%rbp)
ffffffff80202504:	0f 84 52 03 00 00    	je     ffffffff8020285c <APIC_Initialize+0x40c>
ffffffff8020250a:	48 8b 45 f0          	mov    -0x10(%rbp),%rax
ffffffff8020250e:	8b 48 04             	mov    0x4(%rax),%ecx
ffffffff80202511:	83 e9 08             	sub    $0x8,%ecx
ffffffff80202514:	89 c9                	mov    %ecx,%ecx
ffffffff80202516:	89 c8                	mov    %ecx,%eax
ffffffff80202518:	48 83 e8 24          	sub    $0x24,%rax
ffffffff8020251c:	89 c1                	mov    %eax,%ecx
ffffffff8020251e:	89 4d e8             	mov    %ecx,-0x18(%rbp)
ffffffff80202521:	c7 45 e4 00 00 00 00 	movl   $0x0,-0x1c(%rbp)
ffffffff80202528:	83 7d e4 02          	cmpl   $0x2,-0x1c(%rbp)
ffffffff8020252c:	0f 8d 08 03 00 00    	jge    ffffffff8020283a <APIC_Initialize+0x3ea>
ffffffff80202532:	c7 45 e0 00 00 00 00 	movl   $0x0,-0x20(%rbp)
ffffffff80202539:	8b 45 e0             	mov    -0x20(%rbp),%eax
ffffffff8020253c:	3b 45 e8             	cmp    -0x18(%rbp),%eax
ffffffff8020253f:	0f 83 e5 02 00 00    	jae    ffffffff8020282a <APIC_Initialize+0x3da>
ffffffff80202545:	8b 45 e0             	mov    -0x20(%rbp),%eax
ffffffff80202548:	89 c1                	mov    %eax,%ecx
ffffffff8020254a:	48 8b 55 f0          	mov    -0x10(%rbp),%rdx
ffffffff8020254e:	48 8d 74 0a 2c       	lea    0x2c(%rdx,%rcx,1),%rsi
ffffffff80202553:	48 89 75 d8          	mov    %rsi,-0x28(%rbp)
ffffffff80202557:	0f b6 44 0a 2c       	movzbl 0x2c(%rdx,%rcx,1),%eax
ffffffff8020255c:	89 c1                	mov    %eax,%ecx
ffffffff8020255e:	48 89 ca             	mov    %rcx,%rdx
ffffffff80202561:	48 83 ea 03          	sub    $0x3,%rdx
ffffffff80202565:	48 89 4d 88          	mov    %rcx,-0x78(%rbp)
ffffffff80202569:	48 89 55 80          	mov    %rdx,-0x80(%rbp)
ffffffff8020256d:	0f 87 84 02 00 00    	ja     ffffffff802027f7 <APIC_Initialize+0x3a7>
ffffffff80202573:	48 8b 45 88          	mov    -0x78(%rbp),%rax
ffffffff80202577:	48 8b 0c c5 40 70 20 	mov    -0x7fdf8fc0(,%rax,8),%rcx
ffffffff8020257e:	80
ffffffff8020257f:	ff e1                	jmpq   *%rcx
ffffffff80202581:	83 7d e4 00          	cmpl   $0x0,-0x1c(%rbp)
ffffffff80202585:	74 05                	je     ffffffff8020258c <APIC_Initialize+0x13c>
ffffffff80202587:	e9 75 02 00 00       	jmpq   ffffffff80202801 <APIC_Initialize+0x3b1>
ffffffff8020258c:	48 8b 45 d8          	mov    -0x28(%rbp),%rax
ffffffff80202590:	48 89 45 d0          	mov    %rax,-0x30(%rbp)
ffffffff80202594:	bf 0f ff 00 00       	mov    $0xff0f,%edi
ffffffff80202599:	e8 92 dc ff ff       	callq  ffffffff80200230 <bootstrap_render>
ffffffff8020259e:	bf 10 00 00 00       	mov    $0x10,%edi
ffffffff802025a3:	e8 28 35 00 00       	callq  ffffffff80205ad0 <bootstrap_malloc>
ffffffff802025a8:	48 89 45 c8          	mov    %rax,-0x38(%rbp)
ffffffff802025ac:	48 8b 7d d0          	mov    -0x30(%rbp),%rdi
ffffffff802025b0:	0f b6 4f 03          	movzbl 0x3(%rdi),%ecx
ffffffff802025b4:	89 08                	mov    %ecx,(%rax)
ffffffff802025b6:	48 8b 45 d0          	mov    -0x30(%rbp),%rax
ffffffff802025ba:	0f b6 48 02          	movzbl 0x2(%rax),%ecx
ffffffff802025be:	48 8b 45 c8          	mov    -0x38(%rbp),%rax
ffffffff802025c2:	89 48 04             	mov    %ecx,0x4(%rax)
ffffffff802025c5:	48 8b 04 25 20 dd 20 	mov    0xffffffff8020dd20,%rax
ffffffff802025cc:	80
ffffffff802025cd:	48 8b 7d c8          	mov    -0x38(%rbp),%rdi
ffffffff802025d1:	48 89 47 08          	mov    %rax,0x8(%rdi)
ffffffff802025d5:	48 8b 45 c8          	mov    -0x38(%rbp),%rax
ffffffff802025d9:	48 89 04 25 20 dd 20 	mov    %rax,0xffffffff8020dd20
ffffffff802025e0:	80
ffffffff802025e1:	48 8b 45 d0          	mov    -0x30(%rbp),%rax
ffffffff802025e5:	0f b6 48 03          	movzbl 0x3(%rax),%ecx
ffffffff802025e9:	89 8d 7c ff ff ff    	mov    %ecx,-0x84(%rbp)
ffffffff802025ef:	e8 bc f6 ff ff       	callq  ffffffff80201cb0 <APIC_GetID>
ffffffff802025f4:	0f b6 c8             	movzbl %al,%ecx
ffffffff802025f7:	8b 95 7c ff ff ff    	mov    -0x84(%rbp),%edx
ffffffff802025fd:	39 ca                	cmp    %ecx,%edx
ffffffff802025ff:	74 02                	je     ffffffff80202603 <APIC_Initialize+0x1b3>
ffffffff80202601:	eb 00                	jmp    ffffffff80202603 <APIC_Initialize+0x1b3>
ffffffff80202603:	e9 f9 01 00 00       	jmpq   ffffffff80202801 <APIC_Initialize+0x3b1>
ffffffff80202608:	83 7d e4 00          	cmpl   $0x0,-0x1c(%rbp)
ffffffff8020260c:	74 05                	je     ffffffff80202613 <APIC_Initialize+0x1c3>
ffffffff8020260e:	e9 ee 01 00 00       	jmpq   ffffffff80202801 <APIC_Initialize+0x3b1>
ffffffff80202613:	b8 00 ff 00 ff       	mov    $0xff00ff00,%eax
ffffffff80202618:	48 8b 4d d8          	mov    -0x28(%rbp),%rcx
ffffffff8020261c:	48 89 4d c0          	mov    %rcx,-0x40(%rbp)
ffffffff80202620:	bf 00 ff 00 ff       	mov    $0xff00ff00,%edi
ffffffff80202625:	89 85 78 ff ff ff    	mov    %eax,-0x88(%rbp)
ffffffff8020262b:	e8 00 dc ff ff       	callq  ffffffff80200230 <bootstrap_render>
ffffffff80202630:	48 8b 4d c0          	mov    -0x40(%rbp),%rcx
ffffffff80202634:	8b 41 04             	mov    0x4(%rcx),%eax
ffffffff80202637:	89 c7                	mov    %eax,%edi
ffffffff80202639:	e8 72 ef ff ff       	callq  ffffffff802015b0 <GetVirtualAddress>
ffffffff8020263e:	48 8b 4d c0          	mov    -0x40(%rbp),%rcx
ffffffff80202642:	8b 71 08             	mov    0x8(%rcx),%esi
ffffffff80202645:	48 89 c7             	mov    %rax,%rdi
ffffffff80202648:	e8 13 f9 ff ff       	callq  ffffffff80201f60 <IOAPIC_Initialize>
ffffffff8020264d:	c7 45 bc 00 00 00 00 	movl   $0x0,-0x44(%rbp)
ffffffff80202654:	88 85 77 ff ff ff    	mov    %al,-0x89(%rbp)
ffffffff8020265a:	83 7d bc 10          	cmpl   $0x10,-0x44(%rbp)
ffffffff8020265e:	7d 5a                	jge    ffffffff802026ba <APIC_Initialize+0x26a>
ffffffff80202660:	8b 45 bc             	mov    -0x44(%rbp),%eax
ffffffff80202663:	88 c1                	mov    %al,%cl
ffffffff80202665:	8b 45 bc             	mov    -0x44(%rbp),%eax
ffffffff80202668:	83 c0 20             	add    $0x20,%eax
ffffffff8020266b:	88 c2                	mov    %al,%dl
ffffffff8020266d:	88 8d 76 ff ff ff    	mov    %cl,-0x8a(%rbp)
ffffffff80202673:	88 95 75 ff ff ff    	mov    %dl,-0x8b(%rbp)
ffffffff80202679:	e8 32 f6 ff ff       	callq  ffffffff80201cb0 <APIC_GetID>
ffffffff8020267e:	31 f6                	xor    %esi,%esi
ffffffff80202680:	0f b6 f8             	movzbl %al,%edi
ffffffff80202683:	89 fa                	mov    %edi,%edx
ffffffff80202685:	8a 85 76 ff ff ff    	mov    -0x8a(%rbp),%al
ffffffff8020268b:	0f b6 f8             	movzbl %al,%edi
ffffffff8020268e:	8a 8d 75 ff ff ff    	mov    -0x8b(%rbp),%cl
ffffffff80202694:	44 0f b6 c1          	movzbl %cl,%r8d
ffffffff80202698:	45 31 c9             	xor    %r9d,%r9d
ffffffff8020269b:	89 b5 70 ff ff ff    	mov    %esi,-0x90(%rbp)
ffffffff802026a1:	44 89 c6             	mov    %r8d,%esi
ffffffff802026a4:	44 89 c9             	mov    %r9d,%ecx
ffffffff802026a7:	45 89 c8             	mov    %r9d,%r8d
ffffffff802026aa:	e8 f1 fa ff ff       	callq  ffffffff802021a0 <IOAPIC_MapIRQ>
ffffffff802026af:	8b 45 bc             	mov    -0x44(%rbp),%eax
ffffffff802026b2:	83 c0 01             	add    $0x1,%eax
ffffffff802026b5:	89 45 bc             	mov    %eax,-0x44(%rbp)
ffffffff802026b8:	eb a0                	jmp    ffffffff8020265a <APIC_Initialize+0x20a>
ffffffff802026ba:	e9 42 01 00 00       	jmpq   ffffffff80202801 <APIC_Initialize+0x3b1>
ffffffff802026bf:	83 7d e4 00          	cmpl   $0x0,-0x1c(%rbp)
ffffffff802026c3:	75 05                	jne    ffffffff802026ca <APIC_Initialize+0x27a>
ffffffff802026c5:	e9 37 01 00 00       	jmpq   ffffffff80202801 <APIC_Initialize+0x3b1>
ffffffff802026ca:	b8 ff 00 ff 00       	mov    $0xff00ff,%eax
ffffffff802026cf:	48 8b 4d d8          	mov    -0x28(%rbp),%rcx
ffffffff802026d3:	48 89 4d b0          	mov    %rcx,-0x50(%rbp)
ffffffff802026d7:	48 8b 4d b0          	mov    -0x50(%rbp),%rcx
ffffffff802026db:	0f b7 51 08          	movzwl 0x8(%rcx),%edx
ffffffff802026df:	83 e2 03             	and    $0x3,%edx
ffffffff802026e2:	89 55 ac             	mov    %edx,-0x54(%rbp)
ffffffff802026e5:	48 8b 4d b0          	mov    -0x50(%rbp),%rcx
ffffffff802026e9:	0f b7 51 08          	movzwl 0x8(%rcx),%edx
ffffffff802026ed:	c1 fa 02             	sar    $0x2,%edx
ffffffff802026f0:	83 e2 03             	and    $0x3,%edx
ffffffff802026f3:	89 55 a8             	mov    %edx,-0x58(%rbp)
ffffffff802026f6:	bf ff 00 ff 00       	mov    $0xff00ff,%edi
ffffffff802026fb:	89 85 6c ff ff ff    	mov    %eax,-0x94(%rbp)
ffffffff80202701:	e8 2a db ff ff       	callq  ffffffff80200230 <bootstrap_render>
ffffffff80202706:	48 8b 4d b0          	mov    -0x50(%rbp),%rcx
ffffffff8020270a:	0f b6 41 03          	movzbl 0x3(%rcx),%eax
ffffffff8020270e:	83 f8 00             	cmp    $0x0,%eax
ffffffff80202711:	75 74                	jne    ffffffff80202787 <APIC_Initialize+0x337>
ffffffff80202713:	48 8b 45 b0          	mov    -0x50(%rbp),%rax
ffffffff80202717:	8b 48 04             	mov    0x4(%rax),%ecx
ffffffff8020271a:	88 ca                	mov    %cl,%dl
ffffffff8020271c:	48 8b 45 b0          	mov    -0x50(%rbp),%rax
ffffffff80202720:	0f b6 48 03          	movzbl 0x3(%rax),%ecx
ffffffff80202724:	83 c1 20             	add    $0x20,%ecx
ffffffff80202727:	40 88 ce             	mov    %cl,%sil
ffffffff8020272a:	88 95 6b ff ff ff    	mov    %dl,-0x95(%rbp)
ffffffff80202730:	40 88 b5 6a ff ff ff 	mov    %sil,-0x96(%rbp)
ffffffff80202737:	e8 74 f5 ff ff       	callq  ffffffff80201cb0 <APIC_GetID>
ffffffff8020273c:	31 c9                	xor    %ecx,%ecx
ffffffff8020273e:	0f b6 f8             	movzbl %al,%edi
ffffffff80202741:	89 fa                	mov    %edi,%edx
ffffffff80202743:	8b 7d a8             	mov    -0x58(%rbp),%edi
ffffffff80202746:	d1 ff                	sar    %edi
ffffffff80202748:	40 88 f8             	mov    %dil,%al
ffffffff8020274b:	8b 7d ac             	mov    -0x54(%rbp),%edi
ffffffff8020274e:	d1 ff                	sar    %edi
ffffffff80202750:	40 88 fe             	mov    %dil,%sil
ffffffff80202753:	44 8a 85 6b ff ff ff 	mov    -0x95(%rbp),%r8b
ffffffff8020275a:	41 0f b6 f8          	movzbl %r8b,%edi
ffffffff8020275e:	44 8a 8d 6a ff ff ff 	mov    -0x96(%rbp),%r9b
ffffffff80202765:	45 0f b6 d1          	movzbl %r9b,%r10d
ffffffff80202769:	44 0f b6 d8          	movzbl %al,%r11d
ffffffff8020276d:	44 0f b6 c6          	movzbl %sil,%r8d
ffffffff80202771:	45 31 c9             	xor    %r9d,%r9d
ffffffff80202774:	44 89 d6             	mov    %r10d,%esi
ffffffff80202777:	89 8d 64 ff ff ff    	mov    %ecx,-0x9c(%rbp)
ffffffff8020277d:	44 89 d9             	mov    %r11d,%ecx
ffffffff80202780:	e8 1b fa ff ff       	callq  ffffffff802021a0 <IOAPIC_MapIRQ>
ffffffff80202785:	eb 6c                	jmp    ffffffff802027f3 <APIC_Initialize+0x3a3>
ffffffff80202787:	48 8b 45 b0          	mov    -0x50(%rbp),%rax
ffffffff8020278b:	8b 48 04             	mov    0x4(%rax),%ecx
ffffffff8020278e:	88 ca                	mov    %cl,%dl
ffffffff80202790:	48 8b 45 b0          	mov    -0x50(%rbp),%rax
ffffffff80202794:	40 8a 70 03          	mov    0x3(%rax),%sil
ffffffff80202798:	88 95 63 ff ff ff    	mov    %dl,-0x9d(%rbp)
ffffffff8020279e:	40 88 b5 62 ff ff ff 	mov    %sil,-0x9e(%rbp)
ffffffff802027a5:	e8 06 f5 ff ff       	callq  ffffffff80201cb0 <APIC_GetID>
ffffffff802027aa:	31 c9                	xor    %ecx,%ecx
ffffffff802027ac:	0f b6 f8             	movzbl %al,%edi
ffffffff802027af:	89 fa                	mov    %edi,%edx
ffffffff802027b1:	8b 7d a8             	mov    -0x58(%rbp),%edi
ffffffff802027b4:	d1 ff                	sar    %edi
ffffffff802027b6:	40 88 f8             	mov    %dil,%al
ffffffff802027b9:	8b 7d ac             	mov    -0x54(%rbp),%edi
ffffffff802027bc:	d1 ff                	sar    %edi
ffffffff802027be:	40 88 fe             	mov    %dil,%sil
ffffffff802027c1:	44 8a 85 63 ff ff ff 	mov    -0x9d(%rbp),%r8b
ffffffff802027c8:	41 0f b6 f8          	movzbl %r8b,%edi
ffffffff802027cc:	44 8a 8d 62 ff ff ff 	mov    -0x9e(%rbp),%r9b
ffffffff802027d3:	45 0f b6 d1          	movzbl %r9b,%r10d
ffffffff802027d7:	44 0f b6 d8          	movzbl %al,%r11d
ffffffff802027db:	44 0f b6 c6          	movzbl %sil,%r8d
ffffffff802027df:	45 31 c9             	xor    %r9d,%r9d
ffffffff802027e2:	44 89 d6             	mov    %r10d,%esi
ffffffff802027e5:	89 8d 5c ff ff ff    	mov    %ecx,-0xa4(%rbp)
ffffffff802027eb:	44 89 d9             	mov    %r11d,%ecx
ffffffff802027ee:	e8 ad f9 ff ff       	callq  ffffffff802021a0 <IOAPIC_MapIRQ>
ffffffff802027f3:	eb 0c                	jmp    ffffffff80202801 <APIC_Initialize+0x3b1>
ffffffff802027f5:	eb 0a                	jmp    ffffffff80202801 <APIC_Initialize+0x3b1>
ffffffff802027f7:	83 7d e4 00          	cmpl   $0x0,-0x1c(%rbp)
ffffffff802027fb:	74 02                	je     ffffffff802027ff <APIC_Initialize+0x3af>
ffffffff802027fd:	eb 02                	jmp    ffffffff80202801 <APIC_Initialize+0x3b1>
ffffffff802027ff:	eb 00                	jmp    ffffffff80202801 <APIC_Initialize+0x3b1>
ffffffff80202801:	48 8b 45 d8          	mov    -0x28(%rbp),%rax
ffffffff80202805:	0f b6 48 01          	movzbl 0x1(%rax),%ecx
ffffffff80202809:	03 4d e0             	add    -0x20(%rbp),%ecx
ffffffff8020280c:	89 4d e0             	mov    %ecx,-0x20(%rbp)
ffffffff8020280f:	48 8b 45 d8          	mov    -0x28(%rbp),%rax
ffffffff80202813:	0f b6 48 01          	movzbl 0x1(%rax),%ecx
ffffffff80202817:	83 f9 00             	cmp    $0x0,%ecx
ffffffff8020281a:	75 09                	jne    ffffffff80202825 <APIC_Initialize+0x3d5>
ffffffff8020281c:	8b 45 e0             	mov    -0x20(%rbp),%eax
ffffffff8020281f:	83 c0 08             	add    $0x8,%eax
ffffffff80202822:	89 45 e0             	mov    %eax,-0x20(%rbp)
ffffffff80202825:	e9 0f fd ff ff       	jmpq   ffffffff80202539 <APIC_Initialize+0xe9>
ffffffff8020282a:	eb 00                	jmp    ffffffff8020282c <APIC_Initialize+0x3dc>
ffffffff8020282c:	8b 45 e4             	mov    -0x1c(%rbp),%eax
ffffffff8020282f:	83 c0 01             	add    $0x1,%eax
ffffffff80202832:	89 45 e4             	mov    %eax,-0x1c(%rbp)
ffffffff80202835:	e9 ee fc ff ff       	jmpq   ffffffff80202528 <APIC_Initialize+0xd8>
ffffffff8020283a:	8b 45 ec             	mov    -0x14(%rbp),%eax
ffffffff8020283d:	89 c1                	mov    %eax,%ecx
ffffffff8020283f:	83 c1 01             	add    $0x1,%ecx
ffffffff80202842:	89 4d ec             	mov    %ecx,-0x14(%rbp)
ffffffff80202845:	48 c7 c7 35 7d 20 80 	mov    $0xffffffff80207d35,%rdi
ffffffff8020284c:	89 c6                	mov    %eax,%esi
ffffffff8020284e:	e8 fd 36 00 00       	callq  ffffffff80205f50 <ACPITables_FindTable>
ffffffff80202853:	48 89 45 f0          	mov    %rax,-0x10(%rbp)
ffffffff80202857:	e9 a3 fc ff ff       	jmpq   ffffffff802024ff <APIC_Initialize+0xaf>
ffffffff8020285c:	eb 1e                	jmp    ffffffff8020287c <APIC_Initialize+0x42c>
ffffffff8020285e:	b8 ff 00 00 00       	mov    $0xff,%eax
ffffffff80202863:	bf ff 00 00 00       	mov    $0xff,%edi
ffffffff80202868:	89 85 58 ff ff ff    	mov    %eax,-0xa8(%rbp)
ffffffff8020286e:	e8 4d da ff ff       	callq  ffffffff802002c0 <bootstrap_kernel_panic>
ffffffff80202873:	c7 45 fc ff ff ff ff 	movl   $0xffffffff,-0x4(%rbp)
ffffffff8020287a:	eb 07                	jmp    ffffffff80202883 <APIC_Initialize+0x433>
ffffffff8020287c:	c7 45 fc 00 00 00 00 	movl   $0x0,-0x4(%rbp)
ffffffff80202883:	8b 45 fc             	mov    -0x4(%rbp),%eax
ffffffff80202886:	48 81 c4 b0 00 00 00 	add    $0xb0,%rsp
ffffffff8020288d:	5d                   	pop    %rbp
ffffffff8020288e:	c3                   	retq
ffffffff8020288f:	90                   	nop

ffffffff80202890 <MemMan_Initialize>:
ffffffff80202890:	55                   	push   %rbp
ffffffff80202891:	48 89 e5             	mov    %rsp,%rbp
ffffffff80202894:	48 83 ec 30          	sub    $0x30,%rsp
ffffffff80202898:	31 c0                	xor    %eax,%eax
ffffffff8020289a:	89 45 f4             	mov    %eax,-0xc(%rbp)
ffffffff8020289d:	e8 0e 35 00 00       	callq  ffffffff80205db0 <GetBootInfo>
ffffffff802028a2:	48 89 45 f8          	mov    %rax,-0x8(%rbp)
ffffffff802028a6:	48 8b 00             	mov    (%rax),%rax
ffffffff802028a9:	48 89 04 25 28 dd 20 	mov    %rax,0xffffffff8020dd28
ffffffff802028b0:	80
ffffffff802028b1:	48 c1 e8 0c          	shr    $0xc,%rax
ffffffff802028b5:	48 89 04 25 30 dd 20 	mov    %rax,0xffffffff8020dd30
ffffffff802028bc:	80
ffffffff802028bd:	48 89 04 25 38 dd 20 	mov    %rax,0xffffffff8020dd38
ffffffff802028c4:	80
ffffffff802028c5:	48 c7 04 25 40 dd 20 	movq   $0x0,0xffffffff8020dd40
ffffffff802028cc:	80 00 00 00 00
ffffffff802028d1:	48 8b 04 25 28 dd 20 	mov    0xffffffff8020dd28,%rax
ffffffff802028d8:	80
ffffffff802028d9:	48 c1 e8 11          	shr    $0x11,%rax
ffffffff802028dd:	89 c1                	mov    %eax,%ecx
ffffffff802028df:	89 0c 25 48 dd 20 80 	mov    %ecx,0xffffffff8020dd48
ffffffff802028e6:	8b 0c 25 48 dd 20 80 	mov    0xffffffff8020dd48,%ecx
ffffffff802028ed:	89 c8                	mov    %ecx,%eax
ffffffff802028ef:	48 c1 e0 02          	shl    $0x2,%rax
ffffffff802028f3:	48 89 c7             	mov    %rax,%rdi
ffffffff802028f6:	e8 d5 31 00 00       	callq  ffffffff80205ad0 <bootstrap_malloc>
ffffffff802028fb:	48 89 04 25 50 dd 20 	mov    %rax,0xffffffff8020dd50
ffffffff80202902:	80
ffffffff80202903:	8b 0c 25 48 dd 20 80 	mov    0xffffffff8020dd48,%ecx
ffffffff8020290a:	89 c9                	mov    %ecx,%ecx
ffffffff8020290c:	89 cf                	mov    %ecx,%edi
ffffffff8020290e:	48 c1 e7 02          	shl    $0x2,%rdi
ffffffff80202912:	31 f6                	xor    %esi,%esi
ffffffff80202914:	48 89 7d e8          	mov    %rdi,-0x18(%rbp)
ffffffff80202918:	48 89 c7             	mov    %rax,%rdi
ffffffff8020291b:	48 8b 55 e8          	mov    -0x18(%rbp),%rdx
ffffffff8020291f:	e8 bc 1d 00 00       	callq  ffffffff802046e0 <memset>
ffffffff80202924:	48 c7 c2 00 00 00 80 	mov    $0xffffffff80000000,%rdx
ffffffff8020292b:	48 c7 c7 00 00 20 80 	mov    $0xffffffff80200000,%rdi
ffffffff80202932:	49 89 f8             	mov    %rdi,%r8
ffffffff80202935:	49 29 d0             	sub    %rdx,%r8
ffffffff80202938:	48 c7 c2 d0 dd 20 81 	mov    $0xffffffff8120ddd0,%rdx
ffffffff8020293f:	48 29 fa             	sub    %rdi,%rdx
ffffffff80202942:	4c 89 c7             	mov    %r8,%rdi
ffffffff80202945:	48 89 d6             	mov    %rdx,%rsi
ffffffff80202948:	48 89 45 e0          	mov    %rax,-0x20(%rbp)
ffffffff8020294c:	e8 2f 00 00 00       	callq  ffffffff80202980 <MemMan_MarkUsed>
ffffffff80202951:	31 c9                	xor    %ecx,%ecx
ffffffff80202953:	89 c8                	mov    %ecx,%eax
ffffffff80202955:	b9 00 00 10 00       	mov    $0x100000,%ecx
ffffffff8020295a:	89 ca                	mov    %ecx,%edx
ffffffff8020295c:	31 c9                	xor    %ecx,%ecx
ffffffff8020295e:	89 cf                	mov    %ecx,%edi
ffffffff80202960:	b9 00 00 10 00       	mov    $0x100000,%ecx
ffffffff80202965:	89 ce                	mov    %ecx,%esi
ffffffff80202967:	48 89 45 d8          	mov    %rax,-0x28(%rbp)
ffffffff8020296b:	48 89 55 d0          	mov    %rdx,-0x30(%rbp)
ffffffff8020296f:	e8 0c 00 00 00       	callq  ffffffff80202980 <MemMan_MarkUsed>
ffffffff80202974:	31 c0                	xor    %eax,%eax
ffffffff80202976:	48 83 c4 30          	add    $0x30,%rsp
ffffffff8020297a:	5d                   	pop    %rbp
ffffffff8020297b:	c3                   	retq
ffffffff8020297c:	0f 1f 40 00          	nopl   0x0(%rax)

ffffffff80202980 <MemMan_MarkUsed>:
ffffffff80202980:	55                   	push   %rbp
ffffffff80202981:	48 89 e5             	mov    %rsp,%rbp
ffffffff80202984:	48 83 ec 20          	sub    $0x20,%rsp
ffffffff80202988:	48 89 7d f8          	mov    %rdi,-0x8(%rbp)
ffffffff8020298c:	48 89 75 f0          	mov    %rsi,-0x10(%rbp)
ffffffff80202990:	48 83 7d f0 00       	cmpq   $0x0,-0x10(%rbp)
ffffffff80202995:	75 02                	jne    ffffffff80202999 <MemMan_MarkUsed+0x19>
ffffffff80202997:	eb 4f                	jmp    ffffffff802029e8 <MemMan_MarkUsed+0x68>
ffffffff80202999:	48 8b 45 f8          	mov    -0x8(%rbp),%rax
ffffffff8020299d:	48 c1 e8 0c          	shr    $0xc,%rax
ffffffff802029a1:	48 c1 e0 0c          	shl    $0xc,%rax
ffffffff802029a5:	48 89 45 f8          	mov    %rax,-0x8(%rbp)
ffffffff802029a9:	48 c7 45 e8 00 00 00 	movq   $0x0,-0x18(%rbp)
ffffffff802029b0:	00
ffffffff802029b1:	48 8b 45 e8          	mov    -0x18(%rbp),%rax
ffffffff802029b5:	48 8b 4d f0          	mov    -0x10(%rbp),%rcx
ffffffff802029b9:	48 c1 e9 0c          	shr    $0xc,%rcx
ffffffff802029bd:	48 39 c8             	cmp    %rcx,%rax
ffffffff802029c0:	73 26                	jae    ffffffff802029e8 <MemMan_MarkUsed+0x68>
ffffffff802029c2:	48 8b 7d f8          	mov    -0x8(%rbp),%rdi
ffffffff802029c6:	e8 25 00 00 00       	callq  ffffffff802029f0 <MemMan_SetPageUsed>
ffffffff802029cb:	48 8b 7d f8          	mov    -0x8(%rbp),%rdi
ffffffff802029cf:	48 81 c7 00 10 00 00 	add    $0x1000,%rdi
ffffffff802029d6:	48 89 7d f8          	mov    %rdi,-0x8(%rbp)
ffffffff802029da:	48 8b 45 e8          	mov    -0x18(%rbp),%rax
ffffffff802029de:	48 83 c0 01          	add    $0x1,%rax
ffffffff802029e2:	48 89 45 e8          	mov    %rax,-0x18(%rbp)
ffffffff802029e6:	eb c9                	jmp    ffffffff802029b1 <MemMan_MarkUsed+0x31>
ffffffff802029e8:	48 83 c4 20          	add    $0x20,%rsp
ffffffff802029ec:	5d                   	pop    %rbp
ffffffff802029ed:	c3                   	retq
ffffffff802029ee:	66 90                	xchg   %ax,%ax

ffffffff802029f0 <MemMan_SetPageUsed>:
ffffffff802029f0:	55                   	push   %rbp
ffffffff802029f1:	48 89 e5             	mov    %rsp,%rbp
ffffffff802029f4:	50                   	push   %rax
ffffffff802029f5:	48 89 7d f8          	mov    %rdi,-0x8(%rbp)
ffffffff802029f9:	48 89 f8             	mov    %rdi,%rax
ffffffff802029fc:	48 c1 e8 0c          	shr    $0xc,%rax
ffffffff80202a00:	88 c1                	mov    %al,%cl
ffffffff80202a02:	ba 01 00 00 00       	mov    $0x1,%edx
ffffffff80202a07:	d3 e2                	shl    %cl,%edx
ffffffff80202a09:	48 c1 ef 11          	shr    $0x11,%rdi
ffffffff80202a0d:	48 8b 04 25 50 dd 20 	mov    0xffffffff8020dd50,%rax
ffffffff80202a14:	80
ffffffff80202a15:	0b 14 b8             	or     (%rax,%rdi,4),%edx
ffffffff80202a18:	89 14 b8             	mov    %edx,(%rax,%rdi,4)
ffffffff80202a1b:	48 83 c4 08          	add    $0x8,%rsp
ffffffff80202a1f:	5d                   	pop    %rbp
ffffffff80202a20:	c3                   	retq
ffffffff80202a21:	0f 1f 44 00 00       	nopl   0x0(%rax,%rax,1)
ffffffff80202a26:	66 2e 0f 1f 84 00 00 	nopw   %cs:0x0(%rax,%rax,1)
ffffffff80202a2d:	00 00 00

ffffffff80202a30 <MemMan_Alloc>:
ffffffff80202a30:	55                   	push   %rbp
ffffffff80202a31:	48 89 e5             	mov    %rsp,%rbp
ffffffff80202a34:	48 83 ec 20          	sub    $0x20,%rsp
ffffffff80202a38:	48 8b 04 25 38 dd 20 	mov    0xffffffff8020dd38,%rax
ffffffff80202a3f:	80
ffffffff80202a40:	48 83 f8 00          	cmp    $0x0,%rax
ffffffff80202a44:	75 0d                	jne    ffffffff80202a53 <MemMan_Alloc+0x23>
ffffffff80202a46:	48 c7 45 f8 00 00 00 	movq   $0x0,-0x8(%rbp)
ffffffff80202a4d:	00
ffffffff80202a4e:	e9 c5 00 00 00       	jmpq   ffffffff80202b18 <MemMan_Alloc+0xe8>
ffffffff80202a53:	eb 00                	jmp    ffffffff80202a55 <MemMan_Alloc+0x25>
ffffffff80202a55:	48 8b 04 25 40 dd 20 	mov    0xffffffff8020dd40,%rax
ffffffff80202a5c:	80
ffffffff80202a5d:	48 8b 0c 25 50 dd 20 	mov    0xffffffff8020dd50,%rcx
ffffffff80202a64:	80
ffffffff80202a65:	83 3c 81 ff          	cmpl   $0xffffffff,(%rcx,%rax,4)
ffffffff80202a69:	75 22                	jne    ffffffff80202a8d <MemMan_Alloc+0x5d>
ffffffff80202a6b:	48 8b 04 25 40 dd 20 	mov    0xffffffff8020dd40,%rax
ffffffff80202a72:	80
ffffffff80202a73:	48 ff c0             	inc    %rax
ffffffff80202a76:	48 8b 0c 25 30 dd 20 	mov    0xffffffff8020dd30,%rcx
ffffffff80202a7d:	80
ffffffff80202a7e:	31 d2                	xor    %edx,%edx
ffffffff80202a80:	48 f7 f1             	div    %rcx
ffffffff80202a83:	48 89 14 25 40 dd 20 	mov    %rdx,0xffffffff8020dd40
ffffffff80202a8a:	80
ffffffff80202a8b:	eb c8                	jmp    ffffffff80202a55 <MemMan_Alloc+0x25>
ffffffff80202a8d:	48 8b 04 25 40 dd 20 	mov    0xffffffff8020dd40,%rax
ffffffff80202a94:	80
ffffffff80202a95:	48 8b 0c 25 50 dd 20 	mov    0xffffffff8020dd50,%rcx
ffffffff80202a9c:	80
ffffffff80202a9d:	8b 14 81             	mov    (%rcx,%rax,4),%edx
ffffffff80202aa0:	83 f2 ff             	xor    $0xffffffff,%edx
ffffffff80202aa3:	89 55 f4             	mov    %edx,-0xc(%rbp)
ffffffff80202aa6:	c7 45 f0 00 00 00 00 	movl   $0x0,-0x10(%rbp)
ffffffff80202aad:	83 7d f0 20          	cmpl   $0x20,-0x10(%rbp)
ffffffff80202ab1:	7d 5d                	jge    ffffffff80202b10 <MemMan_Alloc+0xe0>
ffffffff80202ab3:	8b 45 f4             	mov    -0xc(%rbp),%eax
ffffffff80202ab6:	8b 4d f0             	mov    -0x10(%rbp),%ecx
ffffffff80202ab9:	d3 e8                	shr    %cl,%eax
ffffffff80202abb:	83 e0 01             	and    $0x1,%eax
ffffffff80202abe:	83 f8 00             	cmp    $0x0,%eax
ffffffff80202ac1:	74 40                	je     ffffffff80202b03 <MemMan_Alloc+0xd3>
ffffffff80202ac3:	48 8b 04 25 40 dd 20 	mov    0xffffffff8020dd40,%rax
ffffffff80202aca:	80
ffffffff80202acb:	48 c1 e0 11          	shl    $0x11,%rax
ffffffff80202acf:	48 63 4d f0          	movslq -0x10(%rbp),%rcx
ffffffff80202ad3:	48 c1 e1 0c          	shl    $0xc,%rcx
ffffffff80202ad7:	48 01 c8             	add    %rcx,%rax
ffffffff80202ada:	48 89 45 e8          	mov    %rax,-0x18(%rbp)
ffffffff80202ade:	48 89 c7             	mov    %rax,%rdi
ffffffff80202ae1:	e8 0a ff ff ff       	callq  ffffffff802029f0 <MemMan_SetPageUsed>
ffffffff80202ae6:	48 8b 04 25 38 dd 20 	mov    0xffffffff8020dd38,%rax
ffffffff80202aed:	80
ffffffff80202aee:	48 ff c8             	dec    %rax
ffffffff80202af1:	48 89 04 25 38 dd 20 	mov    %rax,0xffffffff8020dd38
ffffffff80202af8:	80
ffffffff80202af9:	48 8b 45 e8          	mov    -0x18(%rbp),%rax
ffffffff80202afd:	48 89 45 f8          	mov    %rax,-0x8(%rbp)
ffffffff80202b01:	eb 15                	jmp    ffffffff80202b18 <MemMan_Alloc+0xe8>
ffffffff80202b03:	eb 00                	jmp    ffffffff80202b05 <MemMan_Alloc+0xd5>
ffffffff80202b05:	8b 45 f0             	mov    -0x10(%rbp),%eax
ffffffff80202b08:	83 c0 01             	add    $0x1,%eax
ffffffff80202b0b:	89 45 f0             	mov    %eax,-0x10(%rbp)
ffffffff80202b0e:	eb 9d                	jmp    ffffffff80202aad <MemMan_Alloc+0x7d>
ffffffff80202b10:	48 c7 45 f8 00 00 00 	movq   $0x0,-0x8(%rbp)
ffffffff80202b17:	00
ffffffff80202b18:	48 8b 45 f8          	mov    -0x8(%rbp),%rax
ffffffff80202b1c:	48 83 c4 20          	add    $0x20,%rsp
ffffffff80202b20:	5d                   	pop    %rbp
ffffffff80202b21:	c3                   	retq
ffffffff80202b22:	0f 1f 40 00          	nopl   0x0(%rax)
ffffffff80202b26:	66 2e 0f 1f 84 00 00 	nopw   %cs:0x0(%rax,%rax,1)
ffffffff80202b2d:	00 00 00

ffffffff80202b30 <MemMan_Free>:
ffffffff80202b30:	55                   	push   %rbp
ffffffff80202b31:	48 89 e5             	mov    %rsp,%rbp
ffffffff80202b34:	48 83 ec 10          	sub    $0x10,%rsp
ffffffff80202b38:	48 89 7d f8          	mov    %rdi,-0x8(%rbp)
ffffffff80202b3c:	48 81 e7 00 f0 ff ff 	and    $0xfffffffffffff000,%rdi
ffffffff80202b43:	48 89 7d f8          	mov    %rdi,-0x8(%rbp)
ffffffff80202b47:	e8 34 00 00 00       	callq  ffffffff80202b80 <MemMan_SetPageFree>
ffffffff80202b4c:	48 8b 3c 25 38 dd 20 	mov    0xffffffff8020dd38,%rdi
ffffffff80202b53:	80
ffffffff80202b54:	48 ff c7             	inc    %rdi
ffffffff80202b57:	48 89 3c 25 38 dd 20 	mov    %rdi,0xffffffff8020dd38
ffffffff80202b5e:	80
ffffffff80202b5f:	48 8b 7d f8          	mov    -0x8(%rbp),%rdi
ffffffff80202b63:	48 c1 ef 11          	shr    $0x11,%rdi
ffffffff80202b67:	48 89 3c 25 40 dd 20 	mov    %rdi,0xffffffff8020dd40
ffffffff80202b6e:	80
ffffffff80202b6f:	48 83 c4 10          	add    $0x10,%rsp
ffffffff80202b73:	5d                   	pop    %rbp
ffffffff80202b74:	c3                   	retq
ffffffff80202b75:	90                   	nop
ffffffff80202b76:	66 2e 0f 1f 84 00 00 	nopw   %cs:0x0(%rax,%rax,1)
ffffffff80202b7d:	00 00 00

ffffffff80202b80 <MemMan_SetPageFree>:
ffffffff80202b80:	55                   	push   %rbp
ffffffff80202b81:	48 89 e5             	mov    %rsp,%rbp
ffffffff80202b84:	50                   	push   %rax
ffffffff80202b85:	48 89 7d f8          	mov    %rdi,-0x8(%rbp)
ffffffff80202b89:	48 89 f8             	mov    %rdi,%rax
ffffffff80202b8c:	48 c1 e8 0c          	shr    $0xc,%rax
ffffffff80202b90:	88 c1                	mov    %al,%cl
ffffffff80202b92:	ba fe ff ff ff       	mov    $0xfffffffe,%edx
ffffffff80202b97:	d3 c2                	rol    %cl,%edx
ffffffff80202b99:	48 c1 ef 11          	shr    $0x11,%rdi
ffffffff80202b9d:	48 8b 04 25 50 dd 20 	mov    0xffffffff8020dd50,%rax
ffffffff80202ba4:	80
ffffffff80202ba5:	23 14 b8             	and    (%rax,%rdi,4),%edx
ffffffff80202ba8:	89 14 b8             	mov    %edx,(%rax,%rdi,4)
ffffffff80202bab:	48 83 c4 08          	add    $0x8,%rsp
ffffffff80202baf:	5d                   	pop    %rbp
ffffffff80202bb0:	c3                   	retq
ffffffff80202bb1:	66 2e 0f 1f 84 00 00 	nopw   %cs:0x0(%rax,%rax,1)
ffffffff80202bb8:	00 00 00
ffffffff80202bbb:	0f 1f 44 00 00       	nopl   0x0(%rax,%rax,1)

ffffffff80202bc0 <VirtMemMan_Initialize>:
ffffffff80202bc0:	55                   	push   %rbp
ffffffff80202bc1:	48 89 e5             	mov    %rsp,%rbp
ffffffff80202bc4:	41 56                	push   %r14
ffffffff80202bc6:	53                   	push   %rbx
ffffffff80202bc7:	48 81 ec f0 01 00 00 	sub    $0x1f0,%rsp
ffffffff80202bce:	48 c7 45 e8 00 00 00 	movq   $0x0,-0x18(%rbp)
ffffffff80202bd5:	00
ffffffff80202bd6:	48 c7 45 e8 06 00 00 	movq   $0x6,-0x18(%rbp)
ffffffff80202bdd:	00
ffffffff80202bde:	48 c7 45 e8 06 04 00 	movq   $0x406,-0x18(%rbp)
ffffffff80202be5:	00
ffffffff80202be6:	48 c7 45 e8 06 04 00 	movq   $0x1000406,-0x18(%rbp)
ffffffff80202bed:	01
ffffffff80202bee:	b8 06 04 00 01       	mov    $0x1000406,%eax
ffffffff80202bf3:	89 c6                	mov    %eax,%esi
ffffffff80202bf5:	bf 77 02 00 00       	mov    $0x277,%edi
ffffffff80202bfa:	e8 e1 f2 ff ff       	callq  ffffffff80201ee0 <wrmsr>
ffffffff80202bff:	e8 2c fe ff ff       	callq  ffffffff80202a30 <MemMan_Alloc>
ffffffff80202c04:	48 89 45 e0          	mov    %rax,-0x20(%rbp)
ffffffff80202c08:	48 89 c7             	mov    %rax,%rdi
ffffffff80202c0b:	e8 a0 e9 ff ff       	callq  ffffffff802015b0 <GetVirtualAddress>
ffffffff80202c10:	48 89 45 e0          	mov    %rax,-0x20(%rbp)
ffffffff80202c14:	b9 00 10 00 00       	mov    $0x1000,%ecx
ffffffff80202c19:	89 ca                	mov    %ecx,%edx
ffffffff80202c1b:	31 f6                	xor    %esi,%esi
ffffffff80202c1d:	48 89 c7             	mov    %rax,%rdi
ffffffff80202c20:	e8 bb 1a 00 00       	callq  ffffffff802046e0 <memset>
ffffffff80202c25:	48 89 45 d0          	mov    %rax,-0x30(%rbp)
ffffffff80202c29:	e8 02 fe ff ff       	callq  ffffffff80202a30 <MemMan_Alloc>
ffffffff80202c2e:	48 89 45 d8          	mov    %rax,-0x28(%rbp)
ffffffff80202c32:	48 89 c7             	mov    %rax,%rdi
ffffffff80202c35:	e8 76 e9 ff ff       	callq  ffffffff802015b0 <GetVirtualAddress>
ffffffff80202c3a:	48 89 45 d8          	mov    %rax,-0x28(%rbp)
ffffffff80202c3e:	48 89 04 25 58 dd 20 	mov    %rax,0xffffffff8020dd58
ffffffff80202c45:	80
ffffffff80202c46:	48 8b 7d d8          	mov    -0x28(%rbp),%rdi
ffffffff80202c4a:	e8 81 e9 ff ff       	callq  ffffffff802015d0 <GetPhysicalAddress>
ffffffff80202c4f:	48 c7 c2 00 00 00 c0 	mov    $0xffffffffc0000000,%rdx
ffffffff80202c56:	b9 00 00 00 40       	mov    $0x40000000,%ecx
ffffffff80202c5b:	89 cf                	mov    %ecx,%edi
ffffffff80202c5d:	b9 01 00 00 00       	mov    $0x1,%ecx
ffffffff80202c62:	31 f6                	xor    %esi,%esi
ffffffff80202c64:	41 b8 07 00 00 00    	mov    $0x7,%r8d
ffffffff80202c6a:	48 83 c8 03          	or     $0x3,%rax
ffffffff80202c6e:	4c 8b 4d e0          	mov    -0x20(%rbp),%r9
ffffffff80202c72:	49 89 81 f8 0f 00 00 	mov    %rax,0xff8(%r9)
ffffffff80202c79:	48 8b 45 e0          	mov    -0x20(%rbp),%rax
ffffffff80202c7d:	49 89 e1             	mov    %rsp,%r9
ffffffff80202c80:	41 c7 01 00 00 00 00 	movl   $0x0,(%r9)
ffffffff80202c87:	41 ba 00 00 00 40    	mov    $0x40000000,%r10d
ffffffff80202c8d:	45 89 d1             	mov    %r10d,%r9d
ffffffff80202c90:	49 c7 c3 00 00 00 c0 	mov    $0xffffffffc0000000,%r11
ffffffff80202c97:	41 ba 01 00 00 00    	mov    $0x1,%r10d
ffffffff80202c9d:	31 db                	xor    %ebx,%ebx
ffffffff80202c9f:	41 be 07 00 00 00    	mov    $0x7,%r14d
ffffffff80202ca5:	48 89 7d c8          	mov    %rdi,-0x38(%rbp)
ffffffff80202ca9:	48 89 c7             	mov    %rax,%rdi
ffffffff80202cac:	89 75 c4             	mov    %esi,-0x3c(%rbp)
ffffffff80202caf:	4c 89 de             	mov    %r11,%rsi
ffffffff80202cb2:	48 89 55 b8          	mov    %rdx,-0x48(%rbp)
ffffffff80202cb6:	4c 89 ca             	mov    %r9,%rdx
ffffffff80202cb9:	89 4d b4             	mov    %ecx,-0x4c(%rbp)
ffffffff80202cbc:	44 89 d1             	mov    %r10d,%ecx
ffffffff80202cbf:	44 89 45 b0          	mov    %r8d,-0x50(%rbp)
ffffffff80202cc3:	41 89 d8             	mov    %ebx,%r8d
ffffffff80202cc6:	45 89 f1             	mov    %r14d,%r9d
ffffffff80202cc9:	e8 22 06 00 00       	callq  ffffffff802032f0 <VirtMemMan_MapHPage>
ffffffff80202cce:	48 c7 c0 00 00 00 80 	mov    $0xffffffff80000000,%rax
ffffffff80202cd5:	31 c9                	xor    %ecx,%ecx
ffffffff80202cd7:	89 ca                	mov    %ecx,%edx
ffffffff80202cd9:	b9 01 00 00 00       	mov    $0x1,%ecx
ffffffff80202cde:	45 31 c0             	xor    %r8d,%r8d
ffffffff80202ce1:	41 b9 07 00 00 00    	mov    $0x7,%r9d
ffffffff80202ce7:	48 8b 7d e0          	mov    -0x20(%rbp),%rdi
ffffffff80202ceb:	48 89 e6             	mov    %rsp,%rsi
ffffffff80202cee:	c7 06 00 00 00 00    	movl   $0x0,(%rsi)
ffffffff80202cf4:	45 31 d2             	xor    %r10d,%r10d
ffffffff80202cf7:	44 89 d6             	mov    %r10d,%esi
ffffffff80202cfa:	49 c7 c3 00 00 00 80 	mov    $0xffffffff80000000,%r11
ffffffff80202d01:	bb 01 00 00 00       	mov    $0x1,%ebx
ffffffff80202d06:	41 be 07 00 00 00    	mov    $0x7,%r14d
ffffffff80202d0c:	48 89 75 a8          	mov    %rsi,-0x58(%rbp)
ffffffff80202d10:	4c 89 de             	mov    %r11,%rsi
ffffffff80202d13:	4c 8b 5d a8          	mov    -0x58(%rbp),%r11
ffffffff80202d17:	48 89 55 a0          	mov    %rdx,-0x60(%rbp)
ffffffff80202d1b:	4c 89 da             	mov    %r11,%rdx
ffffffff80202d1e:	89 4d 9c             	mov    %ecx,-0x64(%rbp)
ffffffff80202d21:	89 d9                	mov    %ebx,%ecx
ffffffff80202d23:	44 89 45 98          	mov    %r8d,-0x68(%rbp)
ffffffff80202d27:	45 89 d0             	mov    %r10d,%r8d
ffffffff80202d2a:	44 89 4d 94          	mov    %r9d,-0x6c(%rbp)
ffffffff80202d2e:	45 89 f1             	mov    %r14d,%r9d
ffffffff80202d31:	48 89 45 88          	mov    %rax,-0x78(%rbp)
ffffffff80202d35:	e8 b6 05 00 00       	callq  ffffffff802032f0 <VirtMemMan_MapHPage>
ffffffff80202d3a:	48 b8 00 00 00 40 ff 	movabs $0xffffffff40000000,%rax
ffffffff80202d41:	ff ff ff
ffffffff80202d44:	b9 00 00 00 c0       	mov    $0xc0000000,%ecx
ffffffff80202d49:	89 ca                	mov    %ecx,%edx
ffffffff80202d4b:	b9 01 00 00 00       	mov    $0x1,%ecx
ffffffff80202d50:	45 31 c0             	xor    %r8d,%r8d
ffffffff80202d53:	41 b9 07 00 00 00    	mov    $0x7,%r9d
ffffffff80202d59:	48 8b 7d e0          	mov    -0x20(%rbp),%rdi
ffffffff80202d5d:	48 89 e6             	mov    %rsp,%rsi
ffffffff80202d60:	c7 06 00 00 00 00    	movl   $0x0,(%rsi)
ffffffff80202d66:	41 ba 00 00 00 c0    	mov    $0xc0000000,%r10d
ffffffff80202d6c:	44 89 d6             	mov    %r10d,%esi
ffffffff80202d6f:	49 bb 00 00 00 40 ff 	movabs $0xffffffff40000000,%r11
ffffffff80202d76:	ff ff ff
ffffffff80202d79:	41 ba 01 00 00 00    	mov    $0x1,%r10d
ffffffff80202d7f:	31 db                	xor    %ebx,%ebx
ffffffff80202d81:	41 be 07 00 00 00    	mov    $0x7,%r14d
ffffffff80202d87:	48 89 75 80          	mov    %rsi,-0x80(%rbp)
ffffffff80202d8b:	4c 89 de             	mov    %r11,%rsi
ffffffff80202d8e:	4c 8b 5d 80          	mov    -0x80(%rbp),%r11
ffffffff80202d92:	48 89 95 78 ff ff ff 	mov    %rdx,-0x88(%rbp)
ffffffff80202d99:	4c 89 da             	mov    %r11,%rdx
ffffffff80202d9c:	89 8d 74 ff ff ff    	mov    %ecx,-0x8c(%rbp)
ffffffff80202da2:	44 89 d1             	mov    %r10d,%ecx
ffffffff80202da5:	44 89 85 70 ff ff ff 	mov    %r8d,-0x90(%rbp)
ffffffff80202dac:	41 89 d8             	mov    %ebx,%r8d
ffffffff80202daf:	44 89 8d 6c ff ff ff 	mov    %r9d,-0x94(%rbp)
ffffffff80202db6:	45 89 f1             	mov    %r14d,%r9d
ffffffff80202db9:	48 89 85 60 ff ff ff 	mov    %rax,-0xa0(%rbp)
ffffffff80202dc0:	e8 2b 05 00 00       	callq  ffffffff802032f0 <VirtMemMan_MapHPage>
ffffffff80202dc5:	48 b8 00 00 00 00 ff 	movabs $0xffffffff00000000,%rax
ffffffff80202dcc:	ff ff ff
ffffffff80202dcf:	b9 00 00 00 80       	mov    $0x80000000,%ecx
ffffffff80202dd4:	89 ca                	mov    %ecx,%edx
ffffffff80202dd6:	b9 01 00 00 00       	mov    $0x1,%ecx
ffffffff80202ddb:	45 31 c0             	xor    %r8d,%r8d
ffffffff80202dde:	41 b9 07 00 00 00    	mov    $0x7,%r9d
ffffffff80202de4:	48 8b 7d e0          	mov    -0x20(%rbp),%rdi
ffffffff80202de8:	48 89 e6             	mov    %rsp,%rsi
ffffffff80202deb:	c7 06 00 00 00 00    	movl   $0x0,(%rsi)
ffffffff80202df1:	41 ba 00 00 00 80    	mov    $0x80000000,%r10d
ffffffff80202df7:	44 89 d6             	mov    %r10d,%esi
ffffffff80202dfa:	49 bb 00 00 00 00 ff 	movabs $0xffffffff00000000,%r11
ffffffff80202e01:	ff ff ff
ffffffff80202e04:	41 ba 01 00 00 00    	mov    $0x1,%r10d
ffffffff80202e0a:	31 db                	xor    %ebx,%ebx
ffffffff80202e0c:	41 be 07 00 00 00    	mov    $0x7,%r14d
ffffffff80202e12:	48 89 b5 58 ff ff ff 	mov    %rsi,-0xa8(%rbp)
ffffffff80202e19:	4c 89 de             	mov    %r11,%rsi
ffffffff80202e1c:	4c 8b 9d 58 ff ff ff 	mov    -0xa8(%rbp),%r11
ffffffff80202e23:	48 89 95 50 ff ff ff 	mov    %rdx,-0xb0(%rbp)
ffffffff80202e2a:	4c 89 da             	mov    %r11,%rdx
ffffffff80202e2d:	89 8d 4c ff ff ff    	mov    %ecx,-0xb4(%rbp)
ffffffff80202e33:	44 89 d1             	mov    %r10d,%ecx
ffffffff80202e36:	44 89 85 48 ff ff ff 	mov    %r8d,-0xb8(%rbp)
ffffffff80202e3d:	41 89 d8             	mov    %ebx,%r8d
ffffffff80202e40:	44 89 8d 44 ff ff ff 	mov    %r9d,-0xbc(%rbp)
ffffffff80202e47:	45 89 f1             	mov    %r14d,%r9d
ffffffff80202e4a:	48 89 85 38 ff ff ff 	mov    %rax,-0xc8(%rbp)
ffffffff80202e51:	e8 9a 04 00 00       	callq  ffffffff802032f0 <VirtMemMan_MapHPage>
ffffffff80202e56:	48 b8 00 00 00 c0 fd 	movabs $0xfffffffdc0000000,%rax
ffffffff80202e5d:	ff ff ff
ffffffff80202e60:	48 ba 00 00 00 c0 01 	movabs $0x1c0000000,%rdx
ffffffff80202e67:	00 00 00
ffffffff80202e6a:	b9 01 00 00 00       	mov    $0x1,%ecx
ffffffff80202e6f:	45 31 c0             	xor    %r8d,%r8d
ffffffff80202e72:	41 b9 07 00 00 00    	mov    $0x7,%r9d
ffffffff80202e78:	48 8b 7d e0          	mov    -0x20(%rbp),%rdi
ffffffff80202e7c:	48 89 e6             	mov    %rsp,%rsi
ffffffff80202e7f:	c7 06 00 00 00 00    	movl   $0x0,(%rsi)
ffffffff80202e85:	48 be 00 00 00 c0 fd 	movabs $0xfffffffdc0000000,%rsi
ffffffff80202e8c:	ff ff ff
ffffffff80202e8f:	49 bb 00 00 00 c0 01 	movabs $0x1c0000000,%r11
ffffffff80202e96:	00 00 00
ffffffff80202e99:	41 ba 01 00 00 00    	mov    $0x1,%r10d
ffffffff80202e9f:	31 db                	xor    %ebx,%ebx
ffffffff80202ea1:	41 be 07 00 00 00    	mov    $0x7,%r14d
ffffffff80202ea7:	48 89 95 30 ff ff ff 	mov    %rdx,-0xd0(%rbp)
ffffffff80202eae:	4c 89 da             	mov    %r11,%rdx
ffffffff80202eb1:	89 8d 2c ff ff ff    	mov    %ecx,-0xd4(%rbp)
ffffffff80202eb7:	44 89 d1             	mov    %r10d,%ecx
ffffffff80202eba:	44 89 85 28 ff ff ff 	mov    %r8d,-0xd8(%rbp)
ffffffff80202ec1:	41 89 d8             	mov    %ebx,%r8d
ffffffff80202ec4:	44 89 8d 24 ff ff ff 	mov    %r9d,-0xdc(%rbp)
ffffffff80202ecb:	45 89 f1             	mov    %r14d,%r9d
ffffffff80202ece:	48 89 85 18 ff ff ff 	mov    %rax,-0xe8(%rbp)
ffffffff80202ed5:	e8 16 04 00 00       	callq  ffffffff802032f0 <VirtMemMan_MapHPage>
ffffffff80202eda:	48 b8 00 00 00 80 fd 	movabs $0xfffffffd80000000,%rax
ffffffff80202ee1:	ff ff ff
ffffffff80202ee4:	48 ba 00 00 00 80 01 	movabs $0x180000000,%rdx
ffffffff80202eeb:	00 00 00
ffffffff80202eee:	b9 01 00 00 00       	mov    $0x1,%ecx
ffffffff80202ef3:	45 31 c0             	xor    %r8d,%r8d
ffffffff80202ef6:	41 b9 07 00 00 00    	mov    $0x7,%r9d
ffffffff80202efc:	48 8b 7d e0          	mov    -0x20(%rbp),%rdi
ffffffff80202f00:	48 89 e6             	mov    %rsp,%rsi
ffffffff80202f03:	c7 06 00 00 00 00    	movl   $0x0,(%rsi)
ffffffff80202f09:	48 be 00 00 00 80 fd 	movabs $0xfffffffd80000000,%rsi
ffffffff80202f10:	ff ff ff
ffffffff80202f13:	49 bb 00 00 00 80 01 	movabs $0x180000000,%r11
ffffffff80202f1a:	00 00 00
ffffffff80202f1d:	41 ba 01 00 00 00    	mov    $0x1,%r10d
ffffffff80202f23:	31 db                	xor    %ebx,%ebx
ffffffff80202f25:	41 be 07 00 00 00    	mov    $0x7,%r14d
ffffffff80202f2b:	48 89 95 10 ff ff ff 	mov    %rdx,-0xf0(%rbp)
ffffffff80202f32:	4c 89 da             	mov    %r11,%rdx
ffffffff80202f35:	89 8d 0c ff ff ff    	mov    %ecx,-0xf4(%rbp)
ffffffff80202f3b:	44 89 d1             	mov    %r10d,%ecx
ffffffff80202f3e:	44 89 85 08 ff ff ff 	mov    %r8d,-0xf8(%rbp)
ffffffff80202f45:	41 89 d8             	mov    %ebx,%r8d
ffffffff80202f48:	44 89 8d 04 ff ff ff 	mov    %r9d,-0xfc(%rbp)
ffffffff80202f4f:	45 89 f1             	mov    %r14d,%r9d
ffffffff80202f52:	48 89 85 f8 fe ff ff 	mov    %rax,-0x108(%rbp)
ffffffff80202f59:	e8 92 03 00 00       	callq  ffffffff802032f0 <VirtMemMan_MapHPage>
ffffffff80202f5e:	48 b8 00 00 00 40 fd 	movabs $0xfffffffd40000000,%rax
ffffffff80202f65:	ff ff ff
ffffffff80202f68:	48 ba 00 00 00 40 01 	movabs $0x140000000,%rdx
ffffffff80202f6f:	00 00 00
ffffffff80202f72:	b9 01 00 00 00       	mov    $0x1,%ecx
ffffffff80202f77:	45 31 c0             	xor    %r8d,%r8d
ffffffff80202f7a:	41 b9 07 00 00 00    	mov    $0x7,%r9d
ffffffff80202f80:	48 8b 7d e0          	mov    -0x20(%rbp),%rdi
ffffffff80202f84:	48 89 e6             	mov    %rsp,%rsi
ffffffff80202f87:	c7 06 00 00 00 00    	movl   $0x0,(%rsi)
ffffffff80202f8d:	48 be 00 00 00 40 fd 	movabs $0xfffffffd40000000,%rsi
ffffffff80202f94:	ff ff ff
ffffffff80202f97:	49 bb 00 00 00 40 01 	movabs $0x140000000,%r11
ffffffff80202f9e:	00 00 00
ffffffff80202fa1:	41 ba 01 00 00 00    	mov    $0x1,%r10d
ffffffff80202fa7:	31 db                	xor    %ebx,%ebx
ffffffff80202fa9:	41 be 07 00 00 00    	mov    $0x7,%r14d
ffffffff80202faf:	48 89 95 f0 fe ff ff 	mov    %rdx,-0x110(%rbp)
ffffffff80202fb6:	4c 89 da             	mov    %r11,%rdx
ffffffff80202fb9:	89 8d ec fe ff ff    	mov    %ecx,-0x114(%rbp)
ffffffff80202fbf:	44 89 d1             	mov    %r10d,%ecx
ffffffff80202fc2:	44 89 85 e8 fe ff ff 	mov    %r8d,-0x118(%rbp)
ffffffff80202fc9:	41 89 d8             	mov    %ebx,%r8d
ffffffff80202fcc:	44 89 8d e4 fe ff ff 	mov    %r9d,-0x11c(%rbp)
ffffffff80202fd3:	45 89 f1             	mov    %r14d,%r9d
ffffffff80202fd6:	48 89 85 d8 fe ff ff 	mov    %rax,-0x128(%rbp)
ffffffff80202fdd:	e8 0e 03 00 00       	callq  ffffffff802032f0 <VirtMemMan_MapHPage>
ffffffff80202fe2:	48 b8 00 00 00 00 fd 	movabs $0xfffffffd00000000,%rax
ffffffff80202fe9:	ff ff ff
ffffffff80202fec:	48 ba 00 00 00 00 01 	movabs $0x100000000,%rdx
ffffffff80202ff3:	00 00 00
ffffffff80202ff6:	b9 01 00 00 00       	mov    $0x1,%ecx
ffffffff80202ffb:	45 31 c0             	xor    %r8d,%r8d
ffffffff80202ffe:	41 b9 07 00 00 00    	mov    $0x7,%r9d
ffffffff80203004:	48 8b 7d e0          	mov    -0x20(%rbp),%rdi
ffffffff80203008:	48 89 e6             	mov    %rsp,%rsi
ffffffff8020300b:	c7 06 00 00 00 00    	movl   $0x0,(%rsi)
ffffffff80203011:	48 be 00 00 00 00 fd 	movabs $0xfffffffd00000000,%rsi
ffffffff80203018:	ff ff ff
ffffffff8020301b:	49 bb 00 00 00 00 01 	movabs $0x100000000,%r11
ffffffff80203022:	00 00 00
ffffffff80203025:	41 ba 01 00 00 00    	mov    $0x1,%r10d
ffffffff8020302b:	31 db                	xor    %ebx,%ebx
ffffffff8020302d:	41 be 07 00 00 00    	mov    $0x7,%r14d
ffffffff80203033:	48 89 95 d0 fe ff ff 	mov    %rdx,-0x130(%rbp)
ffffffff8020303a:	4c 89 da             	mov    %r11,%rdx
ffffffff8020303d:	89 8d cc fe ff ff    	mov    %ecx,-0x134(%rbp)
ffffffff80203043:	44 89 d1             	mov    %r10d,%ecx
ffffffff80203046:	44 89 85 c8 fe ff ff 	mov    %r8d,-0x138(%rbp)
ffffffff8020304d:	41 89 d8             	mov    %ebx,%r8d
ffffffff80203050:	44 89 8d c4 fe ff ff 	mov    %r9d,-0x13c(%rbp)
ffffffff80203057:	45 89 f1             	mov    %r14d,%r9d
ffffffff8020305a:	48 89 85 b8 fe ff ff 	mov    %rax,-0x148(%rbp)
ffffffff80203061:	e8 8a 02 00 00       	callq  ffffffff802032f0 <VirtMemMan_MapHPage>
ffffffff80203066:	48 b8 00 00 00 c0 fe 	movabs $0xfffffffec0000000,%rax
ffffffff8020306d:	ff ff ff
ffffffff80203070:	b9 00 00 00 c0       	mov    $0xc0000000,%ecx
ffffffff80203075:	89 ca                	mov    %ecx,%edx
ffffffff80203077:	b9 01 00 00 00       	mov    $0x1,%ecx
ffffffff8020307c:	45 31 c0             	xor    %r8d,%r8d
ffffffff8020307f:	41 b9 07 00 00 00    	mov    $0x7,%r9d
ffffffff80203085:	48 8b 7d e0          	mov    -0x20(%rbp),%rdi
ffffffff80203089:	48 89 e6             	mov    %rsp,%rsi
ffffffff8020308c:	c7 06 00 00 00 00    	movl   $0x0,(%rsi)
ffffffff80203092:	41 ba 00 00 00 c0    	mov    $0xc0000000,%r10d
ffffffff80203098:	44 89 d6             	mov    %r10d,%esi
ffffffff8020309b:	49 bb 00 00 00 c0 fe 	movabs $0xfffffffec0000000,%r11
ffffffff802030a2:	ff ff ff
ffffffff802030a5:	41 ba 01 00 00 00    	mov    $0x1,%r10d
ffffffff802030ab:	31 db                	xor    %ebx,%ebx
ffffffff802030ad:	41 be 07 00 00 00    	mov    $0x7,%r14d
ffffffff802030b3:	48 89 b5 b0 fe ff ff 	mov    %rsi,-0x150(%rbp)
ffffffff802030ba:	4c 89 de             	mov    %r11,%rsi
ffffffff802030bd:	4c 8b 9d b0 fe ff ff 	mov    -0x150(%rbp),%r11
ffffffff802030c4:	48 89 95 a8 fe ff ff 	mov    %rdx,-0x158(%rbp)
ffffffff802030cb:	4c 89 da             	mov    %r11,%rdx
ffffffff802030ce:	89 8d a4 fe ff ff    	mov    %ecx,-0x15c(%rbp)
ffffffff802030d4:	44 89 d1             	mov    %r10d,%ecx
ffffffff802030d7:	44 89 85 a0 fe ff ff 	mov    %r8d,-0x160(%rbp)
ffffffff802030de:	41 89 d8             	mov    %ebx,%r8d
ffffffff802030e1:	44 89 8d 9c fe ff ff 	mov    %r9d,-0x164(%rbp)
ffffffff802030e8:	45 89 f1             	mov    %r14d,%r9d
ffffffff802030eb:	48 89 85 90 fe ff ff 	mov    %rax,-0x170(%rbp)
ffffffff802030f2:	e8 f9 01 00 00       	callq  ffffffff802032f0 <VirtMemMan_MapHPage>
ffffffff802030f7:	48 b8 00 00 00 80 fe 	movabs $0xfffffffe80000000,%rax
ffffffff802030fe:	ff ff ff
ffffffff80203101:	b9 00 00 00 80       	mov    $0x80000000,%ecx
ffffffff80203106:	89 ca                	mov    %ecx,%edx
ffffffff80203108:	b9 01 00 00 00       	mov    $0x1,%ecx
ffffffff8020310d:	45 31 c0             	xor    %r8d,%r8d
ffffffff80203110:	41 b9 07 00 00 00    	mov    $0x7,%r9d
ffffffff80203116:	48 8b 7d e0          	mov    -0x20(%rbp),%rdi
ffffffff8020311a:	48 89 e6             	mov    %rsp,%rsi
ffffffff8020311d:	c7 06 00 00 00 00    	movl   $0x0,(%rsi)
ffffffff80203123:	41 ba 00 00 00 80    	mov    $0x80000000,%r10d
ffffffff80203129:	44 89 d6             	mov    %r10d,%esi
ffffffff8020312c:	49 bb 00 00 00 80 fe 	movabs $0xfffffffe80000000,%r11
ffffffff80203133:	ff ff ff
ffffffff80203136:	41 ba 01 00 00 00    	mov    $0x1,%r10d
ffffffff8020313c:	31 db                	xor    %ebx,%ebx
ffffffff8020313e:	41 be 07 00 00 00    	mov    $0x7,%r14d
ffffffff80203144:	48 89 b5 88 fe ff ff 	mov    %rsi,-0x178(%rbp)
ffffffff8020314b:	4c 89 de             	mov    %r11,%rsi
ffffffff8020314e:	4c 8b 9d 88 fe ff ff 	mov    -0x178(%rbp),%r11
ffffffff80203155:	48 89 95 80 fe ff ff 	mov    %rdx,-0x180(%rbp)
ffffffff8020315c:	4c 89 da             	mov    %r11,%rdx
ffffffff8020315f:	89 8d 7c fe ff ff    	mov    %ecx,-0x184(%rbp)
ffffffff80203165:	44 89 d1             	mov    %r10d,%ecx
ffffffff80203168:	44 89 85 78 fe ff ff 	mov    %r8d,-0x188(%rbp)
ffffffff8020316f:	41 89 d8             	mov    %ebx,%r8d
ffffffff80203172:	44 89 8d 74 fe ff ff 	mov    %r9d,-0x18c(%rbp)
ffffffff80203179:	45 89 f1             	mov    %r14d,%r9d
ffffffff8020317c:	48 89 85 68 fe ff ff 	mov    %rax,-0x198(%rbp)
ffffffff80203183:	e8 68 01 00 00       	callq  ffffffff802032f0 <VirtMemMan_MapHPage>
ffffffff80203188:	48 b8 00 00 00 40 fe 	movabs $0xfffffffe40000000,%rax
ffffffff8020318f:	ff ff ff
ffffffff80203192:	b9 00 00 00 40       	mov    $0x40000000,%ecx
ffffffff80203197:	89 ca                	mov    %ecx,%edx
ffffffff80203199:	b9 01 00 00 00       	mov    $0x1,%ecx
ffffffff8020319e:	45 31 c0             	xor    %r8d,%r8d
ffffffff802031a1:	41 b9 07 00 00 00    	mov    $0x7,%r9d
ffffffff802031a7:	48 8b 7d e0          	mov    -0x20(%rbp),%rdi
ffffffff802031ab:	48 89 e6             	mov    %rsp,%rsi
ffffffff802031ae:	c7 06 00 00 00 00    	movl   $0x0,(%rsi)
ffffffff802031b4:	41 ba 00 00 00 40    	mov    $0x40000000,%r10d
ffffffff802031ba:	44 89 d6             	mov    %r10d,%esi
ffffffff802031bd:	49 bb 00 00 00 40 fe 	movabs $0xfffffffe40000000,%r11
ffffffff802031c4:	ff ff ff
ffffffff802031c7:	41 ba 01 00 00 00    	mov    $0x1,%r10d
ffffffff802031cd:	31 db                	xor    %ebx,%ebx
ffffffff802031cf:	41 be 07 00 00 00    	mov    $0x7,%r14d
ffffffff802031d5:	48 89 b5 60 fe ff ff 	mov    %rsi,-0x1a0(%rbp)
ffffffff802031dc:	4c 89 de             	mov    %r11,%rsi
ffffffff802031df:	4c 8b 9d 60 fe ff ff 	mov    -0x1a0(%rbp),%r11
ffffffff802031e6:	48 89 95 58 fe ff ff 	mov    %rdx,-0x1a8(%rbp)
ffffffff802031ed:	4c 89 da             	mov    %r11,%rdx
ffffffff802031f0:	89 8d 54 fe ff ff    	mov    %ecx,-0x1ac(%rbp)
ffffffff802031f6:	44 89 d1             	mov    %r10d,%ecx
ffffffff802031f9:	44 89 85 50 fe ff ff 	mov    %r8d,-0x1b0(%rbp)
ffffffff80203200:	41 89 d8             	mov    %ebx,%r8d
ffffffff80203203:	44 89 8d 4c fe ff ff 	mov    %r9d,-0x1b4(%rbp)
ffffffff8020320a:	45 89 f1             	mov    %r14d,%r9d
ffffffff8020320d:	48 89 85 40 fe ff ff 	mov    %rax,-0x1c0(%rbp)
ffffffff80203214:	e8 d7 00 00 00       	callq  ffffffff802032f0 <VirtMemMan_MapHPage>
ffffffff80203219:	48 b8 00 00 00 00 fe 	movabs $0xfffffffe00000000,%rax
ffffffff80203220:	ff ff ff
ffffffff80203223:	31 c9                	xor    %ecx,%ecx
ffffffff80203225:	89 ca                	mov    %ecx,%edx
ffffffff80203227:	b9 01 00 00 00       	mov    $0x1,%ecx
ffffffff8020322c:	45 31 c0             	xor    %r8d,%r8d
ffffffff8020322f:	41 b9 07 00 00 00    	mov    $0x7,%r9d
ffffffff80203235:	48 8b 7d e0          	mov    -0x20(%rbp),%rdi
ffffffff80203239:	48 89 e6             	mov    %rsp,%rsi
ffffffff8020323c:	c7 06 00 00 00 00    	movl   $0x0,(%rsi)
ffffffff80203242:	45 31 d2             	xor    %r10d,%r10d
ffffffff80203245:	44 89 d6             	mov    %r10d,%esi
ffffffff80203248:	49 bb 00 00 00 00 fe 	movabs $0xfffffffe00000000,%r11
ffffffff8020324f:	ff ff ff
ffffffff80203252:	bb 01 00 00 00       	mov    $0x1,%ebx
ffffffff80203257:	41 be 07 00 00 00    	mov    $0x7,%r14d
ffffffff8020325d:	48 89 b5 38 fe ff ff 	mov    %rsi,-0x1c8(%rbp)
ffffffff80203264:	4c 89 de             	mov    %r11,%rsi
ffffffff80203267:	4c 8b 9d 38 fe ff ff 	mov    -0x1c8(%rbp),%r11
ffffffff8020326e:	48 89 95 30 fe ff ff 	mov    %rdx,-0x1d0(%rbp)
ffffffff80203275:	4c 89 da             	mov    %r11,%rdx
ffffffff80203278:	89 8d 2c fe ff ff    	mov    %ecx,-0x1d4(%rbp)
ffffffff8020327e:	89 d9                	mov    %ebx,%ecx
ffffffff80203280:	44 89 85 28 fe ff ff 	mov    %r8d,-0x1d8(%rbp)
ffffffff80203287:	45 89 d0             	mov    %r10d,%r8d
ffffffff8020328a:	44 89 8d 24 fe ff ff 	mov    %r9d,-0x1dc(%rbp)
ffffffff80203291:	45 89 f1             	mov    %r14d,%r9d
ffffffff80203294:	48 89 85 18 fe ff ff 	mov    %rax,-0x1e8(%rbp)
ffffffff8020329b:	e8 50 00 00 00       	callq  ffffffff802032f0 <VirtMemMan_MapHPage>
ffffffff802032a0:	48 8b 7d e0          	mov    -0x20(%rbp),%rdi
ffffffff802032a4:	e8 07 02 00 00       	callq  ffffffff802034b0 <VirtMemMan_SetCurrent>
ffffffff802032a9:	b9 80 00 00 c0       	mov    $0xc0000080,%ecx
ffffffff802032ae:	bf 80 00 00 c0       	mov    $0xc0000080,%edi
ffffffff802032b3:	48 89 85 10 fe ff ff 	mov    %rax,-0x1f0(%rbp)
ffffffff802032ba:	89 8d 0c fe ff ff    	mov    %ecx,-0x1f4(%rbp)
ffffffff802032c0:	e8 5b ec ff ff       	callq  ffffffff80201f20 <rdmsr>
ffffffff802032c5:	b9 80 00 00 c0       	mov    $0xc0000080,%ecx
ffffffff802032ca:	48 0d 00 08 00 00    	or     $0x800,%rax
ffffffff802032d0:	bf 80 00 00 c0       	mov    $0xc0000080,%edi
ffffffff802032d5:	48 89 c6             	mov    %rax,%rsi
ffffffff802032d8:	89 8d 08 fe ff ff    	mov    %ecx,-0x1f8(%rbp)
ffffffff802032de:	e8 fd eb ff ff       	callq  ffffffff80201ee0 <wrmsr>
ffffffff802032e3:	48 81 c4 f0 01 00 00 	add    $0x1f0,%rsp
ffffffff802032ea:	5b                   	pop    %rbx
ffffffff802032eb:	41 5e                	pop    %r14
ffffffff802032ed:	5d                   	pop    %rbp
ffffffff802032ee:	c3                   	retq
ffffffff802032ef:	90                   	nop

ffffffff802032f0 <VirtMemMan_MapHPage>:
ffffffff802032f0:	55                   	push   %rbp
ffffffff802032f1:	48 89 e5             	mov    %rsp,%rbp
ffffffff802032f4:	48 83 ec 40          	sub    $0x40,%rsp
ffffffff802032f8:	88 c8                	mov    %cl,%al
ffffffff802032fa:	8b 4d 10             	mov    0x10(%rbp),%ecx
ffffffff802032fd:	48 89 7d f8          	mov    %rdi,-0x8(%rbp)
ffffffff80203301:	48 89 75 f0          	mov    %rsi,-0x10(%rbp)
ffffffff80203305:	48 89 55 e8          	mov    %rdx,-0x18(%rbp)
ffffffff80203309:	88 45 e7             	mov    %al,-0x19(%rbp)
ffffffff8020330c:	44 89 45 e0          	mov    %r8d,-0x20(%rbp)
ffffffff80203310:	44 89 4d dc          	mov    %r9d,-0x24(%rbp)
ffffffff80203314:	89 4d d8             	mov    %ecx,-0x28(%rbp)
ffffffff80203317:	48 8b 55 e8          	mov    -0x18(%rbp),%rdx
ffffffff8020331b:	48 c1 ea 1e          	shr    $0x1e,%rdx
ffffffff8020331f:	48 c1 e2 1e          	shl    $0x1e,%rdx
ffffffff80203323:	48 89 55 e8          	mov    %rdx,-0x18(%rbp)
ffffffff80203327:	48 8b 55 f0          	mov    -0x10(%rbp),%rdx
ffffffff8020332b:	48 c1 ea 27          	shr    $0x27,%rdx
ffffffff8020332f:	48 81 e2 ff 01 00 00 	and    $0x1ff,%rdx
ffffffff80203336:	89 d1                	mov    %edx,%ecx
ffffffff80203338:	89 4d d4             	mov    %ecx,-0x2c(%rbp)
ffffffff8020333b:	48 8b 55 f0          	mov    -0x10(%rbp),%rdx
ffffffff8020333f:	48 c1 ea 1e          	shr    $0x1e,%rdx
ffffffff80203343:	48 81 e2 ff 01 00 00 	and    $0x1ff,%rdx
ffffffff8020334a:	89 d1                	mov    %edx,%ecx
ffffffff8020334c:	89 4d d0             	mov    %ecx,-0x30(%rbp)
ffffffff8020334f:	48 8b 7d f8          	mov    -0x8(%rbp),%rdi
ffffffff80203353:	8b 75 d4             	mov    -0x2c(%rbp),%esi
ffffffff80203356:	e8 55 02 00 00       	callq  ffffffff802035b0 <VirtMemMan_SetupPDPTEntry>
ffffffff8020335b:	8b 4d d4             	mov    -0x2c(%rbp),%ecx
ffffffff8020335e:	89 ca                	mov    %ecx,%edx
ffffffff80203360:	48 8b 7d f8          	mov    -0x8(%rbp),%rdi
ffffffff80203364:	49 ba 00 f0 ff ff ff 	movabs $0xffffffffffff000,%r10
ffffffff8020336b:	ff ff 0f
ffffffff8020336e:	4c 23 14 d7          	and    (%rdi,%rdx,8),%r10
ffffffff80203372:	4c 89 d7             	mov    %r10,%rdi
ffffffff80203375:	e8 36 e2 ff ff       	callq  ffffffff802015b0 <GetVirtualAddress>
ffffffff8020337a:	48 89 45 c8          	mov    %rax,-0x38(%rbp)
ffffffff8020337e:	48 8b 45 e8          	mov    -0x18(%rbp),%rax
ffffffff80203382:	8b 4d d0             	mov    -0x30(%rbp),%ecx
ffffffff80203385:	89 ca                	mov    %ecx,%edx
ffffffff80203387:	48 8b 7d c8          	mov    -0x38(%rbp),%rdi
ffffffff8020338b:	48 89 04 d7          	mov    %rax,(%rdi,%rdx,8)
ffffffff8020338f:	80 7d e7 00          	cmpb   $0x0,-0x19(%rbp)
ffffffff80203393:	74 1e                	je     ffffffff802033b3 <VirtMemMan_MapHPage+0xc3>
ffffffff80203395:	8b 45 d0             	mov    -0x30(%rbp),%eax
ffffffff80203398:	89 c1                	mov    %eax,%ecx
ffffffff8020339a:	48 8b 55 c8          	mov    -0x38(%rbp),%rdx
ffffffff8020339e:	48 8b 0c ca          	mov    (%rdx,%rcx,8),%rcx
ffffffff802033a2:	48 83 c9 01          	or     $0x1,%rcx
ffffffff802033a6:	8b 45 d0             	mov    -0x30(%rbp),%eax
ffffffff802033a9:	89 c2                	mov    %eax,%edx
ffffffff802033ab:	48 8b 75 c8          	mov    -0x38(%rbp),%rsi
ffffffff802033af:	48 89 0c d6          	mov    %rcx,(%rsi,%rdx,8)
ffffffff802033b3:	8b 45 d0             	mov    -0x30(%rbp),%eax
ffffffff802033b6:	89 c1                	mov    %eax,%ecx
ffffffff802033b8:	48 8b 55 c8          	mov    -0x38(%rbp),%rdx
ffffffff802033bc:	48 8b 0c ca          	mov    (%rdx,%rcx,8),%rcx
ffffffff802033c0:	48 81 c9 80 00 00 00 	or     $0x80,%rcx
ffffffff802033c7:	8b 45 d0             	mov    -0x30(%rbp),%eax
ffffffff802033ca:	89 c2                	mov    %eax,%edx
ffffffff802033cc:	48 8b 75 c8          	mov    -0x38(%rbp),%rsi
ffffffff802033d0:	48 89 0c d6          	mov    %rcx,(%rsi,%rdx,8)
ffffffff802033d4:	8b 45 d0             	mov    -0x30(%rbp),%eax
ffffffff802033d7:	89 c1                	mov    %eax,%ecx
ffffffff802033d9:	48 8b 55 c8          	mov    -0x38(%rbp),%rdx
ffffffff802033dd:	48 8b 0c ca          	mov    (%rdx,%rcx,8),%rcx
ffffffff802033e1:	8b 45 e0             	mov    -0x20(%rbp),%eax
ffffffff802033e4:	c1 e0 03             	shl    $0x3,%eax
ffffffff802033e7:	89 c0                	mov    %eax,%eax
ffffffff802033e9:	89 c2                	mov    %eax,%edx
ffffffff802033eb:	48 09 d1             	or     %rdx,%rcx
ffffffff802033ee:	8b 45 d0             	mov    -0x30(%rbp),%eax
ffffffff802033f1:	89 c2                	mov    %eax,%edx
ffffffff802033f3:	48 8b 75 c8          	mov    -0x38(%rbp),%rsi
ffffffff802033f7:	48 89 0c d6          	mov    %rcx,(%rsi,%rdx,8)
ffffffff802033fb:	8b 45 dc             	mov    -0x24(%rbp),%eax
ffffffff802033fe:	83 e0 02             	and    $0x2,%eax
ffffffff80203401:	83 f8 00             	cmp    $0x0,%eax
ffffffff80203404:	74 1e                	je     ffffffff80203424 <VirtMemMan_MapHPage+0x134>
ffffffff80203406:	8b 45 d0             	mov    -0x30(%rbp),%eax
ffffffff80203409:	89 c1                	mov    %eax,%ecx
ffffffff8020340b:	48 8b 55 c8          	mov    -0x38(%rbp),%rdx
ffffffff8020340f:	48 8b 0c ca          	mov    (%rdx,%rcx,8),%rcx
ffffffff80203413:	48 83 c9 02          	or     $0x2,%rcx
ffffffff80203417:	8b 45 d0             	mov    -0x30(%rbp),%eax
ffffffff8020341a:	89 c2                	mov    %eax,%edx
ffffffff8020341c:	48 8b 75 c8          	mov    -0x38(%rbp),%rsi
ffffffff80203420:	48 89 0c d6          	mov    %rcx,(%rsi,%rdx,8)
ffffffff80203424:	8b 45 dc             	mov    -0x24(%rbp),%eax
ffffffff80203427:	83 e0 01             	and    $0x1,%eax
ffffffff8020342a:	83 f8 00             	cmp    $0x0,%eax
ffffffff8020342d:	74 26                	je     ffffffff80203455 <VirtMemMan_MapHPage+0x165>
ffffffff8020342f:	8b 45 d0             	mov    -0x30(%rbp),%eax
ffffffff80203432:	89 c1                	mov    %eax,%ecx
ffffffff80203434:	48 8b 55 c8          	mov    -0x38(%rbp),%rdx
ffffffff80203438:	48 be ff ff ff ff ff 	movabs $0x7fffffffffffffff,%rsi
ffffffff8020343f:	ff ff 7f
ffffffff80203442:	48 23 34 ca          	and    (%rdx,%rcx,8),%rsi
ffffffff80203446:	8b 45 d0             	mov    -0x30(%rbp),%eax
ffffffff80203449:	89 c1                	mov    %eax,%ecx
ffffffff8020344b:	48 8b 55 c8          	mov    -0x38(%rbp),%rdx
ffffffff8020344f:	48 89 34 ca          	mov    %rsi,(%rdx,%rcx,8)
ffffffff80203453:	eb 24                	jmp    ffffffff80203479 <VirtMemMan_MapHPage+0x189>
ffffffff80203455:	8b 45 d0             	mov    -0x30(%rbp),%eax
ffffffff80203458:	89 c1                	mov    %eax,%ecx
ffffffff8020345a:	48 8b 55 c8          	mov    -0x38(%rbp),%rdx
ffffffff8020345e:	48 be 00 00 00 00 00 	movabs $0x8000000000000000,%rsi
ffffffff80203465:	00 00 80
ffffffff80203468:	48 0b 34 ca          	or     (%rdx,%rcx,8),%rsi
ffffffff8020346c:	8b 45 d0             	mov    -0x30(%rbp),%eax
ffffffff8020346f:	89 c1                	mov    %eax,%ecx
ffffffff80203471:	48 8b 55 c8          	mov    -0x38(%rbp),%rdx
ffffffff80203475:	48 89 34 ca          	mov    %rsi,(%rdx,%rcx,8)
ffffffff80203479:	8b 45 d8             	mov    -0x28(%rbp),%eax
ffffffff8020347c:	83 e0 01             	and    $0x1,%eax
ffffffff8020347f:	83 f8 00             	cmp    $0x0,%eax
ffffffff80203482:	74 1e                	je     ffffffff802034a2 <VirtMemMan_MapHPage+0x1b2>
ffffffff80203484:	8b 45 d0             	mov    -0x30(%rbp),%eax
ffffffff80203487:	89 c1                	mov    %eax,%ecx
ffffffff80203489:	48 8b 55 c8          	mov    -0x38(%rbp),%rdx
ffffffff8020348d:	48 8b 0c ca          	mov    (%rdx,%rcx,8),%rcx
ffffffff80203491:	48 83 c9 04          	or     $0x4,%rcx
ffffffff80203495:	8b 45 d0             	mov    -0x30(%rbp),%eax
ffffffff80203498:	89 c2                	mov    %eax,%edx
ffffffff8020349a:	48 8b 75 c8          	mov    -0x38(%rbp),%rsi
ffffffff8020349e:	48 89 0c d6          	mov    %rcx,(%rsi,%rdx,8)
ffffffff802034a2:	48 8b 45 f0          	mov    -0x10(%rbp),%rax
ffffffff802034a6:	0f 01 38             	invlpg (%rax)
ffffffff802034a9:	48 83 c4 40          	add    $0x40,%rsp
ffffffff802034ad:	5d                   	pop    %rbp
ffffffff802034ae:	c3                   	retq
ffffffff802034af:	90                   	nop

ffffffff802034b0 <VirtMemMan_SetCurrent>:
ffffffff802034b0:	55                   	push   %rbp
ffffffff802034b1:	48 89 e5             	mov    %rsp,%rbp
ffffffff802034b4:	48 83 ec 10          	sub    $0x10,%rsp
ffffffff802034b8:	48 89 7d f8          	mov    %rdi,-0x8(%rbp)
ffffffff802034bc:	48 8b 3c 25 e8 84 20 	mov    0xffffffff802084e8,%rdi
ffffffff802034c3:	80
ffffffff802034c4:	48 89 7d f0          	mov    %rdi,-0x10(%rbp)
ffffffff802034c8:	48 8b 7d f8          	mov    -0x8(%rbp),%rdi
ffffffff802034cc:	48 89 3c 25 e8 84 20 	mov    %rdi,0xffffffff802084e8
ffffffff802034d3:	80
ffffffff802034d4:	48 8b 7d f8          	mov    -0x8(%rbp),%rdi
ffffffff802034d8:	e8 f3 e0 ff ff       	callq  ffffffff802015d0 <GetPhysicalAddress>
ffffffff802034dd:	0f 22 d8             	mov    %rax,%cr3
ffffffff802034e0:	48 8b 45 f0          	mov    -0x10(%rbp),%rax
ffffffff802034e4:	48 83 c4 10          	add    $0x10,%rsp
ffffffff802034e8:	5d                   	pop    %rbp
ffffffff802034e9:	c3                   	retq
ffffffff802034ea:	66 0f 1f 44 00 00    	nopw   0x0(%rax,%rax,1)

ffffffff802034f0 <VirtMemMan_CreateInstance>:
ffffffff802034f0:	55                   	push   %rbp
ffffffff802034f1:	48 89 e5             	mov    %rsp,%rbp
ffffffff802034f4:	48 83 ec 10          	sub    $0x10,%rsp
ffffffff802034f8:	e8 33 f5 ff ff       	callq  ffffffff80202a30 <MemMan_Alloc>
ffffffff802034fd:	48 89 45 f8          	mov    %rax,-0x8(%rbp)
ffffffff80203501:	48 89 c7             	mov    %rax,%rdi
ffffffff80203504:	e8 a7 e0 ff ff       	callq  ffffffff802015b0 <GetVirtualAddress>
ffffffff80203509:	48 89 45 f8          	mov    %rax,-0x8(%rbp)
ffffffff8020350d:	b9 00 10 00 00       	mov    $0x1000,%ecx
ffffffff80203512:	89 ca                	mov    %ecx,%edx
ffffffff80203514:	31 f6                	xor    %esi,%esi
ffffffff80203516:	48 89 c7             	mov    %rax,%rdi
ffffffff80203519:	e8 c2 11 00 00       	callq  ffffffff802046e0 <memset>
ffffffff8020351e:	48 8b 14 25 58 dd 20 	mov    0xffffffff8020dd58,%rdx
ffffffff80203525:	80
ffffffff80203526:	48 89 d7             	mov    %rdx,%rdi
ffffffff80203529:	48 89 45 f0          	mov    %rax,-0x10(%rbp)
ffffffff8020352d:	e8 9e e0 ff ff       	callq  ffffffff802015d0 <GetPhysicalAddress>
ffffffff80203532:	48 8b 55 f8          	mov    -0x8(%rbp),%rdx
ffffffff80203536:	48 89 82 f8 0f 00 00 	mov    %rax,0xff8(%rdx)
ffffffff8020353d:	48 8b 45 f8          	mov    -0x8(%rbp),%rax
ffffffff80203541:	48 8b 80 f8 0f 00 00 	mov    0xff8(%rax),%rax
ffffffff80203548:	48 83 c8 01          	or     $0x1,%rax
ffffffff8020354c:	48 8b 55 f8          	mov    -0x8(%rbp),%rdx
ffffffff80203550:	48 89 82 f8 0f 00 00 	mov    %rax,0xff8(%rdx)
ffffffff80203557:	48 8b 45 f8          	mov    -0x8(%rbp),%rax
ffffffff8020355b:	48 8b 80 f8 0f 00 00 	mov    0xff8(%rax),%rax
ffffffff80203562:	48 83 c8 02          	or     $0x2,%rax
ffffffff80203566:	48 8b 55 f8          	mov    -0x8(%rbp),%rdx
ffffffff8020356a:	48 89 82 f8 0f 00 00 	mov    %rax,0xff8(%rdx)
ffffffff80203571:	48 8b 45 f8          	mov    -0x8(%rbp),%rax
ffffffff80203575:	48 8b 80 f8 0f 00 00 	mov    0xff8(%rax),%rax
ffffffff8020357c:	48 8b 55 f8          	mov    -0x8(%rbp),%rdx
ffffffff80203580:	48 89 82 f8 0f 00 00 	mov    %rax,0xff8(%rdx)
ffffffff80203587:	48 8b 45 f8          	mov    -0x8(%rbp),%rax
ffffffff8020358b:	48 83 c4 10          	add    $0x10,%rsp
ffffffff8020358f:	5d                   	pop    %rbp
ffffffff80203590:	c3                   	retq
ffffffff80203591:	0f 1f 44 00 00       	nopl   0x0(%rax,%rax,1)
ffffffff80203596:	66 2e 0f 1f 84 00 00 	nopw   %cs:0x0(%rax,%rax,1)
ffffffff8020359d:	00 00 00

ffffffff802035a0 <VirtMemMan_GetCurrent>:
ffffffff802035a0:	55                   	push   %rbp
ffffffff802035a1:	48 89 e5             	mov    %rsp,%rbp
ffffffff802035a4:	48 8b 04 25 e8 84 20 	mov    0xffffffff802084e8,%rax
ffffffff802035ab:	80
ffffffff802035ac:	5d                   	pop    %rbp
ffffffff802035ad:	c3                   	retq
ffffffff802035ae:	66 90                	xchg   %ax,%ax

ffffffff802035b0 <VirtMemMan_SetupPDPTEntry>:
ffffffff802035b0:	55                   	push   %rbp
ffffffff802035b1:	48 89 e5             	mov    %rsp,%rbp
ffffffff802035b4:	48 83 ec 10          	sub    $0x10,%rsp
ffffffff802035b8:	48 89 7d f8          	mov    %rdi,-0x8(%rbp)
ffffffff802035bc:	89 75 f4             	mov    %esi,-0xc(%rbp)
ffffffff802035bf:	8b 75 f4             	mov    -0xc(%rbp),%esi
ffffffff802035c2:	89 f7                	mov    %esi,%edi
ffffffff802035c4:	48 8b 45 f8          	mov    -0x8(%rbp),%rax
ffffffff802035c8:	48 b9 00 f0 ff ff ff 	movabs $0xffffffffffff000,%rcx
ffffffff802035cf:	ff ff 0f
ffffffff802035d2:	48 23 0c f8          	and    (%rax,%rdi,8),%rcx
ffffffff802035d6:	48 83 f9 00          	cmp    $0x0,%rcx
ffffffff802035da:	75 68                	jne    ffffffff80203644 <VirtMemMan_SetupPDPTEntry+0x94>
ffffffff802035dc:	e8 4f f4 ff ff       	callq  ffffffff80202a30 <MemMan_Alloc>
ffffffff802035e1:	8b 4d f4             	mov    -0xc(%rbp),%ecx
ffffffff802035e4:	89 ca                	mov    %ecx,%edx
ffffffff802035e6:	48 8b 75 f8          	mov    -0x8(%rbp),%rsi
ffffffff802035ea:	48 89 04 d6          	mov    %rax,(%rsi,%rdx,8)
ffffffff802035ee:	8b 4d f4             	mov    -0xc(%rbp),%ecx
ffffffff802035f1:	89 c8                	mov    %ecx,%eax
ffffffff802035f3:	48 8b 55 f8          	mov    -0x8(%rbp),%rdx
ffffffff802035f7:	48 8b 04 c2          	mov    (%rdx,%rax,8),%rax
ffffffff802035fb:	48 83 c8 01          	or     $0x1,%rax
ffffffff802035ff:	8b 4d f4             	mov    -0xc(%rbp),%ecx
ffffffff80203602:	89 ca                	mov    %ecx,%edx
ffffffff80203604:	48 8b 75 f8          	mov    -0x8(%rbp),%rsi
ffffffff80203608:	48 89 04 d6          	mov    %rax,(%rsi,%rdx,8)
ffffffff8020360c:	8b 4d f4             	mov    -0xc(%rbp),%ecx
ffffffff8020360f:	89 c8                	mov    %ecx,%eax
ffffffff80203611:	48 8b 55 f8          	mov    -0x8(%rbp),%rdx
ffffffff80203615:	48 8b 04 c2          	mov    (%rdx,%rax,8),%rax
ffffffff80203619:	48 83 c8 02          	or     $0x2,%rax
ffffffff8020361d:	8b 4d f4             	mov    -0xc(%rbp),%ecx
ffffffff80203620:	89 ca                	mov    %ecx,%edx
ffffffff80203622:	48 8b 75 f8          	mov    -0x8(%rbp),%rsi
ffffffff80203626:	48 89 04 d6          	mov    %rax,(%rsi,%rdx,8)
ffffffff8020362a:	8b 4d f4             	mov    -0xc(%rbp),%ecx
ffffffff8020362d:	89 c8                	mov    %ecx,%eax
ffffffff8020362f:	48 8b 55 f8          	mov    -0x8(%rbp),%rdx
ffffffff80203633:	48 8b 04 c2          	mov    (%rdx,%rax,8),%rax
ffffffff80203637:	8b 4d f4             	mov    -0xc(%rbp),%ecx
ffffffff8020363a:	89 ca                	mov    %ecx,%edx
ffffffff8020363c:	48 8b 75 f8          	mov    -0x8(%rbp),%rsi
ffffffff80203640:	48 89 04 d6          	mov    %rax,(%rsi,%rdx,8)
ffffffff80203644:	48 83 c4 10          	add    $0x10,%rsp
ffffffff80203648:	5d                   	pop    %rbp
ffffffff80203649:	c3                   	retq
ffffffff8020364a:	66 0f 1f 44 00 00    	nopw   0x0(%rax,%rax,1)

ffffffff80203650 <VirtMemMan_MapLPage>:
ffffffff80203650:	55                   	push   %rbp
ffffffff80203651:	48 89 e5             	mov    %rsp,%rbp
ffffffff80203654:	48 83 ec 50          	sub    $0x50,%rsp
ffffffff80203658:	88 c8                	mov    %cl,%al
ffffffff8020365a:	8b 4d 10             	mov    0x10(%rbp),%ecx
ffffffff8020365d:	48 89 7d f8          	mov    %rdi,-0x8(%rbp)
ffffffff80203661:	48 89 75 f0          	mov    %rsi,-0x10(%rbp)
ffffffff80203665:	48 89 55 e8          	mov    %rdx,-0x18(%rbp)
ffffffff80203669:	88 45 e7             	mov    %al,-0x19(%rbp)
ffffffff8020366c:	44 89 45 e0          	mov    %r8d,-0x20(%rbp)
ffffffff80203670:	44 89 4d dc          	mov    %r9d,-0x24(%rbp)
ffffffff80203674:	89 4d d8             	mov    %ecx,-0x28(%rbp)
ffffffff80203677:	48 8b 55 e8          	mov    -0x18(%rbp),%rdx
ffffffff8020367b:	48 c1 ea 15          	shr    $0x15,%rdx
ffffffff8020367f:	48 c1 e2 15          	shl    $0x15,%rdx
ffffffff80203683:	48 89 55 e8          	mov    %rdx,-0x18(%rbp)
ffffffff80203687:	48 8b 55 f0          	mov    -0x10(%rbp),%rdx
ffffffff8020368b:	48 c1 ea 27          	shr    $0x27,%rdx
ffffffff8020368f:	48 81 e2 ff 01 00 00 	and    $0x1ff,%rdx
ffffffff80203696:	89 d1                	mov    %edx,%ecx
ffffffff80203698:	89 4d d4             	mov    %ecx,-0x2c(%rbp)
ffffffff8020369b:	48 8b 55 f0          	mov    -0x10(%rbp),%rdx
ffffffff8020369f:	48 c1 ea 1e          	shr    $0x1e,%rdx
ffffffff802036a3:	48 81 e2 ff 01 00 00 	and    $0x1ff,%rdx
ffffffff802036aa:	89 d1                	mov    %edx,%ecx
ffffffff802036ac:	89 4d d0             	mov    %ecx,-0x30(%rbp)
ffffffff802036af:	48 8b 55 f0          	mov    -0x10(%rbp),%rdx
ffffffff802036b3:	48 c1 ea 15          	shr    $0x15,%rdx
ffffffff802036b7:	48 81 e2 ff 01 00 00 	and    $0x1ff,%rdx
ffffffff802036be:	89 d1                	mov    %edx,%ecx
ffffffff802036c0:	89 4d cc             	mov    %ecx,-0x34(%rbp)
ffffffff802036c3:	48 8b 7d f8          	mov    -0x8(%rbp),%rdi
ffffffff802036c7:	8b 75 d4             	mov    -0x2c(%rbp),%esi
ffffffff802036ca:	8b 55 cc             	mov    -0x34(%rbp),%edx
ffffffff802036cd:	e8 7e 01 00 00       	callq  ffffffff80203850 <VirtMemMan_SetupPDEntry>
ffffffff802036d2:	8b 4d d4             	mov    -0x2c(%rbp),%ecx
ffffffff802036d5:	89 cf                	mov    %ecx,%edi
ffffffff802036d7:	4c 8b 55 f8          	mov    -0x8(%rbp),%r10
ffffffff802036db:	49 bb 00 f0 ff ff ff 	movabs $0xffffffffffff000,%r11
ffffffff802036e2:	ff ff 0f
ffffffff802036e5:	4d 23 1c fa          	and    (%r10,%rdi,8),%r11
ffffffff802036e9:	4c 89 df             	mov    %r11,%rdi
ffffffff802036ec:	e8 bf de ff ff       	callq  ffffffff802015b0 <GetVirtualAddress>
ffffffff802036f1:	48 89 45 c0          	mov    %rax,-0x40(%rbp)
ffffffff802036f5:	8b 4d d0             	mov    -0x30(%rbp),%ecx
ffffffff802036f8:	89 c8                	mov    %ecx,%eax
ffffffff802036fa:	48 8b 7d c0          	mov    -0x40(%rbp),%rdi
ffffffff802036fe:	49 ba 00 f0 ff ff ff 	movabs $0xffffffffffff000,%r10
ffffffff80203705:	ff ff 0f
ffffffff80203708:	4c 23 14 c7          	and    (%rdi,%rax,8),%r10
ffffffff8020370c:	4c 89 d7             	mov    %r10,%rdi
ffffffff8020370f:	e8 9c de ff ff       	callq  ffffffff802015b0 <GetVirtualAddress>
ffffffff80203714:	48 89 45 b8          	mov    %rax,-0x48(%rbp)
ffffffff80203718:	48 8b 45 e8          	mov    -0x18(%rbp),%rax
ffffffff8020371c:	8b 4d cc             	mov    -0x34(%rbp),%ecx
ffffffff8020371f:	89 cf                	mov    %ecx,%edi
ffffffff80203721:	4c 8b 55 b8          	mov    -0x48(%rbp),%r10
ffffffff80203725:	49 89 04 fa          	mov    %rax,(%r10,%rdi,8)
ffffffff80203729:	80 7d e7 00          	cmpb   $0x0,-0x19(%rbp)
ffffffff8020372d:	74 1e                	je     ffffffff8020374d <VirtMemMan_MapLPage+0xfd>
ffffffff8020372f:	8b 45 cc             	mov    -0x34(%rbp),%eax
ffffffff80203732:	89 c1                	mov    %eax,%ecx
ffffffff80203734:	48 8b 55 b8          	mov    -0x48(%rbp),%rdx
ffffffff80203738:	48 8b 0c ca          	mov    (%rdx,%rcx,8),%rcx
ffffffff8020373c:	48 83 c9 01          	or     $0x1,%rcx
ffffffff80203740:	8b 45 cc             	mov    -0x34(%rbp),%eax
ffffffff80203743:	89 c2                	mov    %eax,%edx
ffffffff80203745:	48 8b 75 b8          	mov    -0x48(%rbp),%rsi
ffffffff80203749:	48 89 0c d6          	mov    %rcx,(%rsi,%rdx,8)
ffffffff8020374d:	8b 45 cc             	mov    -0x34(%rbp),%eax
ffffffff80203750:	89 c1                	mov    %eax,%ecx
ffffffff80203752:	48 8b 55 b8          	mov    -0x48(%rbp),%rdx
ffffffff80203756:	48 8b 0c ca          	mov    (%rdx,%rcx,8),%rcx
ffffffff8020375a:	48 81 c9 80 00 00 00 	or     $0x80,%rcx
ffffffff80203761:	8b 45 cc             	mov    -0x34(%rbp),%eax
ffffffff80203764:	89 c2                	mov    %eax,%edx
ffffffff80203766:	48 8b 75 b8          	mov    -0x48(%rbp),%rsi
ffffffff8020376a:	48 89 0c d6          	mov    %rcx,(%rsi,%rdx,8)
ffffffff8020376e:	8b 45 cc             	mov    -0x34(%rbp),%eax
ffffffff80203771:	89 c1                	mov    %eax,%ecx
ffffffff80203773:	48 8b 55 b8          	mov    -0x48(%rbp),%rdx
ffffffff80203777:	48 8b 0c ca          	mov    (%rdx,%rcx,8),%rcx
ffffffff8020377b:	8b 45 e0             	mov    -0x20(%rbp),%eax
ffffffff8020377e:	c1 e0 03             	shl    $0x3,%eax
ffffffff80203781:	89 c0                	mov    %eax,%eax
ffffffff80203783:	89 c2                	mov    %eax,%edx
ffffffff80203785:	48 09 d1             	or     %rdx,%rcx
ffffffff80203788:	8b 45 cc             	mov    -0x34(%rbp),%eax
ffffffff8020378b:	89 c2                	mov    %eax,%edx
ffffffff8020378d:	48 8b 75 b8          	mov    -0x48(%rbp),%rsi
ffffffff80203791:	48 89 0c d6          	mov    %rcx,(%rsi,%rdx,8)
ffffffff80203795:	8b 45 dc             	mov    -0x24(%rbp),%eax
ffffffff80203798:	83 e0 02             	and    $0x2,%eax
ffffffff8020379b:	83 f8 00             	cmp    $0x0,%eax
ffffffff8020379e:	74 1e                	je     ffffffff802037be <VirtMemMan_MapLPage+0x16e>
ffffffff802037a0:	8b 45 cc             	mov    -0x34(%rbp),%eax
ffffffff802037a3:	89 c1                	mov    %eax,%ecx
ffffffff802037a5:	48 8b 55 b8          	mov    -0x48(%rbp),%rdx
ffffffff802037a9:	48 8b 0c ca          	mov    (%rdx,%rcx,8),%rcx
ffffffff802037ad:	48 83 c9 02          	or     $0x2,%rcx
ffffffff802037b1:	8b 45 cc             	mov    -0x34(%rbp),%eax
ffffffff802037b4:	89 c2                	mov    %eax,%edx
ffffffff802037b6:	48 8b 75 b8          	mov    -0x48(%rbp),%rsi
ffffffff802037ba:	48 89 0c d6          	mov    %rcx,(%rsi,%rdx,8)
ffffffff802037be:	8b 45 dc             	mov    -0x24(%rbp),%eax
ffffffff802037c1:	83 e0 01             	and    $0x1,%eax
ffffffff802037c4:	83 f8 00             	cmp    $0x0,%eax
ffffffff802037c7:	74 26                	je     ffffffff802037ef <VirtMemMan_MapLPage+0x19f>
ffffffff802037c9:	8b 45 cc             	mov    -0x34(%rbp),%eax
ffffffff802037cc:	89 c1                	mov    %eax,%ecx
ffffffff802037ce:	48 8b 55 b8          	mov    -0x48(%rbp),%rdx
ffffffff802037d2:	48 be ff ff ff ff ff 	movabs $0x7fffffffffffffff,%rsi
ffffffff802037d9:	ff ff 7f
ffffffff802037dc:	48 23 34 ca          	and    (%rdx,%rcx,8),%rsi
ffffffff802037e0:	8b 45 cc             	mov    -0x34(%rbp),%eax
ffffffff802037e3:	89 c1                	mov    %eax,%ecx
ffffffff802037e5:	48 8b 55 b8          	mov    -0x48(%rbp),%rdx
ffffffff802037e9:	48 89 34 ca          	mov    %rsi,(%rdx,%rcx,8)
ffffffff802037ed:	eb 24                	jmp    ffffffff80203813 <VirtMemMan_MapLPage+0x1c3>
ffffffff802037ef:	8b 45 cc             	mov    -0x34(%rbp),%eax
ffffffff802037f2:	89 c1                	mov    %eax,%ecx
ffffffff802037f4:	48 8b 55 b8          	mov    -0x48(%rbp),%rdx
ffffffff802037f8:	48 be 00 00 00 00 00 	movabs $0x8000000000000000,%rsi
ffffffff802037ff:	00 00 80
ffffffff80203802:	48 0b 34 ca          	or     (%rdx,%rcx,8),%rsi
ffffffff80203806:	8b 45 cc             	mov    -0x34(%rbp),%eax
ffffffff80203809:	89 c1                	mov    %eax,%ecx
ffffffff8020380b:	48 8b 55 b8          	mov    -0x48(%rbp),%rdx
ffffffff8020380f:	48 89 34 ca          	mov    %rsi,(%rdx,%rcx,8)
ffffffff80203813:	8b 45 d8             	mov    -0x28(%rbp),%eax
ffffffff80203816:	83 e0 01             	and    $0x1,%eax
ffffffff80203819:	83 f8 00             	cmp    $0x0,%eax
ffffffff8020381c:	74 1e                	je     ffffffff8020383c <VirtMemMan_MapLPage+0x1ec>
ffffffff8020381e:	8b 45 cc             	mov    -0x34(%rbp),%eax
ffffffff80203821:	89 c1                	mov    %eax,%ecx
ffffffff80203823:	48 8b 55 b8          	mov    -0x48(%rbp),%rdx
ffffffff80203827:	48 8b 0c ca          	mov    (%rdx,%rcx,8),%rcx
ffffffff8020382b:	48 83 c9 04          	or     $0x4,%rcx
ffffffff8020382f:	8b 45 cc             	mov    -0x34(%rbp),%eax
ffffffff80203832:	89 c2                	mov    %eax,%edx
ffffffff80203834:	48 8b 75 b8          	mov    -0x48(%rbp),%rsi
ffffffff80203838:	48 89 0c d6          	mov    %rcx,(%rsi,%rdx,8)
ffffffff8020383c:	48 8b 45 f0          	mov    -0x10(%rbp),%rax
ffffffff80203840:	0f 01 38             	invlpg (%rax)
ffffffff80203843:	48 83 c4 50          	add    $0x50,%rsp
ffffffff80203847:	5d                   	pop    %rbp
ffffffff80203848:	c3                   	retq
ffffffff80203849:	0f 1f 80 00 00 00 00 	nopl   0x0(%rax)

ffffffff80203850 <VirtMemMan_SetupPDEntry>:
ffffffff80203850:	55                   	push   %rbp
ffffffff80203851:	48 89 e5             	mov    %rsp,%rbp
ffffffff80203854:	48 83 ec 20          	sub    $0x20,%rsp
ffffffff80203858:	48 89 7d f8          	mov    %rdi,-0x8(%rbp)
ffffffff8020385c:	89 75 f4             	mov    %esi,-0xc(%rbp)
ffffffff8020385f:	89 55 f0             	mov    %edx,-0x10(%rbp)
ffffffff80203862:	48 8b 7d f8          	mov    -0x8(%rbp),%rdi
ffffffff80203866:	8b 75 f4             	mov    -0xc(%rbp),%esi
ffffffff80203869:	e8 42 fd ff ff       	callq  ffffffff802035b0 <VirtMemMan_SetupPDPTEntry>
ffffffff8020386e:	8b 55 f4             	mov    -0xc(%rbp),%edx
ffffffff80203871:	89 d7                	mov    %edx,%edi
ffffffff80203873:	48 8b 45 f8          	mov    -0x8(%rbp),%rax
ffffffff80203877:	48 b9 00 f0 ff ff ff 	movabs $0xffffffffffff000,%rcx
ffffffff8020387e:	ff ff 0f
ffffffff80203881:	48 23 0c f8          	and    (%rax,%rdi,8),%rcx
ffffffff80203885:	48 89 cf             	mov    %rcx,%rdi
ffffffff80203888:	e8 23 dd ff ff       	callq  ffffffff802015b0 <GetVirtualAddress>
ffffffff8020388d:	48 89 45 e8          	mov    %rax,-0x18(%rbp)
ffffffff80203891:	8b 55 f0             	mov    -0x10(%rbp),%edx
ffffffff80203894:	89 d0                	mov    %edx,%eax
ffffffff80203896:	48 8b 4d e8          	mov    -0x18(%rbp),%rcx
ffffffff8020389a:	48 bf 00 f0 ff ff ff 	movabs $0xffffffffffff000,%rdi
ffffffff802038a1:	ff ff 0f
ffffffff802038a4:	48 23 3c c1          	and    (%rcx,%rax,8),%rdi
ffffffff802038a8:	48 83 ff 00          	cmp    $0x0,%rdi
ffffffff802038ac:	75 68                	jne    ffffffff80203916 <VirtMemMan_SetupPDEntry+0xc6>
ffffffff802038ae:	e8 7d f1 ff ff       	callq  ffffffff80202a30 <MemMan_Alloc>
ffffffff802038b3:	8b 4d f0             	mov    -0x10(%rbp),%ecx
ffffffff802038b6:	89 ca                	mov    %ecx,%edx
ffffffff802038b8:	48 8b 75 e8          	mov    -0x18(%rbp),%rsi
ffffffff802038bc:	48 89 04 d6          	mov    %rax,(%rsi,%rdx,8)
ffffffff802038c0:	8b 4d f0             	mov    -0x10(%rbp),%ecx
ffffffff802038c3:	89 c8                	mov    %ecx,%eax
ffffffff802038c5:	48 8b 55 e8          	mov    -0x18(%rbp),%rdx
ffffffff802038c9:	48 8b 04 c2          	mov    (%rdx,%rax,8),%rax
ffffffff802038cd:	48 83 c8 01          	or     $0x1,%rax
ffffffff802038d1:	8b 4d f0             	mov    -0x10(%rbp),%ecx
ffffffff802038d4:	89 ca                	mov    %ecx,%edx
ffffffff802038d6:	48 8b 75 e8          	mov    -0x18(%rbp),%rsi
ffffffff802038da:	48 89 04 d6          	mov    %rax,(%rsi,%rdx,8)
ffffffff802038de:	8b 4d f0             	mov    -0x10(%rbp),%ecx
ffffffff802038e1:	89 c8                	mov    %ecx,%eax
ffffffff802038e3:	48 8b 55 e8          	mov    -0x18(%rbp),%rdx
ffffffff802038e7:	48 8b 04 c2          	mov    (%rdx,%rax,8),%rax
ffffffff802038eb:	48 83 c8 02          	or     $0x2,%rax
ffffffff802038ef:	8b 4d f0             	mov    -0x10(%rbp),%ecx
ffffffff802038f2:	89 ca                	mov    %ecx,%edx
ffffffff802038f4:	48 8b 75 e8          	mov    -0x18(%rbp),%rsi
ffffffff802038f8:	48 89 04 d6          	mov    %rax,(%rsi,%rdx,8)
ffffffff802038fc:	8b 4d f0             	mov    -0x10(%rbp),%ecx
ffffffff802038ff:	89 c8                	mov    %ecx,%eax
ffffffff80203901:	48 8b 55 e8          	mov    -0x18(%rbp),%rdx
ffffffff80203905:	48 8b 04 c2          	mov    (%rdx,%rax,8),%rax
ffffffff80203909:	8b 4d f0             	mov    -0x10(%rbp),%ecx
ffffffff8020390c:	89 ca                	mov    %ecx,%edx
ffffffff8020390e:	48 8b 75 e8          	mov    -0x18(%rbp),%rsi
ffffffff80203912:	48 89 04 d6          	mov    %rax,(%rsi,%rdx,8)
ffffffff80203916:	48 83 c4 20          	add    $0x20,%rsp
ffffffff8020391a:	5d                   	pop    %rbp
ffffffff8020391b:	c3                   	retq
ffffffff8020391c:	0f 1f 40 00          	nopl   0x0(%rax)

ffffffff80203920 <VirtMemMan_MapSPage>:
ffffffff80203920:	55                   	push   %rbp
ffffffff80203921:	48 89 e5             	mov    %rsp,%rbp
ffffffff80203924:	48 83 ec 50          	sub    $0x50,%rsp
ffffffff80203928:	88 c8                	mov    %cl,%al
ffffffff8020392a:	8b 4d 10             	mov    0x10(%rbp),%ecx
ffffffff8020392d:	48 89 7d f8          	mov    %rdi,-0x8(%rbp)
ffffffff80203931:	48 89 75 f0          	mov    %rsi,-0x10(%rbp)
ffffffff80203935:	48 89 55 e8          	mov    %rdx,-0x18(%rbp)
ffffffff80203939:	88 45 e7             	mov    %al,-0x19(%rbp)
ffffffff8020393c:	44 89 45 e0          	mov    %r8d,-0x20(%rbp)
ffffffff80203940:	44 89 4d dc          	mov    %r9d,-0x24(%rbp)
ffffffff80203944:	89 4d d8             	mov    %ecx,-0x28(%rbp)
ffffffff80203947:	48 8b 55 e8          	mov    -0x18(%rbp),%rdx
ffffffff8020394b:	48 c1 ea 0c          	shr    $0xc,%rdx
ffffffff8020394f:	48 c1 e2 0c          	shl    $0xc,%rdx
ffffffff80203953:	48 89 55 e8          	mov    %rdx,-0x18(%rbp)
ffffffff80203957:	48 8b 55 f0          	mov    -0x10(%rbp),%rdx
ffffffff8020395b:	48 c1 ea 27          	shr    $0x27,%rdx
ffffffff8020395f:	48 81 e2 ff 01 00 00 	and    $0x1ff,%rdx
ffffffff80203966:	89 d1                	mov    %edx,%ecx
ffffffff80203968:	89 4d d4             	mov    %ecx,-0x2c(%rbp)
ffffffff8020396b:	48 8b 55 f0          	mov    -0x10(%rbp),%rdx
ffffffff8020396f:	48 c1 ea 1e          	shr    $0x1e,%rdx
ffffffff80203973:	48 81 e2 ff 01 00 00 	and    $0x1ff,%rdx
ffffffff8020397a:	89 d1                	mov    %edx,%ecx
ffffffff8020397c:	89 4d d0             	mov    %ecx,-0x30(%rbp)
ffffffff8020397f:	48 8b 55 f0          	mov    -0x10(%rbp),%rdx
ffffffff80203983:	48 c1 ea 15          	shr    $0x15,%rdx
ffffffff80203987:	48 81 e2 ff 01 00 00 	and    $0x1ff,%rdx
ffffffff8020398e:	89 d1                	mov    %edx,%ecx
ffffffff80203990:	89 4d cc             	mov    %ecx,-0x34(%rbp)
ffffffff80203993:	48 8b 55 f0          	mov    -0x10(%rbp),%rdx
ffffffff80203997:	48 c1 ea 0c          	shr    $0xc,%rdx
ffffffff8020399b:	48 81 e2 ff 01 00 00 	and    $0x1ff,%rdx
ffffffff802039a2:	89 d1                	mov    %edx,%ecx
ffffffff802039a4:	89 4d c8             	mov    %ecx,-0x38(%rbp)
ffffffff802039a7:	48 8b 7d f8          	mov    -0x8(%rbp),%rdi
ffffffff802039ab:	8b 75 d4             	mov    -0x2c(%rbp),%esi
ffffffff802039ae:	8b 55 cc             	mov    -0x34(%rbp),%edx
ffffffff802039b1:	8b 4d c8             	mov    -0x38(%rbp),%ecx
ffffffff802039b4:	e8 87 01 00 00       	callq  ffffffff80203b40 <VirtMemMan_SetupPTEntry>
ffffffff802039b9:	8b 4d d4             	mov    -0x2c(%rbp),%ecx
ffffffff802039bc:	89 cf                	mov    %ecx,%edi
ffffffff802039be:	4c 8b 55 f8          	mov    -0x8(%rbp),%r10
ffffffff802039c2:	49 bb 00 f0 ff ff ff 	movabs $0xffffffffffff000,%r11
ffffffff802039c9:	ff ff 0f
ffffffff802039cc:	4d 23 1c fa          	and    (%r10,%rdi,8),%r11
ffffffff802039d0:	4c 89 df             	mov    %r11,%rdi
ffffffff802039d3:	e8 d8 db ff ff       	callq  ffffffff802015b0 <GetVirtualAddress>
ffffffff802039d8:	48 89 45 c0          	mov    %rax,-0x40(%rbp)
ffffffff802039dc:	8b 4d d0             	mov    -0x30(%rbp),%ecx
ffffffff802039df:	89 c8                	mov    %ecx,%eax
ffffffff802039e1:	48 8b 7d c0          	mov    -0x40(%rbp),%rdi
ffffffff802039e5:	49 ba 00 f0 ff ff ff 	movabs $0xffffffffffff000,%r10
ffffffff802039ec:	ff ff 0f
ffffffff802039ef:	4c 23 14 c7          	and    (%rdi,%rax,8),%r10
ffffffff802039f3:	4c 89 d7             	mov    %r10,%rdi
ffffffff802039f6:	e8 b5 db ff ff       	callq  ffffffff802015b0 <GetVirtualAddress>
ffffffff802039fb:	48 89 45 b8          	mov    %rax,-0x48(%rbp)
ffffffff802039ff:	8b 4d cc             	mov    -0x34(%rbp),%ecx
ffffffff80203a02:	89 c8                	mov    %ecx,%eax
ffffffff80203a04:	48 8b 7d b8          	mov    -0x48(%rbp),%rdi
ffffffff80203a08:	49 ba 00 f0 ff ff ff 	movabs $0xffffffffffff000,%r10
ffffffff80203a0f:	ff ff 0f
ffffffff80203a12:	4c 23 14 c7          	and    (%rdi,%rax,8),%r10
ffffffff80203a16:	4c 89 d7             	mov    %r10,%rdi
ffffffff80203a19:	e8 92 db ff ff       	callq  ffffffff802015b0 <GetVirtualAddress>
ffffffff80203a1e:	48 89 45 b0          	mov    %rax,-0x50(%rbp)
ffffffff80203a22:	48 8b 45 e8          	mov    -0x18(%rbp),%rax
ffffffff80203a26:	8b 4d c8             	mov    -0x38(%rbp),%ecx
ffffffff80203a29:	89 cf                	mov    %ecx,%edi
ffffffff80203a2b:	4c 8b 55 b0          	mov    -0x50(%rbp),%r10
ffffffff80203a2f:	49 89 04 fa          	mov    %rax,(%r10,%rdi,8)
ffffffff80203a33:	80 7d e7 00          	cmpb   $0x0,-0x19(%rbp)
ffffffff80203a37:	74 1e                	je     ffffffff80203a57 <VirtMemMan_MapSPage+0x137>
ffffffff80203a39:	8b 45 c8             	mov    -0x38(%rbp),%eax
ffffffff80203a3c:	89 c1                	mov    %eax,%ecx
ffffffff80203a3e:	48 8b 55 b0          	mov    -0x50(%rbp),%rdx
ffffffff80203a42:	48 8b 0c ca          	mov    (%rdx,%rcx,8),%rcx
ffffffff80203a46:	48 83 c9 01          	or     $0x1,%rcx
ffffffff80203a4a:	8b 45 c8             	mov    -0x38(%rbp),%eax
ffffffff80203a4d:	89 c2                	mov    %eax,%edx
ffffffff80203a4f:	48 8b 75 b0          	mov    -0x50(%rbp),%rsi
ffffffff80203a53:	48 89 0c d6          	mov    %rcx,(%rsi,%rdx,8)
ffffffff80203a57:	8b 45 c8             	mov    -0x38(%rbp),%eax
ffffffff80203a5a:	89 c1                	mov    %eax,%ecx
ffffffff80203a5c:	48 8b 55 b0          	mov    -0x50(%rbp),%rdx
ffffffff80203a60:	48 8b 0c ca          	mov    (%rdx,%rcx,8),%rcx
ffffffff80203a64:	8b 45 e0             	mov    -0x20(%rbp),%eax
ffffffff80203a67:	c1 e0 03             	shl    $0x3,%eax
ffffffff80203a6a:	89 c0                	mov    %eax,%eax
ffffffff80203a6c:	89 c2                	mov    %eax,%edx
ffffffff80203a6e:	48 09 d1             	or     %rdx,%rcx
ffffffff80203a71:	8b 45 c8             	mov    -0x38(%rbp),%eax
ffffffff80203a74:	89 c2                	mov    %eax,%edx
ffffffff80203a76:	48 8b 75 b0          	mov    -0x50(%rbp),%rsi
ffffffff80203a7a:	48 89 0c d6          	mov    %rcx,(%rsi,%rdx,8)
ffffffff80203a7e:	8b 45 dc             	mov    -0x24(%rbp),%eax
ffffffff80203a81:	83 e0 02             	and    $0x2,%eax
ffffffff80203a84:	83 f8 00             	cmp    $0x0,%eax
ffffffff80203a87:	74 1e                	je     ffffffff80203aa7 <VirtMemMan_MapSPage+0x187>
ffffffff80203a89:	8b 45 c8             	mov    -0x38(%rbp),%eax
ffffffff80203a8c:	89 c1                	mov    %eax,%ecx
ffffffff80203a8e:	48 8b 55 b0          	mov    -0x50(%rbp),%rdx
ffffffff80203a92:	48 8b 0c ca          	mov    (%rdx,%rcx,8),%rcx
ffffffff80203a96:	48 83 c9 02          	or     $0x2,%rcx
ffffffff80203a9a:	8b 45 c8             	mov    -0x38(%rbp),%eax
ffffffff80203a9d:	89 c2                	mov    %eax,%edx
ffffffff80203a9f:	48 8b 75 b0          	mov    -0x50(%rbp),%rsi
ffffffff80203aa3:	48 89 0c d6          	mov    %rcx,(%rsi,%rdx,8)
ffffffff80203aa7:	8b 45 dc             	mov    -0x24(%rbp),%eax
ffffffff80203aaa:	83 e0 01             	and    $0x1,%eax
ffffffff80203aad:	83 f8 00             	cmp    $0x0,%eax
ffffffff80203ab0:	74 26                	je     ffffffff80203ad8 <VirtMemMan_MapSPage+0x1b8>
ffffffff80203ab2:	8b 45 c8             	mov    -0x38(%rbp),%eax
ffffffff80203ab5:	89 c1                	mov    %eax,%ecx
ffffffff80203ab7:	48 8b 55 b0          	mov    -0x50(%rbp),%rdx
ffffffff80203abb:	48 be ff ff ff ff ff 	movabs $0x7fffffffffffffff,%rsi
ffffffff80203ac2:	ff ff 7f
ffffffff80203ac5:	48 23 34 ca          	and    (%rdx,%rcx,8),%rsi
ffffffff80203ac9:	8b 45 c8             	mov    -0x38(%rbp),%eax
ffffffff80203acc:	89 c1                	mov    %eax,%ecx
ffffffff80203ace:	48 8b 55 b0          	mov    -0x50(%rbp),%rdx
ffffffff80203ad2:	48 89 34 ca          	mov    %rsi,(%rdx,%rcx,8)
ffffffff80203ad6:	eb 24                	jmp    ffffffff80203afc <VirtMemMan_MapSPage+0x1dc>
ffffffff80203ad8:	8b 45 c8             	mov    -0x38(%rbp),%eax
ffffffff80203adb:	89 c1                	mov    %eax,%ecx
ffffffff80203add:	48 8b 55 b0          	mov    -0x50(%rbp),%rdx
ffffffff80203ae1:	48 be 00 00 00 00 00 	movabs $0x8000000000000000,%rsi
ffffffff80203ae8:	00 00 80
ffffffff80203aeb:	48 0b 34 ca          	or     (%rdx,%rcx,8),%rsi
ffffffff80203aef:	8b 45 c8             	mov    -0x38(%rbp),%eax
ffffffff80203af2:	89 c1                	mov    %eax,%ecx
ffffffff80203af4:	48 8b 55 b0          	mov    -0x50(%rbp),%rdx
ffffffff80203af8:	48 89 34 ca          	mov    %rsi,(%rdx,%rcx,8)
ffffffff80203afc:	8b 45 d8             	mov    -0x28(%rbp),%eax
ffffffff80203aff:	83 e0 01             	and    $0x1,%eax
ffffffff80203b02:	83 f8 00             	cmp    $0x0,%eax
ffffffff80203b05:	74 1e                	je     ffffffff80203b25 <VirtMemMan_MapSPage+0x205>
ffffffff80203b07:	8b 45 c8             	mov    -0x38(%rbp),%eax
ffffffff80203b0a:	89 c1                	mov    %eax,%ecx
ffffffff80203b0c:	48 8b 55 b0          	mov    -0x50(%rbp),%rdx
ffffffff80203b10:	48 8b 0c ca          	mov    (%rdx,%rcx,8),%rcx
ffffffff80203b14:	48 83 c9 04          	or     $0x4,%rcx
ffffffff80203b18:	8b 45 c8             	mov    -0x38(%rbp),%eax
ffffffff80203b1b:	89 c2                	mov    %eax,%edx
ffffffff80203b1d:	48 8b 75 b0          	mov    -0x50(%rbp),%rsi
ffffffff80203b21:	48 89 0c d6          	mov    %rcx,(%rsi,%rdx,8)
ffffffff80203b25:	48 8b 45 f0          	mov    -0x10(%rbp),%rax
ffffffff80203b29:	0f 01 38             	invlpg (%rax)
ffffffff80203b2c:	48 83 c4 50          	add    $0x50,%rsp
ffffffff80203b30:	5d                   	pop    %rbp
ffffffff80203b31:	c3                   	retq
ffffffff80203b32:	0f 1f 40 00          	nopl   0x0(%rax)
ffffffff80203b36:	66 2e 0f 1f 84 00 00 	nopw   %cs:0x0(%rax,%rax,1)
ffffffff80203b3d:	00 00 00

ffffffff80203b40 <VirtMemMan_SetupPTEntry>:
ffffffff80203b40:	55                   	push   %rbp
ffffffff80203b41:	48 89 e5             	mov    %rsp,%rbp
ffffffff80203b44:	48 83 ec 30          	sub    $0x30,%rsp
ffffffff80203b48:	48 89 7d f8          	mov    %rdi,-0x8(%rbp)
ffffffff80203b4c:	89 75 f4             	mov    %esi,-0xc(%rbp)
ffffffff80203b4f:	89 55 f0             	mov    %edx,-0x10(%rbp)
ffffffff80203b52:	89 4d ec             	mov    %ecx,-0x14(%rbp)
ffffffff80203b55:	48 8b 7d f8          	mov    -0x8(%rbp),%rdi
ffffffff80203b59:	8b 75 f4             	mov    -0xc(%rbp),%esi
ffffffff80203b5c:	8b 55 f0             	mov    -0x10(%rbp),%edx
ffffffff80203b5f:	e8 ec fc ff ff       	callq  ffffffff80203850 <VirtMemMan_SetupPDEntry>
ffffffff80203b64:	8b 4d f4             	mov    -0xc(%rbp),%ecx
ffffffff80203b67:	89 cf                	mov    %ecx,%edi
ffffffff80203b69:	48 8b 45 f8          	mov    -0x8(%rbp),%rax
ffffffff80203b6d:	49 b8 00 f0 ff ff ff 	movabs $0xffffffffffff000,%r8
ffffffff80203b74:	ff ff 0f
ffffffff80203b77:	4c 23 04 f8          	and    (%rax,%rdi,8),%r8
ffffffff80203b7b:	4c 89 c7             	mov    %r8,%rdi
ffffffff80203b7e:	e8 2d da ff ff       	callq  ffffffff802015b0 <GetVirtualAddress>
ffffffff80203b83:	48 89 45 e0          	mov    %rax,-0x20(%rbp)
ffffffff80203b87:	8b 4d f0             	mov    -0x10(%rbp),%ecx
ffffffff80203b8a:	89 c8                	mov    %ecx,%eax
ffffffff80203b8c:	48 8b 7d e0          	mov    -0x20(%rbp),%rdi
ffffffff80203b90:	49 b8 00 f0 ff ff ff 	movabs $0xffffffffffff000,%r8
ffffffff80203b97:	ff ff 0f
ffffffff80203b9a:	4c 23 04 c7          	and    (%rdi,%rax,8),%r8
ffffffff80203b9e:	4c 89 c7             	mov    %r8,%rdi
ffffffff80203ba1:	e8 0a da ff ff       	callq  ffffffff802015b0 <GetVirtualAddress>
ffffffff80203ba6:	48 89 45 d8          	mov    %rax,-0x28(%rbp)
ffffffff80203baa:	8b 4d ec             	mov    -0x14(%rbp),%ecx
ffffffff80203bad:	89 c8                	mov    %ecx,%eax
ffffffff80203baf:	48 8b 7d d8          	mov    -0x28(%rbp),%rdi
ffffffff80203bb3:	49 b8 00 f0 ff ff ff 	movabs $0xffffffffffff000,%r8
ffffffff80203bba:	ff ff 0f
ffffffff80203bbd:	4c 23 04 c7          	and    (%rdi,%rax,8),%r8
ffffffff80203bc1:	49 83 f8 00          	cmp    $0x0,%r8
ffffffff80203bc5:	75 68                	jne    ffffffff80203c2f <VirtMemMan_SetupPTEntry+0xef>
ffffffff80203bc7:	e8 64 ee ff ff       	callq  ffffffff80202a30 <MemMan_Alloc>
ffffffff80203bcc:	8b 4d ec             	mov    -0x14(%rbp),%ecx
ffffffff80203bcf:	89 ca                	mov    %ecx,%edx
ffffffff80203bd1:	48 8b 75 d8          	mov    -0x28(%rbp),%rsi
ffffffff80203bd5:	48 89 04 d6          	mov    %rax,(%rsi,%rdx,8)
ffffffff80203bd9:	8b 4d ec             	mov    -0x14(%rbp),%ecx
ffffffff80203bdc:	89 c8                	mov    %ecx,%eax
ffffffff80203bde:	48 8b 55 d8          	mov    -0x28(%rbp),%rdx
ffffffff80203be2:	48 8b 04 c2          	mov    (%rdx,%rax,8),%rax
ffffffff80203be6:	48 83 c8 01          	or     $0x1,%rax
ffffffff80203bea:	8b 4d ec             	mov    -0x14(%rbp),%ecx
ffffffff80203bed:	89 ca                	mov    %ecx,%edx
ffffffff80203bef:	48 8b 75 d8          	mov    -0x28(%rbp),%rsi
ffffffff80203bf3:	48 89 04 d6          	mov    %rax,(%rsi,%rdx,8)
ffffffff80203bf7:	8b 4d ec             	mov    -0x14(%rbp),%ecx
ffffffff80203bfa:	89 c8                	mov    %ecx,%eax
ffffffff80203bfc:	48 8b 55 d8          	mov    -0x28(%rbp),%rdx
ffffffff80203c00:	48 8b 04 c2          	mov    (%rdx,%rax,8),%rax
ffffffff80203c04:	48 83 c8 02          	or     $0x2,%rax
ffffffff80203c08:	8b 4d ec             	mov    -0x14(%rbp),%ecx
ffffffff80203c0b:	89 ca                	mov    %ecx,%edx
ffffffff80203c0d:	48 8b 75 d8          	mov    -0x28(%rbp),%rsi
ffffffff80203c11:	48 89 04 d6          	mov    %rax,(%rsi,%rdx,8)
ffffffff80203c15:	8b 4d ec             	mov    -0x14(%rbp),%ecx
ffffffff80203c18:	89 c8                	mov    %ecx,%eax
ffffffff80203c1a:	48 8b 55 d8          	mov    -0x28(%rbp),%rdx
ffffffff80203c1e:	48 8b 04 c2          	mov    (%rdx,%rax,8),%rax
ffffffff80203c22:	8b 4d ec             	mov    -0x14(%rbp),%ecx
ffffffff80203c25:	89 ca                	mov    %ecx,%edx
ffffffff80203c27:	48 8b 75 d8          	mov    -0x28(%rbp),%rsi
ffffffff80203c2b:	48 89 04 d6          	mov    %rax,(%rsi,%rdx,8)
ffffffff80203c2f:	48 83 c4 30          	add    $0x30,%rsp
ffffffff80203c33:	5d                   	pop    %rbp
ffffffff80203c34:	c3                   	retq
ffffffff80203c35:	90                   	nop
ffffffff80203c36:	66 2e 0f 1f 84 00 00 	nopw   %cs:0x0(%rax,%rax,1)
ffffffff80203c3d:	00 00 00

ffffffff80203c40 <VirtMemMan_Map>:
ffffffff80203c40:	55                   	push   %rbp
ffffffff80203c41:	48 89 e5             	mov    %rsp,%rbp
ffffffff80203c44:	48 83 ec 60          	sub    $0x60,%rsp
ffffffff80203c48:	44 88 c0             	mov    %r8b,%al
ffffffff80203c4b:	44 8b 45 18          	mov    0x18(%rbp),%r8d
ffffffff80203c4f:	44 8b 55 10          	mov    0x10(%rbp),%r10d
ffffffff80203c53:	48 89 7d f8          	mov    %rdi,-0x8(%rbp)
ffffffff80203c57:	48 89 75 f0          	mov    %rsi,-0x10(%rbp)
ffffffff80203c5b:	48 89 55 e8          	mov    %rdx,-0x18(%rbp)
ffffffff80203c5f:	48 89 4d e0          	mov    %rcx,-0x20(%rbp)
ffffffff80203c63:	88 45 df             	mov    %al,-0x21(%rbp)
ffffffff80203c66:	44 89 4d d8          	mov    %r9d,-0x28(%rbp)
ffffffff80203c6a:	44 89 55 d4          	mov    %r10d,-0x2c(%rbp)
ffffffff80203c6e:	44 89 45 d0          	mov    %r8d,-0x30(%rbp)
ffffffff80203c72:	48 83 7d e0 00       	cmpq   $0x0,-0x20(%rbp)
ffffffff80203c77:	0f 86 ab 02 00 00    	jbe    ffffffff80203f28 <VirtMemMan_Map+0x2e8>
ffffffff80203c7d:	48 81 7d e0 00 10 00 	cmpq   $0x1000,-0x20(%rbp)
ffffffff80203c84:	00
ffffffff80203c85:	75 2d                	jne    ffffffff80203cb4 <VirtMemMan_Map+0x74>
ffffffff80203c87:	48 8b 7d f8          	mov    -0x8(%rbp),%rdi
ffffffff80203c8b:	48 8b 75 f0          	mov    -0x10(%rbp),%rsi
ffffffff80203c8f:	48 8b 55 e8          	mov    -0x18(%rbp),%rdx
ffffffff80203c93:	8a 45 df             	mov    -0x21(%rbp),%al
ffffffff80203c96:	44 8b 45 d8          	mov    -0x28(%rbp),%r8d
ffffffff80203c9a:	44 8b 4d d4          	mov    -0x2c(%rbp),%r9d
ffffffff80203c9e:	8b 4d d0             	mov    -0x30(%rbp),%ecx
ffffffff80203ca1:	49 89 e2             	mov    %rsp,%r10
ffffffff80203ca4:	41 89 0a             	mov    %ecx,(%r10)
ffffffff80203ca7:	0f b6 c8             	movzbl %al,%ecx
ffffffff80203caa:	e8 71 fc ff ff       	callq  ffffffff80203920 <VirtMemMan_MapSPage>
ffffffff80203caf:	e9 6f 02 00 00       	jmpq   ffffffff80203f23 <VirtMemMan_Map+0x2e3>
ffffffff80203cb4:	48 81 7d e0 00 00 20 	cmpq   $0x200000,-0x20(%rbp)
ffffffff80203cbb:	00
ffffffff80203cbc:	75 2d                	jne    ffffffff80203ceb <VirtMemMan_Map+0xab>
ffffffff80203cbe:	48 8b 7d f8          	mov    -0x8(%rbp),%rdi
ffffffff80203cc2:	48 8b 75 f0          	mov    -0x10(%rbp),%rsi
ffffffff80203cc6:	48 8b 55 e8          	mov    -0x18(%rbp),%rdx
ffffffff80203cca:	8a 45 df             	mov    -0x21(%rbp),%al
ffffffff80203ccd:	44 8b 45 d8          	mov    -0x28(%rbp),%r8d
ffffffff80203cd1:	44 8b 4d d4          	mov    -0x2c(%rbp),%r9d
ffffffff80203cd5:	8b 4d d0             	mov    -0x30(%rbp),%ecx
ffffffff80203cd8:	49 89 e2             	mov    %rsp,%r10
ffffffff80203cdb:	41 89 0a             	mov    %ecx,(%r10)
ffffffff80203cde:	0f b6 c8             	movzbl %al,%ecx
ffffffff80203ce1:	e8 6a f9 ff ff       	callq  ffffffff80203650 <VirtMemMan_MapLPage>
ffffffff80203ce6:	e9 36 02 00 00       	jmpq   ffffffff80203f21 <VirtMemMan_Map+0x2e1>
ffffffff80203ceb:	48 81 7d e0 00 00 00 	cmpq   $0x40000000,-0x20(%rbp)
ffffffff80203cf2:	40
ffffffff80203cf3:	75 2d                	jne    ffffffff80203d22 <VirtMemMan_Map+0xe2>
ffffffff80203cf5:	48 8b 7d f8          	mov    -0x8(%rbp),%rdi
ffffffff80203cf9:	48 8b 75 f0          	mov    -0x10(%rbp),%rsi
ffffffff80203cfd:	48 8b 55 e8          	mov    -0x18(%rbp),%rdx
ffffffff80203d01:	8a 45 df             	mov    -0x21(%rbp),%al
ffffffff80203d04:	44 8b 45 d8          	mov    -0x28(%rbp),%r8d
ffffffff80203d08:	44 8b 4d d4          	mov    -0x2c(%rbp),%r9d
ffffffff80203d0c:	8b 4d d0             	mov    -0x30(%rbp),%ecx
ffffffff80203d0f:	49 89 e2             	mov    %rsp,%r10
ffffffff80203d12:	41 89 0a             	mov    %ecx,(%r10)
ffffffff80203d15:	0f b6 c8             	movzbl %al,%ecx
ffffffff80203d18:	e8 d3 f5 ff ff       	callq  ffffffff802032f0 <VirtMemMan_MapHPage>
ffffffff80203d1d:	e9 fd 01 00 00       	jmpq   ffffffff80203f1f <VirtMemMan_Map+0x2df>
ffffffff80203d22:	48 81 7d e0 00 00 00 	cmpq   $0x40000000,-0x20(%rbp)
ffffffff80203d29:	40
ffffffff80203d2a:	0f 82 9a 00 00 00    	jb     ffffffff80203dca <VirtMemMan_Map+0x18a>
ffffffff80203d30:	48 8b 45 f0          	mov    -0x10(%rbp),%rax
ffffffff80203d34:	48 25 ff ff ff 3f    	and    $0x3fffffff,%rax
ffffffff80203d3a:	48 83 f8 00          	cmp    $0x0,%rax
ffffffff80203d3e:	0f 85 86 00 00 00    	jne    ffffffff80203dca <VirtMemMan_Map+0x18a>
ffffffff80203d44:	48 8b 45 e8          	mov    -0x18(%rbp),%rax
ffffffff80203d48:	48 25 ff ff ff 3f    	and    $0x3fffffff,%rax
ffffffff80203d4e:	48 83 f8 00          	cmp    $0x0,%rax
ffffffff80203d52:	75 76                	jne    ffffffff80203dca <VirtMemMan_Map+0x18a>
ffffffff80203d54:	b8 00 00 00 40       	mov    $0x40000000,%eax
ffffffff80203d59:	89 c1                	mov    %eax,%ecx
ffffffff80203d5b:	48 8b 55 e0          	mov    -0x20(%rbp),%rdx
ffffffff80203d5f:	48 81 ea 00 00 00 40 	sub    $0x40000000,%rdx
ffffffff80203d66:	48 89 55 e0          	mov    %rdx,-0x20(%rbp)
ffffffff80203d6a:	48 8b 7d f8          	mov    -0x8(%rbp),%rdi
ffffffff80203d6e:	48 8b 75 f0          	mov    -0x10(%rbp),%rsi
ffffffff80203d72:	48 8b 55 e8          	mov    -0x18(%rbp),%rdx
ffffffff80203d76:	44 8a 45 df          	mov    -0x21(%rbp),%r8b
ffffffff80203d7a:	44 8b 4d d8          	mov    -0x28(%rbp),%r9d
ffffffff80203d7e:	8b 45 d4             	mov    -0x2c(%rbp),%eax
ffffffff80203d81:	44 8b 55 d0          	mov    -0x30(%rbp),%r10d
ffffffff80203d85:	49 89 e3             	mov    %rsp,%r11
ffffffff80203d88:	45 89 53 08          	mov    %r10d,0x8(%r11)
ffffffff80203d8c:	41 89 03             	mov    %eax,(%r11)
ffffffff80203d8f:	45 0f b6 c0          	movzbl %r8b,%r8d
ffffffff80203d93:	b8 00 00 00 40       	mov    $0x40000000,%eax
ffffffff80203d98:	41 89 c3             	mov    %eax,%r11d
ffffffff80203d9b:	48 89 4d c8          	mov    %rcx,-0x38(%rbp)
ffffffff80203d9f:	4c 89 d9             	mov    %r11,%rcx
ffffffff80203da2:	e8 99 fe ff ff       	callq  ffffffff80203c40 <VirtMemMan_Map>
ffffffff80203da7:	48 8b 4d f0          	mov    -0x10(%rbp),%rcx
ffffffff80203dab:	48 81 c1 00 00 00 40 	add    $0x40000000,%rcx
ffffffff80203db2:	48 89 4d f0          	mov    %rcx,-0x10(%rbp)
ffffffff80203db6:	48 8b 4d e8          	mov    -0x18(%rbp),%rcx
ffffffff80203dba:	48 81 c1 00 00 00 40 	add    $0x40000000,%rcx
ffffffff80203dc1:	48 89 4d e8          	mov    %rcx,-0x18(%rbp)
ffffffff80203dc5:	e9 53 01 00 00       	jmpq   ffffffff80203f1d <VirtMemMan_Map+0x2dd>
ffffffff80203dca:	48 81 7d e0 00 00 20 	cmpq   $0x200000,-0x20(%rbp)
ffffffff80203dd1:	00
ffffffff80203dd2:	0f 82 9a 00 00 00    	jb     ffffffff80203e72 <VirtMemMan_Map+0x232>
ffffffff80203dd8:	48 8b 45 f0          	mov    -0x10(%rbp),%rax
ffffffff80203ddc:	48 25 ff ff 1f 00    	and    $0x1fffff,%rax
ffffffff80203de2:	48 83 f8 00          	cmp    $0x0,%rax
ffffffff80203de6:	0f 85 86 00 00 00    	jne    ffffffff80203e72 <VirtMemMan_Map+0x232>
ffffffff80203dec:	48 8b 45 e8          	mov    -0x18(%rbp),%rax
ffffffff80203df0:	48 25 ff ff 1f 00    	and    $0x1fffff,%rax
ffffffff80203df6:	48 83 f8 00          	cmp    $0x0,%rax
ffffffff80203dfa:	75 76                	jne    ffffffff80203e72 <VirtMemMan_Map+0x232>
ffffffff80203dfc:	b8 00 00 20 00       	mov    $0x200000,%eax
ffffffff80203e01:	89 c1                	mov    %eax,%ecx
ffffffff80203e03:	48 8b 55 e0          	mov    -0x20(%rbp),%rdx
ffffffff80203e07:	48 81 ea 00 00 20 00 	sub    $0x200000,%rdx
ffffffff80203e0e:	48 89 55 e0          	mov    %rdx,-0x20(%rbp)
ffffffff80203e12:	48 8b 7d f8          	mov    -0x8(%rbp),%rdi
ffffffff80203e16:	48 8b 75 f0          	mov    -0x10(%rbp),%rsi
ffffffff80203e1a:	48 8b 55 e8          	mov    -0x18(%rbp),%rdx
ffffffff80203e1e:	44 8a 45 df          	mov    -0x21(%rbp),%r8b
ffffffff80203e22:	44 8b 4d d8          	mov    -0x28(%rbp),%r9d
ffffffff80203e26:	8b 45 d4             	mov    -0x2c(%rbp),%eax
ffffffff80203e29:	44 8b 55 d0          	mov    -0x30(%rbp),%r10d
ffffffff80203e2d:	49 89 e3             	mov    %rsp,%r11
ffffffff80203e30:	45 89 53 08          	mov    %r10d,0x8(%r11)
ffffffff80203e34:	41 89 03             	mov    %eax,(%r11)
ffffffff80203e37:	45 0f b6 c0          	movzbl %r8b,%r8d
ffffffff80203e3b:	b8 00 00 20 00       	mov    $0x200000,%eax
ffffffff80203e40:	41 89 c3             	mov    %eax,%r11d
ffffffff80203e43:	48 89 4d c0          	mov    %rcx,-0x40(%rbp)
ffffffff80203e47:	4c 89 d9             	mov    %r11,%rcx
ffffffff80203e4a:	e8 f1 fd ff ff       	callq  ffffffff80203c40 <VirtMemMan_Map>
ffffffff80203e4f:	48 8b 4d f0          	mov    -0x10(%rbp),%rcx
ffffffff80203e53:	48 81 c1 00 00 20 00 	add    $0x200000,%rcx
ffffffff80203e5a:	48 89 4d f0          	mov    %rcx,-0x10(%rbp)
ffffffff80203e5e:	48 8b 4d e8          	mov    -0x18(%rbp),%rcx
ffffffff80203e62:	48 81 c1 00 00 20 00 	add    $0x200000,%rcx
ffffffff80203e69:	48 89 4d e8          	mov    %rcx,-0x18(%rbp)
ffffffff80203e6d:	e9 a9 00 00 00       	jmpq   ffffffff80203f1b <VirtMemMan_Map+0x2db>
ffffffff80203e72:	48 81 7d e0 00 10 00 	cmpq   $0x1000,-0x20(%rbp)
ffffffff80203e79:	00
ffffffff80203e7a:	0f 82 97 00 00 00    	jb     ffffffff80203f17 <VirtMemMan_Map+0x2d7>
ffffffff80203e80:	48 8b 45 f0          	mov    -0x10(%rbp),%rax
ffffffff80203e84:	48 25 ff 0f 00 00    	and    $0xfff,%rax
ffffffff80203e8a:	48 83 f8 00          	cmp    $0x0,%rax
ffffffff80203e8e:	0f 85 83 00 00 00    	jne    ffffffff80203f17 <VirtMemMan_Map+0x2d7>
ffffffff80203e94:	48 8b 45 e8          	mov    -0x18(%rbp),%rax
ffffffff80203e98:	48 25 ff 0f 00 00    	and    $0xfff,%rax
ffffffff80203e9e:	48 83 f8 00          	cmp    $0x0,%rax
ffffffff80203ea2:	75 73                	jne    ffffffff80203f17 <VirtMemMan_Map+0x2d7>
ffffffff80203ea4:	b8 00 10 00 00       	mov    $0x1000,%eax
ffffffff80203ea9:	89 c1                	mov    %eax,%ecx
ffffffff80203eab:	48 8b 55 e0          	mov    -0x20(%rbp),%rdx
ffffffff80203eaf:	48 81 ea 00 10 00 00 	sub    $0x1000,%rdx
ffffffff80203eb6:	48 89 55 e0          	mov    %rdx,-0x20(%rbp)
ffffffff80203eba:	48 8b 7d f8          	mov    -0x8(%rbp),%rdi
ffffffff80203ebe:	48 8b 75 f0          	mov    -0x10(%rbp),%rsi
ffffffff80203ec2:	48 8b 55 e8          	mov    -0x18(%rbp),%rdx
ffffffff80203ec6:	44 8a 45 df          	mov    -0x21(%rbp),%r8b
ffffffff80203eca:	44 8b 4d d8          	mov    -0x28(%rbp),%r9d
ffffffff80203ece:	8b 45 d4             	mov    -0x2c(%rbp),%eax
ffffffff80203ed1:	44 8b 55 d0          	mov    -0x30(%rbp),%r10d
ffffffff80203ed5:	49 89 e3             	mov    %rsp,%r11
ffffffff80203ed8:	45 89 53 08          	mov    %r10d,0x8(%r11)
ffffffff80203edc:	41 89 03             	mov    %eax,(%r11)
ffffffff80203edf:	45 0f b6 c0          	movzbl %r8b,%r8d
ffffffff80203ee3:	b8 00 10 00 00       	mov    $0x1000,%eax
ffffffff80203ee8:	41 89 c3             	mov    %eax,%r11d
ffffffff80203eeb:	48 89 4d b8          	mov    %rcx,-0x48(%rbp)
ffffffff80203eef:	4c 89 d9             	mov    %r11,%rcx
ffffffff80203ef2:	e8 49 fd ff ff       	callq  ffffffff80203c40 <VirtMemMan_Map>
ffffffff80203ef7:	48 8b 4d f0          	mov    -0x10(%rbp),%rcx
ffffffff80203efb:	48 81 c1 00 10 00 00 	add    $0x1000,%rcx
ffffffff80203f02:	48 89 4d f0          	mov    %rcx,-0x10(%rbp)
ffffffff80203f06:	48 8b 4d e8          	mov    -0x18(%rbp),%rcx
ffffffff80203f0a:	48 81 c1 00 10 00 00 	add    $0x1000,%rcx
ffffffff80203f11:	48 89 4d e8          	mov    %rcx,-0x18(%rbp)
ffffffff80203f15:	eb 02                	jmp    ffffffff80203f19 <VirtMemMan_Map+0x2d9>
ffffffff80203f17:	eb 0f                	jmp    ffffffff80203f28 <VirtMemMan_Map+0x2e8>
ffffffff80203f19:	eb 00                	jmp    ffffffff80203f1b <VirtMemMan_Map+0x2db>
ffffffff80203f1b:	eb 00                	jmp    ffffffff80203f1d <VirtMemMan_Map+0x2dd>
ffffffff80203f1d:	eb 00                	jmp    ffffffff80203f1f <VirtMemMan_Map+0x2df>
ffffffff80203f1f:	eb 00                	jmp    ffffffff80203f21 <VirtMemMan_Map+0x2e1>
ffffffff80203f21:	eb 00                	jmp    ffffffff80203f23 <VirtMemMan_Map+0x2e3>
ffffffff80203f23:	e9 4a fd ff ff       	jmpq   ffffffff80203c72 <VirtMemMan_Map+0x32>
ffffffff80203f28:	48 83 c4 60          	add    $0x60,%rsp
ffffffff80203f2c:	5d                   	pop    %rbp
ffffffff80203f2d:	c3                   	retq
ffffffff80203f2e:	66 90                	xchg   %ax,%ax

ffffffff80203f30 <VirtMemMan_GetPhysicalAddress>:
ffffffff80203f30:	55                   	push   %rbp
ffffffff80203f31:	48 89 e5             	mov    %rsp,%rbp
ffffffff80203f34:	48 83 ec 50          	sub    $0x50,%rsp
ffffffff80203f38:	48 89 7d f0          	mov    %rdi,-0x10(%rbp)
ffffffff80203f3c:	48 89 75 e8          	mov    %rsi,-0x18(%rbp)
ffffffff80203f40:	48 8b 75 e8          	mov    -0x18(%rbp),%rsi
ffffffff80203f44:	48 89 75 e0          	mov    %rsi,-0x20(%rbp)
ffffffff80203f48:	48 8b 75 e0          	mov    -0x20(%rbp),%rsi
ffffffff80203f4c:	48 c1 ee 27          	shr    $0x27,%rsi
ffffffff80203f50:	48 81 e6 ff 01 00 00 	and    $0x1ff,%rsi
ffffffff80203f57:	89 f0                	mov    %esi,%eax
ffffffff80203f59:	89 45 dc             	mov    %eax,-0x24(%rbp)
ffffffff80203f5c:	48 8b 75 e0          	mov    -0x20(%rbp),%rsi
ffffffff80203f60:	48 c1 ee 1e          	shr    $0x1e,%rsi
ffffffff80203f64:	48 81 e6 ff 01 00 00 	and    $0x1ff,%rsi
ffffffff80203f6b:	89 f0                	mov    %esi,%eax
ffffffff80203f6d:	89 45 d8             	mov    %eax,-0x28(%rbp)
ffffffff80203f70:	48 8b 75 e0          	mov    -0x20(%rbp),%rsi
ffffffff80203f74:	48 c1 ee 15          	shr    $0x15,%rsi
ffffffff80203f78:	48 81 e6 ff 01 00 00 	and    $0x1ff,%rsi
ffffffff80203f7f:	89 f0                	mov    %esi,%eax
ffffffff80203f81:	89 45 d4             	mov    %eax,-0x2c(%rbp)
ffffffff80203f84:	48 8b 75 e0          	mov    -0x20(%rbp),%rsi
ffffffff80203f88:	48 c1 ee 0c          	shr    $0xc,%rsi
ffffffff80203f8c:	48 81 e6 ff 01 00 00 	and    $0x1ff,%rsi
ffffffff80203f93:	89 f0                	mov    %esi,%eax
ffffffff80203f95:	89 45 d0             	mov    %eax,-0x30(%rbp)
ffffffff80203f98:	8b 45 dc             	mov    -0x24(%rbp),%eax
ffffffff80203f9b:	89 c6                	mov    %eax,%esi
ffffffff80203f9d:	48 8b 7d f0          	mov    -0x10(%rbp),%rdi
ffffffff80203fa1:	48 8b 34 f7          	mov    (%rdi,%rsi,8),%rsi
ffffffff80203fa5:	48 83 e6 01          	and    $0x1,%rsi
ffffffff80203fa9:	48 83 fe 00          	cmp    $0x0,%rsi
ffffffff80203fad:	0f 84 8d 01 00 00    	je     ffffffff80204140 <VirtMemMan_GetPhysicalAddress+0x210>
ffffffff80203fb3:	8b 45 dc             	mov    -0x24(%rbp),%eax
ffffffff80203fb6:	89 c1                	mov    %eax,%ecx
ffffffff80203fb8:	48 8b 55 f0          	mov    -0x10(%rbp),%rdx
ffffffff80203fbc:	48 be 00 f0 ff ff ff 	movabs $0xffffffffffff000,%rsi
ffffffff80203fc3:	ff ff 0f
ffffffff80203fc6:	48 23 34 ca          	and    (%rdx,%rcx,8),%rsi
ffffffff80203fca:	48 89 f7             	mov    %rsi,%rdi
ffffffff80203fcd:	e8 de d5 ff ff       	callq  ffffffff802015b0 <GetVirtualAddress>
ffffffff80203fd2:	48 89 45 c8          	mov    %rax,-0x38(%rbp)
ffffffff80203fd6:	44 8b 45 d8          	mov    -0x28(%rbp),%r8d
ffffffff80203fda:	44 89 c0             	mov    %r8d,%eax
ffffffff80203fdd:	48 8b 4d c8          	mov    -0x38(%rbp),%rcx
ffffffff80203fe1:	48 8b 04 c1          	mov    (%rcx,%rax,8),%rax
ffffffff80203fe5:	48 c1 e8 07          	shr    $0x7,%rax
ffffffff80203fe9:	48 83 e0 01          	and    $0x1,%rax
ffffffff80203fed:	48 83 f8 00          	cmp    $0x0,%rax
ffffffff80203ff1:	74 45                	je     ffffffff80204038 <VirtMemMan_GetPhysicalAddress+0x108>
ffffffff80203ff3:	8b 45 d8             	mov    -0x28(%rbp),%eax
ffffffff80203ff6:	89 c1                	mov    %eax,%ecx
ffffffff80203ff8:	48 8b 55 c8          	mov    -0x38(%rbp),%rdx
ffffffff80203ffc:	48 8b 0c ca          	mov    (%rdx,%rcx,8),%rcx
ffffffff80204000:	48 83 e1 01          	and    $0x1,%rcx
ffffffff80204004:	48 83 f9 00          	cmp    $0x0,%rcx
ffffffff80204008:	74 2e                	je     ffffffff80204038 <VirtMemMan_GetPhysicalAddress+0x108>
ffffffff8020400a:	8b 45 d8             	mov    -0x28(%rbp),%eax
ffffffff8020400d:	89 c1                	mov    %eax,%ecx
ffffffff8020400f:	48 8b 55 c8          	mov    -0x38(%rbp),%rdx
ffffffff80204013:	48 be 00 f0 ff ff ff 	movabs $0xffffffffffff000,%rsi
ffffffff8020401a:	ff ff 0f
ffffffff8020401d:	48 23 34 ca          	and    (%rdx,%rcx,8),%rsi
ffffffff80204021:	48 8b 4d e0          	mov    -0x20(%rbp),%rcx
ffffffff80204025:	48 81 e1 ff ff ff 3f 	and    $0x3fffffff,%rcx
ffffffff8020402c:	48 01 ce             	add    %rcx,%rsi
ffffffff8020402f:	48 89 75 f8          	mov    %rsi,-0x8(%rbp)
ffffffff80204033:	e9 10 01 00 00       	jmpq   ffffffff80204148 <VirtMemMan_GetPhysicalAddress+0x218>
ffffffff80204038:	8b 45 d8             	mov    -0x28(%rbp),%eax
ffffffff8020403b:	89 c1                	mov    %eax,%ecx
ffffffff8020403d:	48 8b 55 c8          	mov    -0x38(%rbp),%rdx
ffffffff80204041:	48 8b 0c ca          	mov    (%rdx,%rcx,8),%rcx
ffffffff80204045:	48 83 e1 01          	and    $0x1,%rcx
ffffffff80204049:	48 83 f9 00          	cmp    $0x0,%rcx
ffffffff8020404d:	0f 84 eb 00 00 00    	je     ffffffff8020413e <VirtMemMan_GetPhysicalAddress+0x20e>
ffffffff80204053:	8b 45 d8             	mov    -0x28(%rbp),%eax
ffffffff80204056:	89 c1                	mov    %eax,%ecx
ffffffff80204058:	48 8b 55 c8          	mov    -0x38(%rbp),%rdx
ffffffff8020405c:	48 be 00 f0 ff ff ff 	movabs $0xffffffffffff000,%rsi
ffffffff80204063:	ff ff 0f
ffffffff80204066:	48 23 34 ca          	and    (%rdx,%rcx,8),%rsi
ffffffff8020406a:	48 89 f7             	mov    %rsi,%rdi
ffffffff8020406d:	e8 3e d5 ff ff       	callq  ffffffff802015b0 <GetVirtualAddress>
ffffffff80204072:	48 89 45 c0          	mov    %rax,-0x40(%rbp)
ffffffff80204076:	44 8b 45 d4          	mov    -0x2c(%rbp),%r8d
ffffffff8020407a:	44 89 c0             	mov    %r8d,%eax
ffffffff8020407d:	48 8b 4d c0          	mov    -0x40(%rbp),%rcx
ffffffff80204081:	48 8b 04 c1          	mov    (%rcx,%rax,8),%rax
ffffffff80204085:	48 c1 e8 07          	shr    $0x7,%rax
ffffffff80204089:	48 83 e0 01          	and    $0x1,%rax
ffffffff8020408d:	48 83 f8 00          	cmp    $0x0,%rax
ffffffff80204091:	74 42                	je     ffffffff802040d5 <VirtMemMan_GetPhysicalAddress+0x1a5>
ffffffff80204093:	8b 45 d4             	mov    -0x2c(%rbp),%eax
ffffffff80204096:	89 c1                	mov    %eax,%ecx
ffffffff80204098:	48 8b 55 c0          	mov    -0x40(%rbp),%rdx
ffffffff8020409c:	48 8b 0c ca          	mov    (%rdx,%rcx,8),%rcx
ffffffff802040a0:	48 83 e1 01          	and    $0x1,%rcx
ffffffff802040a4:	48 83 f9 00          	cmp    $0x0,%rcx
ffffffff802040a8:	74 2b                	je     ffffffff802040d5 <VirtMemMan_GetPhysicalAddress+0x1a5>
ffffffff802040aa:	8b 45 d4             	mov    -0x2c(%rbp),%eax
ffffffff802040ad:	89 c1                	mov    %eax,%ecx
ffffffff802040af:	48 8b 55 c0          	mov    -0x40(%rbp),%rdx
ffffffff802040b3:	48 be 00 f0 ff ff ff 	movabs $0xffffffffffff000,%rsi
ffffffff802040ba:	ff ff 0f
ffffffff802040bd:	48 23 34 ca          	and    (%rdx,%rcx,8),%rsi
ffffffff802040c1:	48 8b 4d e0          	mov    -0x20(%rbp),%rcx
ffffffff802040c5:	48 81 e1 ff ff 1f 00 	and    $0x1fffff,%rcx
ffffffff802040cc:	48 01 ce             	add    %rcx,%rsi
ffffffff802040cf:	48 89 75 f8          	mov    %rsi,-0x8(%rbp)
ffffffff802040d3:	eb 73                	jmp    ffffffff80204148 <VirtMemMan_GetPhysicalAddress+0x218>
ffffffff802040d5:	8b 45 d4             	mov    -0x2c(%rbp),%eax
ffffffff802040d8:	89 c1                	mov    %eax,%ecx
ffffffff802040da:	48 8b 55 c0          	mov    -0x40(%rbp),%rdx
ffffffff802040de:	48 be 00 f0 ff ff ff 	movabs $0xffffffffffff000,%rsi
ffffffff802040e5:	ff ff 0f
ffffffff802040e8:	48 23 34 ca          	and    (%rdx,%rcx,8),%rsi
ffffffff802040ec:	48 89 f7             	mov    %rsi,%rdi
ffffffff802040ef:	e8 bc d4 ff ff       	callq  ffffffff802015b0 <GetVirtualAddress>
ffffffff802040f4:	48 89 45 b8          	mov    %rax,-0x48(%rbp)
ffffffff802040f8:	44 8b 45 d0          	mov    -0x30(%rbp),%r8d
ffffffff802040fc:	44 89 c0             	mov    %r8d,%eax
ffffffff802040ff:	48 8b 4d b8          	mov    -0x48(%rbp),%rcx
ffffffff80204103:	48 8b 04 c1          	mov    (%rcx,%rax,8),%rax
ffffffff80204107:	48 83 e0 01          	and    $0x1,%rax
ffffffff8020410b:	48 83 f8 00          	cmp    $0x0,%rax
ffffffff8020410f:	74 2b                	je     ffffffff8020413c <VirtMemMan_GetPhysicalAddress+0x20c>
ffffffff80204111:	8b 45 d0             	mov    -0x30(%rbp),%eax
ffffffff80204114:	89 c1                	mov    %eax,%ecx
ffffffff80204116:	48 8b 55 b8          	mov    -0x48(%rbp),%rdx
ffffffff8020411a:	48 be 00 f0 ff ff ff 	movabs $0xffffffffffff000,%rsi
ffffffff80204121:	ff ff 0f
ffffffff80204124:	48 23 34 ca          	and    (%rdx,%rcx,8),%rsi
ffffffff80204128:	48 8b 4d e0          	mov    -0x20(%rbp),%rcx
ffffffff8020412c:	48 81 e1 ff 0f 00 00 	and    $0xfff,%rcx
ffffffff80204133:	48 01 ce             	add    %rcx,%rsi
ffffffff80204136:	48 89 75 f8          	mov    %rsi,-0x8(%rbp)
ffffffff8020413a:	eb 0c                	jmp    ffffffff80204148 <VirtMemMan_GetPhysicalAddress+0x218>
ffffffff8020413c:	eb 00                	jmp    ffffffff8020413e <VirtMemMan_GetPhysicalAddress+0x20e>
ffffffff8020413e:	eb 00                	jmp    ffffffff80204140 <VirtMemMan_GetPhysicalAddress+0x210>
ffffffff80204140:	48 c7 45 f8 00 00 00 	movq   $0x0,-0x8(%rbp)
ffffffff80204147:	00
ffffffff80204148:	48 8b 45 f8          	mov    -0x8(%rbp),%rax
ffffffff8020414c:	48 83 c4 50          	add    $0x50,%rsp
ffffffff80204150:	5d                   	pop    %rbp
ffffffff80204151:	c3                   	retq
ffffffff80204152:	0f 1f 40 00          	nopl   0x0(%rax)
ffffffff80204156:	66 2e 0f 1f 84 00 00 	nopw   %cs:0x0(%rax,%rax,1)
ffffffff8020415d:	00 00 00

ffffffff80204160 <VirtMemMan_GetVirtualAddress>:
ffffffff80204160:	55                   	push   %rbp
ffffffff80204161:	48 89 e5             	mov    %rsp,%rbp
ffffffff80204164:	50                   	push   %rax
ffffffff80204165:	48 b8 00 00 00 00 01 	movabs $0x100000000,%rax
ffffffff8020416c:	00 00 00
ffffffff8020416f:	31 c9                	xor    %ecx,%ecx
ffffffff80204171:	89 ca                	mov    %ecx,%edx
ffffffff80204173:	48 be 00 00 00 00 02 	movabs $0x200000000,%rsi
ffffffff8020417a:	00 00 00
ffffffff8020417d:	48 89 7d f8          	mov    %rdi,-0x8(%rbp)
ffffffff80204181:	48 8b 7d f8          	mov    -0x8(%rbp),%rdi
ffffffff80204185:	49 b8 00 00 00 00 fc 	movabs $0xfffffffc00000000,%r8
ffffffff8020418c:	ff ff ff
ffffffff8020418f:	4c 01 c7             	add    %r8,%rdi
ffffffff80204192:	4c 8b 45 f8          	mov    -0x8(%rbp),%r8
ffffffff80204196:	49 39 c0             	cmp    %rax,%r8
ffffffff80204199:	48 0f 42 d6          	cmovb  %rsi,%rdx
ffffffff8020419d:	48 01 d7             	add    %rdx,%rdi
ffffffff802041a0:	48 89 f8             	mov    %rdi,%rax
ffffffff802041a3:	48 83 c4 08          	add    $0x8,%rsp
ffffffff802041a7:	5d                   	pop    %rbp
ffffffff802041a8:	c3                   	retq
ffffffff802041a9:	0f 1f 80 00 00 00 00 	nopl   0x0(%rax)

ffffffff802041b0 <VirtMemMan_FindFreeAddress>:
ffffffff802041b0:	55                   	push   %rbp
ffffffff802041b1:	48 89 e5             	mov    %rsp,%rbp
ffffffff802041b4:	48 81 ec 80 00 00 00 	sub    $0x80,%rsp
ffffffff802041bb:	48 89 7d f8          	mov    %rdi,-0x8(%rbp)
ffffffff802041bf:	48 89 75 f0          	mov    %rsi,-0x10(%rbp)
ffffffff802041c3:	89 55 ec             	mov    %edx,-0x14(%rbp)
ffffffff802041c6:	48 8b 75 f0          	mov    -0x10(%rbp),%rsi
ffffffff802041ca:	48 81 e6 ff 0f 00 00 	and    $0xfff,%rsi
ffffffff802041d1:	48 83 fe 00          	cmp    $0x0,%rsi
ffffffff802041d5:	74 14                	je     ffffffff802041eb <VirtMemMan_FindFreeAddress+0x3b>
ffffffff802041d7:	48 8b 45 f0          	mov    -0x10(%rbp),%rax
ffffffff802041db:	48 c1 e8 0c          	shr    $0xc,%rax
ffffffff802041df:	48 83 c0 01          	add    $0x1,%rax
ffffffff802041e3:	48 c1 e0 0c          	shl    $0xc,%rax
ffffffff802041e7:	48 89 45 f0          	mov    %rax,-0x10(%rbp)
ffffffff802041eb:	48 8b 45 f0          	mov    -0x10(%rbp),%rax
ffffffff802041ef:	48 89 45 e0          	mov    %rax,-0x20(%rbp)
ffffffff802041f3:	48 c7 45 d8 00 00 00 	movq   $0x0,-0x28(%rbp)
ffffffff802041fa:	00
ffffffff802041fb:	48 c7 45 d0 00 00 00 	movq   $0x0,-0x30(%rbp)
ffffffff80204202:	00
ffffffff80204203:	48 c7 45 c8 00 00 00 	movq   $0x0,-0x38(%rbp)
ffffffff8020420a:	00
ffffffff8020420b:	c7 45 c4 00 00 00 00 	movl   $0x0,-0x3c(%rbp)
ffffffff80204212:	83 7d ec 00          	cmpl   $0x0,-0x14(%rbp)
ffffffff80204216:	75 07                	jne    ffffffff8020421f <VirtMemMan_FindFreeAddress+0x6f>
ffffffff80204218:	c7 45 c4 80 00 00 00 	movl   $0x80,-0x3c(%rbp)
ffffffff8020421f:	48 63 45 c4          	movslq -0x3c(%rbp),%rax
ffffffff80204223:	48 89 45 b8          	mov    %rax,-0x48(%rbp)
ffffffff80204227:	31 c0                	xor    %eax,%eax
ffffffff80204229:	88 c1                	mov    %al,%cl
ffffffff8020422b:	48 8b 55 b8          	mov    -0x48(%rbp),%rdx
ffffffff8020422f:	8b 45 c4             	mov    -0x3c(%rbp),%eax
ffffffff80204232:	05 80 00 00 00       	add    $0x80,%eax
ffffffff80204237:	48 63 f0             	movslq %eax,%rsi
ffffffff8020423a:	48 39 f2             	cmp    %rsi,%rdx
ffffffff8020423d:	88 4d 87             	mov    %cl,-0x79(%rbp)
ffffffff80204240:	73 0e                	jae    ffffffff80204250 <VirtMemMan_FindFreeAddress+0xa0>
ffffffff80204242:	48 8b 45 d8          	mov    -0x28(%rbp),%rax
ffffffff80204246:	48 3b 45 e0          	cmp    -0x20(%rbp),%rax
ffffffff8020424a:	0f 92 c1             	setb   %cl
ffffffff8020424d:	88 4d 87             	mov    %cl,-0x79(%rbp)
ffffffff80204250:	8a 45 87             	mov    -0x79(%rbp),%al
ffffffff80204253:	a8 01                	test   $0x1,%al
ffffffff80204255:	75 05                	jne    ffffffff8020425c <VirtMemMan_FindFreeAddress+0xac>
ffffffff80204257:	e9 fa 03 00 00       	jmpq   ffffffff80204656 <VirtMemMan_FindFreeAddress+0x4a6>
ffffffff8020425c:	48 8b 45 b8          	mov    -0x48(%rbp),%rax
ffffffff80204260:	48 8b 4d f8          	mov    -0x8(%rbp),%rcx
ffffffff80204264:	48 8b 04 c1          	mov    (%rcx,%rax,8),%rax
ffffffff80204268:	48 83 e0 01          	and    $0x1,%rax
ffffffff8020426c:	48 83 f8 00          	cmp    $0x0,%rax
ffffffff80204270:	75 52                	jne    ffffffff802042c4 <VirtMemMan_FindFreeAddress+0x114>
ffffffff80204272:	48 b8 00 00 00 00 40 	movabs $0x4000000000,%rax
ffffffff80204279:	00 00 00
ffffffff8020427c:	48 39 45 e0          	cmp    %rax,-0x20(%rbp)
ffffffff80204280:	72 42                	jb     ffffffff802042c4 <VirtMemMan_FindFreeAddress+0x114>
ffffffff80204282:	48 b8 00 00 00 00 80 	movabs $0x8000000000,%rax
ffffffff80204289:	00 00 00
ffffffff8020428c:	48 39 45 e0          	cmp    %rax,-0x20(%rbp)
ffffffff80204290:	77 32                	ja     ffffffff802042c4 <VirtMemMan_FindFreeAddress+0x114>
ffffffff80204292:	48 83 7d d8 00       	cmpq   $0x0,-0x28(%rbp)
ffffffff80204297:	75 0c                	jne    ffffffff802042a5 <VirtMemMan_FindFreeAddress+0xf5>
ffffffff80204299:	48 8b 45 b8          	mov    -0x48(%rbp),%rax
ffffffff8020429d:	48 c1 e0 27          	shl    $0x27,%rax
ffffffff802042a1:	48 89 45 c8          	mov    %rax,-0x38(%rbp)
ffffffff802042a5:	48 8b 45 b8          	mov    -0x48(%rbp),%rax
ffffffff802042a9:	48 89 45 d0          	mov    %rax,-0x30(%rbp)
ffffffff802042ad:	48 b8 00 00 00 00 40 	movabs $0x4000000000,%rax
ffffffff802042b4:	00 00 00
ffffffff802042b7:	48 03 45 d8          	add    -0x28(%rbp),%rax
ffffffff802042bb:	48 89 45 d8          	mov    %rax,-0x28(%rbp)
ffffffff802042bf:	e9 7f 03 00 00       	jmpq   ffffffff80204643 <VirtMemMan_FindFreeAddress+0x493>
ffffffff802042c4:	48 8b 45 b8          	mov    -0x48(%rbp),%rax
ffffffff802042c8:	48 8b 4d f8          	mov    -0x8(%rbp),%rcx
ffffffff802042cc:	48 8b 04 c1          	mov    (%rcx,%rax,8),%rax
ffffffff802042d0:	48 83 e0 01          	and    $0x1,%rax
ffffffff802042d4:	48 83 f8 01          	cmp    $0x1,%rax
ffffffff802042d8:	0f 85 63 03 00 00    	jne    ffffffff80204641 <VirtMemMan_FindFreeAddress+0x491>
ffffffff802042de:	48 8b 45 b8          	mov    -0x48(%rbp),%rax
ffffffff802042e2:	48 8b 4d f8          	mov    -0x8(%rbp),%rcx
ffffffff802042e6:	48 ba 00 f0 ff ff ff 	movabs $0xffffffffffff000,%rdx
ffffffff802042ed:	ff ff 0f
ffffffff802042f0:	48 23 14 c1          	and    (%rcx,%rax,8),%rdx
ffffffff802042f4:	48 89 d7             	mov    %rdx,%rdi
ffffffff802042f7:	e8 b4 d2 ff ff       	callq  ffffffff802015b0 <GetVirtualAddress>
ffffffff802042fc:	48 89 45 b0          	mov    %rax,-0x50(%rbp)
ffffffff80204300:	48 83 7d d8 00       	cmpq   $0x0,-0x28(%rbp)
ffffffff80204305:	76 1d                	jbe    ffffffff80204324 <VirtMemMan_FindFreeAddress+0x174>
ffffffff80204307:	48 83 7d b8 00       	cmpq   $0x0,-0x48(%rbp)
ffffffff8020430c:	74 16                	je     ffffffff80204324 <VirtMemMan_FindFreeAddress+0x174>
ffffffff8020430e:	48 8b 45 b8          	mov    -0x48(%rbp),%rax
ffffffff80204312:	48 83 e8 01          	sub    $0x1,%rax
ffffffff80204316:	48 3b 45 d0          	cmp    -0x30(%rbp),%rax
ffffffff8020431a:	74 08                	je     ffffffff80204324 <VirtMemMan_FindFreeAddress+0x174>
ffffffff8020431c:	48 c7 45 d8 00 00 00 	movq   $0x0,-0x28(%rbp)
ffffffff80204323:	00
ffffffff80204324:	48 c7 45 a8 00 00 00 	movq   $0x0,-0x58(%rbp)
ffffffff8020432b:	00
ffffffff8020432c:	31 c0                	xor    %eax,%eax
ffffffff8020432e:	88 c1                	mov    %al,%cl
ffffffff80204330:	48 81 7d a8 00 02 00 	cmpq   $0x200,-0x58(%rbp)
ffffffff80204337:	00
ffffffff80204338:	88 4d 86             	mov    %cl,-0x7a(%rbp)
ffffffff8020433b:	73 0e                	jae    ffffffff8020434b <VirtMemMan_FindFreeAddress+0x19b>
ffffffff8020433d:	48 8b 45 d8          	mov    -0x28(%rbp),%rax
ffffffff80204341:	48 3b 45 e0          	cmp    -0x20(%rbp),%rax
ffffffff80204345:	0f 92 c1             	setb   %cl
ffffffff80204348:	88 4d 86             	mov    %cl,-0x7a(%rbp)
ffffffff8020434b:	8a 45 86             	mov    -0x7a(%rbp),%al
ffffffff8020434e:	a8 01                	test   $0x1,%al
ffffffff80204350:	75 05                	jne    ffffffff80204357 <VirtMemMan_FindFreeAddress+0x1a7>
ffffffff80204352:	e9 e8 02 00 00       	jmpq   ffffffff8020463f <VirtMemMan_FindFreeAddress+0x48f>
ffffffff80204357:	48 8b 45 a8          	mov    -0x58(%rbp),%rax
ffffffff8020435b:	48 8b 4d b0          	mov    -0x50(%rbp),%rcx
ffffffff8020435f:	48 8b 04 c1          	mov    (%rcx,%rax,8),%rax
ffffffff80204363:	48 83 e0 01          	and    $0x1,%rax
ffffffff80204367:	48 83 f8 00          	cmp    $0x0,%rax
ffffffff8020436b:	75 49                	jne    ffffffff802043b6 <VirtMemMan_FindFreeAddress+0x206>
ffffffff8020436d:	48 8b 45 e0          	mov    -0x20(%rbp),%rax
ffffffff80204371:	48 2b 45 d8          	sub    -0x28(%rbp),%rax
ffffffff80204375:	48 3d 00 00 00 40    	cmp    $0x40000000,%rax
ffffffff8020437b:	72 39                	jb     ffffffff802043b6 <VirtMemMan_FindFreeAddress+0x206>
ffffffff8020437d:	48 83 7d d8 00       	cmpq   $0x0,-0x28(%rbp)
ffffffff80204382:	75 17                	jne    ffffffff8020439b <VirtMemMan_FindFreeAddress+0x1eb>
ffffffff80204384:	48 8b 45 b8          	mov    -0x48(%rbp),%rax
ffffffff80204388:	48 c1 e0 27          	shl    $0x27,%rax
ffffffff8020438c:	48 8b 4d a8          	mov    -0x58(%rbp),%rcx
ffffffff80204390:	48 c1 e1 1e          	shl    $0x1e,%rcx
ffffffff80204394:	48 09 c8             	or     %rcx,%rax
ffffffff80204397:	48 89 45 c8          	mov    %rax,-0x38(%rbp)
ffffffff8020439b:	48 8b 45 d8          	mov    -0x28(%rbp),%rax
ffffffff8020439f:	48 05 00 00 00 40    	add    $0x40000000,%rax
ffffffff802043a5:	48 89 45 d8          	mov    %rax,-0x28(%rbp)
ffffffff802043a9:	48 8b 45 a8          	mov    -0x58(%rbp),%rax
ffffffff802043ad:	48 89 45 d0          	mov    %rax,-0x30(%rbp)
ffffffff802043b1:	e9 76 02 00 00       	jmpq   ffffffff8020462c <VirtMemMan_FindFreeAddress+0x47c>
ffffffff802043b6:	48 8b 45 a8          	mov    -0x58(%rbp),%rax
ffffffff802043ba:	48 8b 4d b0          	mov    -0x50(%rbp),%rcx
ffffffff802043be:	48 8b 04 c1          	mov    (%rcx,%rax,8),%rax
ffffffff802043c2:	48 83 e0 01          	and    $0x1,%rax
ffffffff802043c6:	48 83 f8 01          	cmp    $0x1,%rax
ffffffff802043ca:	0f 85 5a 02 00 00    	jne    ffffffff8020462a <VirtMemMan_FindFreeAddress+0x47a>
ffffffff802043d0:	48 8b 45 e0          	mov    -0x20(%rbp),%rax
ffffffff802043d4:	48 2b 45 d8          	sub    -0x28(%rbp),%rax
ffffffff802043d8:	48 3d 00 00 00 40    	cmp    $0x40000000,%rax
ffffffff802043de:	0f 83 46 02 00 00    	jae    ffffffff8020462a <VirtMemMan_FindFreeAddress+0x47a>
ffffffff802043e4:	48 8b 45 a8          	mov    -0x58(%rbp),%rax
ffffffff802043e8:	48 8b 4d b0          	mov    -0x50(%rbp),%rcx
ffffffff802043ec:	48 ba 00 f0 ff ff ff 	movabs $0xffffffffffff000,%rdx
ffffffff802043f3:	ff ff 0f
ffffffff802043f6:	48 23 14 c1          	and    (%rcx,%rax,8),%rdx
ffffffff802043fa:	48 89 d7             	mov    %rdx,%rdi
ffffffff802043fd:	e8 ae d1 ff ff       	callq  ffffffff802015b0 <GetVirtualAddress>
ffffffff80204402:	48 89 45 a0          	mov    %rax,-0x60(%rbp)
ffffffff80204406:	48 83 7d d8 00       	cmpq   $0x0,-0x28(%rbp)
ffffffff8020440b:	76 1d                	jbe    ffffffff8020442a <VirtMemMan_FindFreeAddress+0x27a>
ffffffff8020440d:	48 83 7d a8 00       	cmpq   $0x0,-0x58(%rbp)
ffffffff80204412:	74 16                	je     ffffffff8020442a <VirtMemMan_FindFreeAddress+0x27a>
ffffffff80204414:	48 8b 45 a8          	mov    -0x58(%rbp),%rax
ffffffff80204418:	48 83 e8 01          	sub    $0x1,%rax
ffffffff8020441c:	48 3b 45 d0          	cmp    -0x30(%rbp),%rax
ffffffff80204420:	74 08                	je     ffffffff8020442a <VirtMemMan_FindFreeAddress+0x27a>
ffffffff80204422:	48 c7 45 d8 00 00 00 	movq   $0x0,-0x28(%rbp)
ffffffff80204429:	00
ffffffff8020442a:	48 c7 45 98 00 00 00 	movq   $0x0,-0x68(%rbp)
ffffffff80204431:	00
ffffffff80204432:	31 c0                	xor    %eax,%eax
ffffffff80204434:	88 c1                	mov    %al,%cl
ffffffff80204436:	48 81 7d 98 00 02 00 	cmpq   $0x200,-0x68(%rbp)
ffffffff8020443d:	00
ffffffff8020443e:	88 4d 85             	mov    %cl,-0x7b(%rbp)
ffffffff80204441:	73 0e                	jae    ffffffff80204451 <VirtMemMan_FindFreeAddress+0x2a1>
ffffffff80204443:	48 8b 45 d8          	mov    -0x28(%rbp),%rax
ffffffff80204447:	48 3b 45 e0          	cmp    -0x20(%rbp),%rax
ffffffff8020444b:	0f 92 c1             	setb   %cl
ffffffff8020444e:	88 4d 85             	mov    %cl,-0x7b(%rbp)
ffffffff80204451:	8a 45 85             	mov    -0x7b(%rbp),%al
ffffffff80204454:	a8 01                	test   $0x1,%al
ffffffff80204456:	75 05                	jne    ffffffff8020445d <VirtMemMan_FindFreeAddress+0x2ad>
ffffffff80204458:	e9 cb 01 00 00       	jmpq   ffffffff80204628 <VirtMemMan_FindFreeAddress+0x478>
ffffffff8020445d:	48 8b 45 98          	mov    -0x68(%rbp),%rax
ffffffff80204461:	48 8b 4d a0          	mov    -0x60(%rbp),%rcx
ffffffff80204465:	48 8b 04 c1          	mov    (%rcx,%rax,8),%rax
ffffffff80204469:	48 83 e0 01          	and    $0x1,%rax
ffffffff8020446d:	48 83 f8 00          	cmp    $0x0,%rax
ffffffff80204471:	75 54                	jne    ffffffff802044c7 <VirtMemMan_FindFreeAddress+0x317>
ffffffff80204473:	48 8b 45 e0          	mov    -0x20(%rbp),%rax
ffffffff80204477:	48 2b 45 d8          	sub    -0x28(%rbp),%rax
ffffffff8020447b:	48 3d 00 00 20 00    	cmp    $0x200000,%rax
ffffffff80204481:	72 44                	jb     ffffffff802044c7 <VirtMemMan_FindFreeAddress+0x317>
ffffffff80204483:	48 83 7d d8 00       	cmpq   $0x0,-0x28(%rbp)
ffffffff80204488:	75 22                	jne    ffffffff802044ac <VirtMemMan_FindFreeAddress+0x2fc>
ffffffff8020448a:	48 8b 45 b8          	mov    -0x48(%rbp),%rax
ffffffff8020448e:	48 c1 e0 27          	shl    $0x27,%rax
ffffffff80204492:	48 8b 4d a8          	mov    -0x58(%rbp),%rcx
ffffffff80204496:	48 c1 e1 1e          	shl    $0x1e,%rcx
ffffffff8020449a:	48 09 c8             	or     %rcx,%rax
ffffffff8020449d:	48 8b 4d 98          	mov    -0x68(%rbp),%rcx
ffffffff802044a1:	48 c1 e1 15          	shl    $0x15,%rcx
ffffffff802044a5:	48 09 c8             	or     %rcx,%rax
ffffffff802044a8:	48 89 45 c8          	mov    %rax,-0x38(%rbp)
ffffffff802044ac:	48 8b 45 d8          	mov    -0x28(%rbp),%rax
ffffffff802044b0:	48 05 00 00 20 00    	add    $0x200000,%rax
ffffffff802044b6:	48 89 45 d8          	mov    %rax,-0x28(%rbp)
ffffffff802044ba:	48 8b 45 98          	mov    -0x68(%rbp),%rax
ffffffff802044be:	48 89 45 d0          	mov    %rax,-0x30(%rbp)
ffffffff802044c2:	e9 4e 01 00 00       	jmpq   ffffffff80204615 <VirtMemMan_FindFreeAddress+0x465>
ffffffff802044c7:	48 8b 45 98          	mov    -0x68(%rbp),%rax
ffffffff802044cb:	48 8b 4d a0          	mov    -0x60(%rbp),%rcx
ffffffff802044cf:	48 8b 04 c1          	mov    (%rcx,%rax,8),%rax
ffffffff802044d3:	48 83 e0 01          	and    $0x1,%rax
ffffffff802044d7:	48 83 f8 01          	cmp    $0x1,%rax
ffffffff802044db:	0f 85 32 01 00 00    	jne    ffffffff80204613 <VirtMemMan_FindFreeAddress+0x463>
ffffffff802044e1:	48 8b 45 e0          	mov    -0x20(%rbp),%rax
ffffffff802044e5:	48 2b 45 d8          	sub    -0x28(%rbp),%rax
ffffffff802044e9:	48 3d 00 00 20 00    	cmp    $0x200000,%rax
ffffffff802044ef:	0f 83 1e 01 00 00    	jae    ffffffff80204613 <VirtMemMan_FindFreeAddress+0x463>
ffffffff802044f5:	48 8b 45 98          	mov    -0x68(%rbp),%rax
ffffffff802044f9:	48 8b 4d a0          	mov    -0x60(%rbp),%rcx
ffffffff802044fd:	48 ba 00 f0 ff ff ff 	movabs $0xffffffffffff000,%rdx
ffffffff80204504:	ff ff 0f
ffffffff80204507:	48 23 14 c1          	and    (%rcx,%rax,8),%rdx
ffffffff8020450b:	48 89 d7             	mov    %rdx,%rdi
ffffffff8020450e:	e8 9d d0 ff ff       	callq  ffffffff802015b0 <GetVirtualAddress>
ffffffff80204513:	48 89 45 90          	mov    %rax,-0x70(%rbp)
ffffffff80204517:	48 83 7d d8 00       	cmpq   $0x0,-0x28(%rbp)
ffffffff8020451c:	76 1d                	jbe    ffffffff8020453b <VirtMemMan_FindFreeAddress+0x38b>
ffffffff8020451e:	48 83 7d 98 00       	cmpq   $0x0,-0x68(%rbp)
ffffffff80204523:	74 16                	je     ffffffff8020453b <VirtMemMan_FindFreeAddress+0x38b>
ffffffff80204525:	48 8b 45 98          	mov    -0x68(%rbp),%rax
ffffffff80204529:	48 83 e8 01          	sub    $0x1,%rax
ffffffff8020452d:	48 3b 45 d0          	cmp    -0x30(%rbp),%rax
ffffffff80204531:	74 08                	je     ffffffff8020453b <VirtMemMan_FindFreeAddress+0x38b>
ffffffff80204533:	48 c7 45 d8 00 00 00 	movq   $0x0,-0x28(%rbp)
ffffffff8020453a:	00
ffffffff8020453b:	48 c7 45 88 00 00 00 	movq   $0x0,-0x78(%rbp)
ffffffff80204542:	00
ffffffff80204543:	31 c0                	xor    %eax,%eax
ffffffff80204545:	88 c1                	mov    %al,%cl
ffffffff80204547:	48 81 7d 88 00 02 00 	cmpq   $0x200,-0x78(%rbp)
ffffffff8020454e:	00
ffffffff8020454f:	88 4d 84             	mov    %cl,-0x7c(%rbp)
ffffffff80204552:	73 0e                	jae    ffffffff80204562 <VirtMemMan_FindFreeAddress+0x3b2>
ffffffff80204554:	48 8b 45 d8          	mov    -0x28(%rbp),%rax
ffffffff80204558:	48 3b 45 e0          	cmp    -0x20(%rbp),%rax
ffffffff8020455c:	0f 92 c1             	setb   %cl
ffffffff8020455f:	88 4d 84             	mov    %cl,-0x7c(%rbp)
ffffffff80204562:	8a 45 84             	mov    -0x7c(%rbp),%al
ffffffff80204565:	a8 01                	test   $0x1,%al
ffffffff80204567:	75 05                	jne    ffffffff8020456e <VirtMemMan_FindFreeAddress+0x3be>
ffffffff80204569:	e9 a3 00 00 00       	jmpq   ffffffff80204611 <VirtMemMan_FindFreeAddress+0x461>
ffffffff8020456e:	48 83 7d 88 00       	cmpq   $0x0,-0x78(%rbp)
ffffffff80204573:	74 19                	je     ffffffff8020458e <VirtMemMan_FindFreeAddress+0x3de>
ffffffff80204575:	48 8b 45 d0          	mov    -0x30(%rbp),%rax
ffffffff80204579:	48 8b 4d 88          	mov    -0x78(%rbp),%rcx
ffffffff8020457d:	48 83 e9 01          	sub    $0x1,%rcx
ffffffff80204581:	48 39 c8             	cmp    %rcx,%rax
ffffffff80204584:	74 08                	je     ffffffff8020458e <VirtMemMan_FindFreeAddress+0x3de>
ffffffff80204586:	48 c7 45 d8 00 00 00 	movq   $0x0,-0x28(%rbp)
ffffffff8020458d:	00
ffffffff8020458e:	48 8b 45 88          	mov    -0x78(%rbp),%rax
ffffffff80204592:	48 8b 4d 90          	mov    -0x70(%rbp),%rcx
ffffffff80204596:	48 8b 04 c1          	mov    (%rcx,%rax,8),%rax
ffffffff8020459a:	48 83 e0 01          	and    $0x1,%rax
ffffffff8020459e:	48 83 f8 00          	cmp    $0x0,%rax
ffffffff802045a2:	75 5a                	jne    ffffffff802045fe <VirtMemMan_FindFreeAddress+0x44e>
ffffffff802045a4:	48 8b 45 e0          	mov    -0x20(%rbp),%rax
ffffffff802045a8:	48 2b 45 d8          	sub    -0x28(%rbp),%rax
ffffffff802045ac:	48 3d 00 10 00 00    	cmp    $0x1000,%rax
ffffffff802045b2:	72 4a                	jb     ffffffff802045fe <VirtMemMan_FindFreeAddress+0x44e>
ffffffff802045b4:	48 83 7d d8 00       	cmpq   $0x0,-0x28(%rbp)
ffffffff802045b9:	75 2d                	jne    ffffffff802045e8 <VirtMemMan_FindFreeAddress+0x438>
ffffffff802045bb:	48 8b 45 b8          	mov    -0x48(%rbp),%rax
ffffffff802045bf:	48 c1 e0 27          	shl    $0x27,%rax
ffffffff802045c3:	48 8b 4d a8          	mov    -0x58(%rbp),%rcx
ffffffff802045c7:	48 c1 e1 1e          	shl    $0x1e,%rcx
ffffffff802045cb:	48 09 c8             	or     %rcx,%rax
ffffffff802045ce:	48 8b 4d 98          	mov    -0x68(%rbp),%rcx
ffffffff802045d2:	48 c1 e1 15          	shl    $0x15,%rcx
ffffffff802045d6:	48 09 c8             	or     %rcx,%rax
ffffffff802045d9:	48 8b 4d 88          	mov    -0x78(%rbp),%rcx
ffffffff802045dd:	48 c1 e1 0c          	shl    $0xc,%rcx
ffffffff802045e1:	48 09 c8             	or     %rcx,%rax
ffffffff802045e4:	48 89 45 c8          	mov    %rax,-0x38(%rbp)
ffffffff802045e8:	48 8b 45 d8          	mov    -0x28(%rbp),%rax
ffffffff802045ec:	48 05 00 10 00 00    	add    $0x1000,%rax
ffffffff802045f2:	48 89 45 d8          	mov    %rax,-0x28(%rbp)
ffffffff802045f6:	48 8b 45 88          	mov    -0x78(%rbp),%rax
ffffffff802045fa:	48 89 45 d0          	mov    %rax,-0x30(%rbp)
ffffffff802045fe:	eb 00                	jmp    ffffffff80204600 <VirtMemMan_FindFreeAddress+0x450>
ffffffff80204600:	48 8b 45 88          	mov    -0x78(%rbp),%rax
ffffffff80204604:	48 83 c0 01          	add    $0x1,%rax
ffffffff80204608:	48 89 45 88          	mov    %rax,-0x78(%rbp)
ffffffff8020460c:	e9 32 ff ff ff       	jmpq   ffffffff80204543 <VirtMemMan_FindFreeAddress+0x393>
ffffffff80204611:	eb 00                	jmp    ffffffff80204613 <VirtMemMan_FindFreeAddress+0x463>
ffffffff80204613:	eb 00                	jmp    ffffffff80204615 <VirtMemMan_FindFreeAddress+0x465>
ffffffff80204615:	eb 00                	jmp    ffffffff80204617 <VirtMemMan_FindFreeAddress+0x467>
ffffffff80204617:	48 8b 45 98          	mov    -0x68(%rbp),%rax
ffffffff8020461b:	48 83 c0 01          	add    $0x1,%rax
ffffffff8020461f:	48 89 45 98          	mov    %rax,-0x68(%rbp)
ffffffff80204623:	e9 0a fe ff ff       	jmpq   ffffffff80204432 <VirtMemMan_FindFreeAddress+0x282>
ffffffff80204628:	eb 00                	jmp    ffffffff8020462a <VirtMemMan_FindFreeAddress+0x47a>
ffffffff8020462a:	eb 00                	jmp    ffffffff8020462c <VirtMemMan_FindFreeAddress+0x47c>
ffffffff8020462c:	eb 00                	jmp    ffffffff8020462e <VirtMemMan_FindFreeAddress+0x47e>
ffffffff8020462e:	48 8b 45 a8          	mov    -0x58(%rbp),%rax
ffffffff80204632:	48 83 c0 01          	add    $0x1,%rax
ffffffff80204636:	48 89 45 a8          	mov    %rax,-0x58(%rbp)
ffffffff8020463a:	e9 ed fc ff ff       	jmpq   ffffffff8020432c <VirtMemMan_FindFreeAddress+0x17c>
ffffffff8020463f:	eb 00                	jmp    ffffffff80204641 <VirtMemMan_FindFreeAddress+0x491>
ffffffff80204641:	eb 00                	jmp    ffffffff80204643 <VirtMemMan_FindFreeAddress+0x493>
ffffffff80204643:	eb 00                	jmp    ffffffff80204645 <VirtMemMan_FindFreeAddress+0x495>
ffffffff80204645:	48 8b 45 b8          	mov    -0x48(%rbp),%rax
ffffffff80204649:	48 83 c0 01          	add    $0x1,%rax
ffffffff8020464d:	48 89 45 b8          	mov    %rax,-0x48(%rbp)
ffffffff80204651:	e9 d1 fb ff ff       	jmpq   ffffffff80204227 <VirtMemMan_FindFreeAddress+0x77>
ffffffff80204656:	48 8b 45 c8          	mov    -0x38(%rbp),%rax
ffffffff8020465a:	48 81 c4 80 00 00 00 	add    $0x80,%rsp
ffffffff80204661:	5d                   	pop    %rbp
ffffffff80204662:	c3                   	retq
ffffffff80204663:	66 2e 0f 1f 84 00 00 	nopw   %cs:0x0(%rax,%rax,1)
ffffffff8020466a:	00 00 00
ffffffff8020466d:	0f 1f 00             	nopl   (%rax)

ffffffff80204670 <kernel_main>:
ffffffff80204670:	55                   	push   %rbp
ffffffff80204671:	48 89 e5             	mov    %rsp,%rbp
ffffffff80204674:	5d                   	pop    %rbp
ffffffff80204675:	c3                   	retq
ffffffff80204676:	66 2e 0f 1f 84 00 00 	nopw   %cs:0x0(%rax,%rax,1)
ffffffff8020467d:	00 00 00

ffffffff80204680 <memcpy>:
ffffffff80204680:	55                   	push   %rbp
ffffffff80204681:	48 89 e5             	mov    %rsp,%rbp
ffffffff80204684:	48 83 ec 38          	sub    $0x38,%rsp
ffffffff80204688:	48 89 7d f8          	mov    %rdi,-0x8(%rbp)
ffffffff8020468c:	48 89 75 f0          	mov    %rsi,-0x10(%rbp)
ffffffff80204690:	48 89 55 e8          	mov    %rdx,-0x18(%rbp)
ffffffff80204694:	48 8b 55 e8          	mov    -0x18(%rbp),%rdx
ffffffff80204698:	48 c1 ea 02          	shr    $0x2,%rdx
ffffffff8020469c:	48 8b 75 e8          	mov    -0x18(%rbp),%rsi
ffffffff802046a0:	48 83 e6 03          	and    $0x3,%rsi
ffffffff802046a4:	48 8b 7d f8          	mov    -0x8(%rbp),%rdi
ffffffff802046a8:	48 8b 45 f0          	mov    -0x10(%rbp),%rax
ffffffff802046ac:	48 89 75 c8          	mov    %rsi,-0x38(%rbp)
ffffffff802046b0:	48 89 d1             	mov    %rdx,%rcx
ffffffff802046b3:	48 89 c6             	mov    %rax,%rsi
ffffffff802046b6:	f3 a5                	rep movsl %ds:(%rsi),%es:(%rdi)
ffffffff802046b8:	8b 4d c8             	mov    -0x38(%rbp),%ecx
ffffffff802046bb:	f3 a4                	rep movsb %ds:(%rsi),%es:(%rdi)
ffffffff802046bd:	48 89 4d e0          	mov    %rcx,-0x20(%rbp)
ffffffff802046c1:	48 89 7d d8          	mov    %rdi,-0x28(%rbp)
ffffffff802046c5:	48 89 75 d0          	mov    %rsi,-0x30(%rbp)
ffffffff802046c9:	48 8b 45 f8          	mov    -0x8(%rbp),%rax
ffffffff802046cd:	48 83 c4 38          	add    $0x38,%rsp
ffffffff802046d1:	5d                   	pop    %rbp
ffffffff802046d2:	c3                   	retq
ffffffff802046d3:	0f 1f 00             	nopl   (%rax)
ffffffff802046d6:	66 2e 0f 1f 84 00 00 	nopw   %cs:0x0(%rax,%rax,1)
ffffffff802046dd:	00 00 00

ffffffff802046e0 <memset>:
ffffffff802046e0:	55                   	push   %rbp
ffffffff802046e1:	48 89 e5             	mov    %rsp,%rbp
ffffffff802046e4:	48 83 ec 18          	sub    $0x18,%rsp
ffffffff802046e8:	48 89 7d f8          	mov    %rdi,-0x8(%rbp)
ffffffff802046ec:	89 75 f4             	mov    %esi,-0xc(%rbp)
ffffffff802046ef:	48 89 55 e8          	mov    %rdx,-0x18(%rbp)
ffffffff802046f3:	48 8b 45 e8          	mov    -0x18(%rbp),%rax
ffffffff802046f7:	48 89 c1             	mov    %rax,%rcx
ffffffff802046fa:	48 83 c1 ff          	add    $0xffffffffffffffff,%rcx
ffffffff802046fe:	48 89 4d e8          	mov    %rcx,-0x18(%rbp)
ffffffff80204702:	48 83 f8 00          	cmp    $0x0,%rax
ffffffff80204706:	74 18                	je     ffffffff80204720 <memset+0x40>
ffffffff80204708:	8b 45 f4             	mov    -0xc(%rbp),%eax
ffffffff8020470b:	88 c1                	mov    %al,%cl
ffffffff8020470d:	48 8b 55 f8          	mov    -0x8(%rbp),%rdx
ffffffff80204711:	48 89 d6             	mov    %rdx,%rsi
ffffffff80204714:	48 83 c6 01          	add    $0x1,%rsi
ffffffff80204718:	48 89 75 f8          	mov    %rsi,-0x8(%rbp)
ffffffff8020471c:	88 0a                	mov    %cl,(%rdx)
ffffffff8020471e:	eb d3                	jmp    ffffffff802046f3 <memset+0x13>
ffffffff80204720:	48 8b 45 f8          	mov    -0x8(%rbp),%rax
ffffffff80204724:	48 83 c4 18          	add    $0x18,%rsp
ffffffff80204728:	5d                   	pop    %rbp
ffffffff80204729:	c3                   	retq
ffffffff8020472a:	66 0f 1f 44 00 00    	nopw   0x0(%rax,%rax,1)

ffffffff80204730 <memmove>:
ffffffff80204730:	55                   	push   %rbp
ffffffff80204731:	48 89 e5             	mov    %rsp,%rbp
ffffffff80204734:	48 83 ec 28          	sub    $0x28,%rsp
ffffffff80204738:	48 89 7d f8          	mov    %rdi,-0x8(%rbp)
ffffffff8020473c:	48 89 75 f0          	mov    %rsi,-0x10(%rbp)
ffffffff80204740:	48 89 55 e8          	mov    %rdx,-0x18(%rbp)
ffffffff80204744:	48 8b 55 f8          	mov    -0x8(%rbp),%rdx
ffffffff80204748:	48 89 55 e0          	mov    %rdx,-0x20(%rbp)
ffffffff8020474c:	48 8b 55 f0          	mov    -0x10(%rbp),%rdx
ffffffff80204750:	48 89 55 d8          	mov    %rdx,-0x28(%rbp)
ffffffff80204754:	48 8b 55 f0          	mov    -0x10(%rbp),%rdx
ffffffff80204758:	48 3b 55 f8          	cmp    -0x8(%rbp),%rdx
ffffffff8020475c:	0f 84 a4 00 00 00    	je     ffffffff80204806 <memmove+0xd6>
ffffffff80204762:	48 8b 45 f0          	mov    -0x10(%rbp),%rax
ffffffff80204766:	48 3b 45 f8          	cmp    -0x8(%rbp),%rax
ffffffff8020476a:	76 3d                	jbe    ffffffff802047a9 <memmove+0x79>
ffffffff8020476c:	eb 00                	jmp    ffffffff8020476e <memmove+0x3e>
ffffffff8020476e:	48 8b 45 e8          	mov    -0x18(%rbp),%rax
ffffffff80204772:	48 89 c1             	mov    %rax,%rcx
ffffffff80204775:	48 83 c1 ff          	add    $0xffffffffffffffff,%rcx
ffffffff80204779:	48 89 4d e8          	mov    %rcx,-0x18(%rbp)
ffffffff8020477d:	48 83 f8 00          	cmp    $0x0,%rax
ffffffff80204781:	74 24                	je     ffffffff802047a7 <memmove+0x77>
ffffffff80204783:	48 8b 45 d8          	mov    -0x28(%rbp),%rax
ffffffff80204787:	48 89 c1             	mov    %rax,%rcx
ffffffff8020478a:	48 83 c1 01          	add    $0x1,%rcx
ffffffff8020478e:	48 89 4d d8          	mov    %rcx,-0x28(%rbp)
ffffffff80204792:	8a 10                	mov    (%rax),%dl
ffffffff80204794:	48 8b 45 e0          	mov    -0x20(%rbp),%rax
ffffffff80204798:	48 89 c1             	mov    %rax,%rcx
ffffffff8020479b:	48 83 c1 01          	add    $0x1,%rcx
ffffffff8020479f:	48 89 4d e0          	mov    %rcx,-0x20(%rbp)
ffffffff802047a3:	88 10                	mov    %dl,(%rax)
ffffffff802047a5:	eb c7                	jmp    ffffffff8020476e <memmove+0x3e>
ffffffff802047a7:	eb 5b                	jmp    ffffffff80204804 <memmove+0xd4>
ffffffff802047a9:	48 8b 45 e8          	mov    -0x18(%rbp),%rax
ffffffff802047ad:	48 83 e8 01          	sub    $0x1,%rax
ffffffff802047b1:	48 03 45 e0          	add    -0x20(%rbp),%rax
ffffffff802047b5:	48 89 45 e0          	mov    %rax,-0x20(%rbp)
ffffffff802047b9:	48 8b 45 e8          	mov    -0x18(%rbp),%rax
ffffffff802047bd:	48 83 e8 01          	sub    $0x1,%rax
ffffffff802047c1:	48 03 45 d8          	add    -0x28(%rbp),%rax
ffffffff802047c5:	48 89 45 d8          	mov    %rax,-0x28(%rbp)
ffffffff802047c9:	48 8b 45 e8          	mov    -0x18(%rbp),%rax
ffffffff802047cd:	48 89 c1             	mov    %rax,%rcx
ffffffff802047d0:	48 83 c1 ff          	add    $0xffffffffffffffff,%rcx
ffffffff802047d4:	48 89 4d e8          	mov    %rcx,-0x18(%rbp)
ffffffff802047d8:	48 83 f8 00          	cmp    $0x0,%rax
ffffffff802047dc:	74 24                	je     ffffffff80204802 <memmove+0xd2>
ffffffff802047de:	48 8b 45 d8          	mov    -0x28(%rbp),%rax
ffffffff802047e2:	48 89 c1             	mov    %rax,%rcx
ffffffff802047e5:	48 83 c1 ff          	add    $0xffffffffffffffff,%rcx
ffffffff802047e9:	48 89 4d d8          	mov    %rcx,-0x28(%rbp)
ffffffff802047ed:	8a 10                	mov    (%rax),%dl
ffffffff802047ef:	48 8b 45 e0          	mov    -0x20(%rbp),%rax
ffffffff802047f3:	48 89 c1             	mov    %rax,%rcx
ffffffff802047f6:	48 83 c1 ff          	add    $0xffffffffffffffff,%rcx
ffffffff802047fa:	48 89 4d e0          	mov    %rcx,-0x20(%rbp)
ffffffff802047fe:	88 10                	mov    %dl,(%rax)
ffffffff80204800:	eb c7                	jmp    ffffffff802047c9 <memmove+0x99>
ffffffff80204802:	eb 00                	jmp    ffffffff80204804 <memmove+0xd4>
ffffffff80204804:	eb 00                	jmp    ffffffff80204806 <memmove+0xd6>
ffffffff80204806:	48 8b 45 f8          	mov    -0x8(%rbp),%rax
ffffffff8020480a:	48 83 c4 28          	add    $0x28,%rsp
ffffffff8020480e:	5d                   	pop    %rbp
ffffffff8020480f:	c3                   	retq

ffffffff80204810 <strrev>:
ffffffff80204810:	55                   	push   %rbp
ffffffff80204811:	48 89 e5             	mov    %rsp,%rbp
ffffffff80204814:	48 83 ec 20          	sub    $0x20,%rsp
ffffffff80204818:	48 89 7d f8          	mov    %rdi,-0x8(%rbp)
ffffffff8020481c:	48 83 7d f8 00       	cmpq   $0x0,-0x8(%rbp)
ffffffff80204821:	74 09                	je     ffffffff8020482c <strrev+0x1c>
ffffffff80204823:	48 8b 45 f8          	mov    -0x8(%rbp),%rax
ffffffff80204827:	80 38 00             	cmpb   $0x0,(%rax)
ffffffff8020482a:	75 02                	jne    ffffffff8020482e <strrev+0x1e>
ffffffff8020482c:	eb 62                	jmp    ffffffff80204890 <strrev+0x80>
ffffffff8020482e:	48 8b 45 f8          	mov    -0x8(%rbp),%rax
ffffffff80204832:	48 8b 7d f8          	mov    -0x8(%rbp),%rdi
ffffffff80204836:	48 89 45 e0          	mov    %rax,-0x20(%rbp)
ffffffff8020483a:	e8 61 00 00 00       	callq  ffffffff802048a0 <strlen>
ffffffff8020483f:	48 8b 7d e0          	mov    -0x20(%rbp),%rdi
ffffffff80204843:	48 01 c7             	add    %rax,%rdi
ffffffff80204846:	48 83 c7 ff          	add    $0xffffffffffffffff,%rdi
ffffffff8020484a:	48 89 7d e8          	mov    %rdi,-0x18(%rbp)
ffffffff8020484e:	48 8b 45 e8          	mov    -0x18(%rbp),%rax
ffffffff80204852:	48 3b 45 f8          	cmp    -0x8(%rbp),%rax
ffffffff80204856:	76 38                	jbe    ffffffff80204890 <strrev+0x80>
ffffffff80204858:	48 8b 45 f8          	mov    -0x8(%rbp),%rax
ffffffff8020485c:	8a 08                	mov    (%rax),%cl
ffffffff8020485e:	88 4d f7             	mov    %cl,-0x9(%rbp)
ffffffff80204861:	48 8b 45 e8          	mov    -0x18(%rbp),%rax
ffffffff80204865:	8a 08                	mov    (%rax),%cl
ffffffff80204867:	48 8b 45 f8          	mov    -0x8(%rbp),%rax
ffffffff8020486b:	88 08                	mov    %cl,(%rax)
ffffffff8020486d:	8a 4d f7             	mov    -0x9(%rbp),%cl
ffffffff80204870:	48 8b 45 e8          	mov    -0x18(%rbp),%rax
ffffffff80204874:	88 08                	mov    %cl,(%rax)
ffffffff80204876:	48 8b 45 f8          	mov    -0x8(%rbp),%rax
ffffffff8020487a:	48 83 c0 01          	add    $0x1,%rax
ffffffff8020487e:	48 89 45 f8          	mov    %rax,-0x8(%rbp)
ffffffff80204882:	48 8b 45 e8          	mov    -0x18(%rbp),%rax
ffffffff80204886:	48 83 c0 ff          	add    $0xffffffffffffffff,%rax
ffffffff8020488a:	48 89 45 e8          	mov    %rax,-0x18(%rbp)
ffffffff8020488e:	eb be                	jmp    ffffffff8020484e <strrev+0x3e>
ffffffff80204890:	48 83 c4 20          	add    $0x20,%rsp
ffffffff80204894:	5d                   	pop    %rbp
ffffffff80204895:	c3                   	retq
ffffffff80204896:	66 2e 0f 1f 84 00 00 	nopw   %cs:0x0(%rax,%rax,1)
ffffffff8020489d:	00 00 00

ffffffff802048a0 <strlen>:
ffffffff802048a0:	55                   	push   %rbp
ffffffff802048a1:	48 89 e5             	mov    %rsp,%rbp
ffffffff802048a4:	48 83 ec 10          	sub    $0x10,%rsp
ffffffff802048a8:	48 89 7d f8          	mov    %rdi,-0x8(%rbp)
ffffffff802048ac:	48 c7 45 f0 00 00 00 	movq   $0x0,-0x10(%rbp)
ffffffff802048b3:	00
ffffffff802048b4:	48 8b 45 f0          	mov    -0x10(%rbp),%rax
ffffffff802048b8:	48 8b 4d f8          	mov    -0x8(%rbp),%rcx
ffffffff802048bc:	0f be 14 01          	movsbl (%rcx,%rax,1),%edx
ffffffff802048c0:	83 fa 00             	cmp    $0x0,%edx
ffffffff802048c3:	74 0e                	je     ffffffff802048d3 <strlen+0x33>
ffffffff802048c5:	48 8b 45 f0          	mov    -0x10(%rbp),%rax
ffffffff802048c9:	48 83 c0 01          	add    $0x1,%rax
ffffffff802048cd:	48 89 45 f0          	mov    %rax,-0x10(%rbp)
ffffffff802048d1:	eb e1                	jmp    ffffffff802048b4 <strlen+0x14>
ffffffff802048d3:	48 8b 45 f0          	mov    -0x10(%rbp),%rax
ffffffff802048d7:	48 83 c4 10          	add    $0x10,%rsp
ffffffff802048db:	5d                   	pop    %rbp
ffffffff802048dc:	c3                   	retq
ffffffff802048dd:	0f 1f 00             	nopl   (%rax)

ffffffff802048e0 <strncmp>:
ffffffff802048e0:	55                   	push   %rbp
ffffffff802048e1:	48 89 e5             	mov    %rsp,%rbp
ffffffff802048e4:	48 83 ec 20          	sub    $0x20,%rsp
ffffffff802048e8:	48 89 7d f0          	mov    %rdi,-0x10(%rbp)
ffffffff802048ec:	48 89 75 e8          	mov    %rsi,-0x18(%rbp)
ffffffff802048f0:	48 89 55 e0          	mov    %rdx,-0x20(%rbp)
ffffffff802048f4:	48 8b 45 e0          	mov    -0x20(%rbp),%rax
ffffffff802048f8:	48 89 c1             	mov    %rax,%rcx
ffffffff802048fb:	48 83 c1 ff          	add    $0xffffffffffffffff,%rcx
ffffffff802048ff:	48 89 4d e0          	mov    %rcx,-0x20(%rbp)
ffffffff80204903:	48 83 f8 00          	cmp    $0x0,%rax
ffffffff80204907:	74 41                	je     ffffffff8020494a <strncmp+0x6a>
ffffffff80204909:	48 8b 45 f0          	mov    -0x10(%rbp),%rax
ffffffff8020490d:	48 89 c1             	mov    %rax,%rcx
ffffffff80204910:	48 83 c1 01          	add    $0x1,%rcx
ffffffff80204914:	48 89 4d f0          	mov    %rcx,-0x10(%rbp)
ffffffff80204918:	0f be 10             	movsbl (%rax),%edx
ffffffff8020491b:	48 8b 45 e8          	mov    -0x18(%rbp),%rax
ffffffff8020491f:	48 89 c1             	mov    %rax,%rcx
ffffffff80204922:	48 83 c1 01          	add    $0x1,%rcx
ffffffff80204926:	48 89 4d e8          	mov    %rcx,-0x18(%rbp)
ffffffff8020492a:	0f be 30             	movsbl (%rax),%esi
ffffffff8020492d:	39 f2                	cmp    %esi,%edx
ffffffff8020492f:	74 17                	je     ffffffff80204948 <strncmp+0x68>
ffffffff80204931:	48 8b 45 f0          	mov    -0x10(%rbp),%rax
ffffffff80204935:	0f b6 48 ff          	movzbl -0x1(%rax),%ecx
ffffffff80204939:	48 8b 45 e8          	mov    -0x18(%rbp),%rax
ffffffff8020493d:	0f b6 50 ff          	movzbl -0x1(%rax),%edx
ffffffff80204941:	29 d1                	sub    %edx,%ecx
ffffffff80204943:	89 4d fc             	mov    %ecx,-0x4(%rbp)
ffffffff80204946:	eb 09                	jmp    ffffffff80204951 <strncmp+0x71>
ffffffff80204948:	eb aa                	jmp    ffffffff802048f4 <strncmp+0x14>
ffffffff8020494a:	c7 45 fc 00 00 00 00 	movl   $0x0,-0x4(%rbp)
ffffffff80204951:	8b 45 fc             	mov    -0x4(%rbp),%eax
ffffffff80204954:	48 83 c4 20          	add    $0x20,%rsp
ffffffff80204958:	5d                   	pop    %rbp
ffffffff80204959:	c3                   	retq
ffffffff8020495a:	66 0f 1f 44 00 00    	nopw   0x0(%rax,%rax,1)

ffffffff80204960 <strcpy>:
ffffffff80204960:	55                   	push   %rbp
ffffffff80204961:	48 89 e5             	mov    %rsp,%rbp
ffffffff80204964:	48 83 ec 20          	sub    $0x20,%rsp
ffffffff80204968:	48 89 7d f8          	mov    %rdi,-0x8(%rbp)
ffffffff8020496c:	48 89 75 f0          	mov    %rsi,-0x10(%rbp)
ffffffff80204970:	48 8b 7d f8          	mov    -0x8(%rbp),%rdi
ffffffff80204974:	48 8b 75 f0          	mov    -0x10(%rbp),%rsi
ffffffff80204978:	48 8b 45 f0          	mov    -0x10(%rbp),%rax
ffffffff8020497c:	48 89 7d e8          	mov    %rdi,-0x18(%rbp)
ffffffff80204980:	48 89 c7             	mov    %rax,%rdi
ffffffff80204983:	48 89 75 e0          	mov    %rsi,-0x20(%rbp)
ffffffff80204987:	e8 14 ff ff ff       	callq  ffffffff802048a0 <strlen>
ffffffff8020498c:	48 8b 7d e8          	mov    -0x18(%rbp),%rdi
ffffffff80204990:	48 8b 75 e0          	mov    -0x20(%rbp),%rsi
ffffffff80204994:	48 89 c2             	mov    %rax,%rdx
ffffffff80204997:	e8 e4 fc ff ff       	callq  ffffffff80204680 <memcpy>
ffffffff8020499c:	48 83 c4 20          	add    $0x20,%rsp
ffffffff802049a0:	5d                   	pop    %rbp
ffffffff802049a1:	c3                   	retq
ffffffff802049a2:	0f 1f 40 00          	nopl   0x0(%rax)
ffffffff802049a6:	66 2e 0f 1f 84 00 00 	nopw   %cs:0x0(%rax,%rax,1)
ffffffff802049ad:	00 00 00

ffffffff802049b0 <strchr>:
ffffffff802049b0:	55                   	push   %rbp
ffffffff802049b1:	48 89 e5             	mov    %rsp,%rbp
ffffffff802049b4:	48 83 ec 18          	sub    $0x18,%rsp
ffffffff802049b8:	48 89 7d f0          	mov    %rdi,-0x10(%rbp)
ffffffff802049bc:	89 75 ec             	mov    %esi,-0x14(%rbp)
ffffffff802049bf:	48 8b 45 f0          	mov    -0x10(%rbp),%rax
ffffffff802049c3:	0f be 08             	movsbl (%rax),%ecx
ffffffff802049c6:	8b 55 ec             	mov    -0x14(%rbp),%edx
ffffffff802049c9:	40 88 d6             	mov    %dl,%sil
ffffffff802049cc:	40 0f be d6          	movsbl %sil,%edx
ffffffff802049d0:	39 d1                	cmp    %edx,%ecx
ffffffff802049d2:	74 20                	je     ffffffff802049f4 <strchr+0x44>
ffffffff802049d4:	48 8b 45 f0          	mov    -0x10(%rbp),%rax
ffffffff802049d8:	48 89 c1             	mov    %rax,%rcx
ffffffff802049db:	48 83 c1 01          	add    $0x1,%rcx
ffffffff802049df:	48 89 4d f0          	mov    %rcx,-0x10(%rbp)
ffffffff802049e3:	80 38 00             	cmpb   $0x0,(%rax)
ffffffff802049e6:	75 0a                	jne    ffffffff802049f2 <strchr+0x42>
ffffffff802049e8:	48 c7 45 f8 00 00 00 	movq   $0x0,-0x8(%rbp)
ffffffff802049ef:	00
ffffffff802049f0:	eb 0a                	jmp    ffffffff802049fc <strchr+0x4c>
ffffffff802049f2:	eb cb                	jmp    ffffffff802049bf <strchr+0xf>
ffffffff802049f4:	48 8b 45 f0          	mov    -0x10(%rbp),%rax
ffffffff802049f8:	48 89 45 f8          	mov    %rax,-0x8(%rbp)
ffffffff802049fc:	48 8b 45 f8          	mov    -0x8(%rbp),%rax
ffffffff80204a00:	48 83 c4 18          	add    $0x18,%rsp
ffffffff80204a04:	5d                   	pop    %rbp
ffffffff80204a05:	c3                   	retq
ffffffff80204a06:	66 2e 0f 1f 84 00 00 	nopw   %cs:0x0(%rax,%rax,1)
ffffffff80204a0d:	00 00 00

ffffffff80204a10 <strrchr>:
ffffffff80204a10:	55                   	push   %rbp
ffffffff80204a11:	48 89 e5             	mov    %rsp,%rbp
ffffffff80204a14:	48 83 ec 30          	sub    $0x30,%rsp
ffffffff80204a18:	48 89 7d f0          	mov    %rdi,-0x10(%rbp)
ffffffff80204a1c:	89 75 ec             	mov    %esi,-0x14(%rbp)
ffffffff80204a1f:	48 8b 7d f0          	mov    -0x10(%rbp),%rdi
ffffffff80204a23:	48 8b 45 f0          	mov    -0x10(%rbp),%rax
ffffffff80204a27:	48 89 7d d8          	mov    %rdi,-0x28(%rbp)
ffffffff80204a2b:	48 89 c7             	mov    %rax,%rdi
ffffffff80204a2e:	e8 6d fe ff ff       	callq  ffffffff802048a0 <strlen>
ffffffff80204a33:	48 8b 7d d8          	mov    -0x28(%rbp),%rdi
ffffffff80204a37:	48 01 c7             	add    %rax,%rdi
ffffffff80204a3a:	48 89 7d e0          	mov    %rdi,-0x20(%rbp)
ffffffff80204a3e:	48 8b 45 e0          	mov    -0x20(%rbp),%rax
ffffffff80204a42:	0f be 08             	movsbl (%rax),%ecx
ffffffff80204a45:	8b 55 ec             	mov    -0x14(%rbp),%edx
ffffffff80204a48:	40 88 d6             	mov    %dl,%sil
ffffffff80204a4b:	40 0f be d6          	movsbl %sil,%edx
ffffffff80204a4f:	39 d1                	cmp    %edx,%ecx
ffffffff80204a51:	74 21                	je     ffffffff80204a74 <strrchr+0x64>
ffffffff80204a53:	48 8b 45 e0          	mov    -0x20(%rbp),%rax
ffffffff80204a57:	48 89 c1             	mov    %rax,%rcx
ffffffff80204a5a:	48 83 c1 ff          	add    $0xffffffffffffffff,%rcx
ffffffff80204a5e:	48 89 4d e0          	mov    %rcx,-0x20(%rbp)
ffffffff80204a62:	48 3b 45 f0          	cmp    -0x10(%rbp),%rax
ffffffff80204a66:	75 0a                	jne    ffffffff80204a72 <strrchr+0x62>
ffffffff80204a68:	48 c7 45 f8 00 00 00 	movq   $0x0,-0x8(%rbp)
ffffffff80204a6f:	00
ffffffff80204a70:	eb 0a                	jmp    ffffffff80204a7c <strrchr+0x6c>
ffffffff80204a72:	eb ca                	jmp    ffffffff80204a3e <strrchr+0x2e>
ffffffff80204a74:	48 8b 45 e0          	mov    -0x20(%rbp),%rax
ffffffff80204a78:	48 89 45 f8          	mov    %rax,-0x8(%rbp)
ffffffff80204a7c:	48 8b 45 f8          	mov    -0x8(%rbp),%rax
ffffffff80204a80:	48 83 c4 30          	add    $0x30,%rsp
ffffffff80204a84:	5d                   	pop    %rbp
ffffffff80204a85:	c3                   	retq
ffffffff80204a86:	66 2e 0f 1f 84 00 00 	nopw   %cs:0x0(%rax,%rax,1)
ffffffff80204a8d:	00 00 00

ffffffff80204a90 <find_first_zero>:
ffffffff80204a90:	55                   	push   %rbp
ffffffff80204a91:	48 89 e5             	mov    %rsp,%rbp
ffffffff80204a94:	48 83 ec 0c          	sub    $0xc,%rsp
ffffffff80204a98:	89 7d f8             	mov    %edi,-0x8(%rbp)
ffffffff80204a9b:	c7 45 f4 00 00 00 00 	movl   $0x0,-0xc(%rbp)
ffffffff80204aa2:	83 7d f8 00          	cmpl   $0x0,-0x8(%rbp)
ffffffff80204aa6:	75 09                	jne    ffffffff80204ab1 <find_first_zero+0x21>
ffffffff80204aa8:	c7 45 fc 00 00 00 00 	movl   $0x0,-0x4(%rbp)
ffffffff80204aaf:	eb 1f                	jmp    ffffffff80204ad0 <find_first_zero+0x40>
ffffffff80204ab1:	8b 45 f8             	mov    -0x8(%rbp),%eax
ffffffff80204ab4:	83 f0 ff             	xor    $0xffffffff,%eax
ffffffff80204ab7:	0f bc c0             	bsf    %eax,%eax
ffffffff80204aba:	75 05                	jne    ffffffff80204ac1 <find_first_zero+0x31>
ffffffff80204abc:	b8 20 00 00 00       	mov    $0x20,%eax
ffffffff80204ac1:	89 45 f4             	mov    %eax,-0xc(%rbp)
ffffffff80204ac4:	8b 45 f4             	mov    -0xc(%rbp),%eax
ffffffff80204ac7:	66 89 c1             	mov    %ax,%cx
ffffffff80204aca:	0f b7 c1             	movzwl %cx,%eax
ffffffff80204acd:	89 45 fc             	mov    %eax,-0x4(%rbp)
ffffffff80204ad0:	8b 45 fc             	mov    -0x4(%rbp),%eax
ffffffff80204ad3:	48 83 c4 0c          	add    $0xc,%rsp
ffffffff80204ad7:	5d                   	pop    %rbp
ffffffff80204ad8:	c3                   	retq
ffffffff80204ad9:	0f 1f 80 00 00 00 00 	nopl   0x0(%rax)

ffffffff80204ae0 <set_bit_cnt>:
ffffffff80204ae0:	55                   	push   %rbp
ffffffff80204ae1:	48 89 e5             	mov    %rsp,%rbp
ffffffff80204ae4:	53                   	push   %rbx
ffffffff80204ae5:	48 83 ec 0c          	sub    $0xc,%rsp
ffffffff80204ae9:	89 7d f0             	mov    %edi,-0x10(%rbp)
ffffffff80204aec:	c7 45 ec 00 00 00 00 	movl   $0x0,-0x14(%rbp)
ffffffff80204af3:	83 7d f0 00          	cmpl   $0x0,-0x10(%rbp)
ffffffff80204af7:	75 09                	jne    ffffffff80204b02 <set_bit_cnt+0x22>
ffffffff80204af9:	c7 45 f4 00 00 00 00 	movl   $0x0,-0xc(%rbp)
ffffffff80204b00:	eb 10                	jmp    ffffffff80204b12 <set_bit_cnt+0x32>
ffffffff80204b02:	8b 45 f0             	mov    -0x10(%rbp),%eax
ffffffff80204b05:	f3 0f b8 d8          	popcnt %eax,%ebx
ffffffff80204b09:	89 5d ec             	mov    %ebx,-0x14(%rbp)
ffffffff80204b0c:	8b 45 ec             	mov    -0x14(%rbp),%eax
ffffffff80204b0f:	89 45 f4             	mov    %eax,-0xc(%rbp)
ffffffff80204b12:	8b 45 f4             	mov    -0xc(%rbp),%eax
ffffffff80204b15:	48 83 c4 0c          	add    $0xc,%rsp
ffffffff80204b19:	5b                   	pop    %rbx
ffffffff80204b1a:	5d                   	pop    %rbp
ffffffff80204b1b:	c3                   	retq
ffffffff80204b1c:	0f 1f 40 00          	nopl   0x0(%rax)

ffffffff80204b20 <new_uid>:
ffffffff80204b20:	55                   	push   %rbp
ffffffff80204b21:	48 89 e5             	mov    %rsp,%rbp
ffffffff80204b24:	48 8b 04 25 60 dd 20 	mov    0xffffffff8020dd60,%rax
ffffffff80204b2b:	80
ffffffff80204b2c:	48 ff c0             	inc    %rax
ffffffff80204b2f:	48 89 04 25 60 dd 20 	mov    %rax,0xffffffff8020dd60
ffffffff80204b36:	80
ffffffff80204b37:	48 b9 ff ff ff ff 00 	movabs $0xffffffff,%rcx
ffffffff80204b3e:	00 00 00
ffffffff80204b41:	48 21 c8             	and    %rcx,%rax
ffffffff80204b44:	5d                   	pop    %rbp
ffffffff80204b45:	c3                   	retq
ffffffff80204b46:	66 2e 0f 1f 84 00 00 	nopw   %cs:0x0(%rax,%rax,1)
ffffffff80204b4d:	00 00 00

ffffffff80204b50 <rand>:
ffffffff80204b50:	55                   	push   %rbp
ffffffff80204b51:	48 89 e5             	mov    %rsp,%rbp
ffffffff80204b54:	48 83 ec 0c          	sub    $0xc,%rsp
ffffffff80204b58:	89 7d fc             	mov    %edi,-0x4(%rbp)
ffffffff80204b5b:	c7 45 f8 a7 41 00 00 	movl   $0x41a7,-0x8(%rbp)
ffffffff80204b62:	c7 45 f4 ff ff ff 7f 	movl   $0x7fffffff,-0xc(%rbp)
ffffffff80204b69:	8b 7d f8             	mov    -0x8(%rbp),%edi
ffffffff80204b6c:	0f af 7d fc          	imul   -0x4(%rbp),%edi
ffffffff80204b70:	89 f8                	mov    %edi,%eax
ffffffff80204b72:	31 d2                	xor    %edx,%edx
ffffffff80204b74:	f7 75 f4             	divl   -0xc(%rbp)
ffffffff80204b77:	89 55 fc             	mov    %edx,-0x4(%rbp)
ffffffff80204b7a:	8b 55 fc             	mov    -0x4(%rbp),%edx
ffffffff80204b7d:	89 d0                	mov    %edx,%eax
ffffffff80204b7f:	31 d2                	xor    %edx,%edx
ffffffff80204b81:	f7 75 f4             	divl   -0xc(%rbp)
ffffffff80204b84:	48 83 c4 0c          	add    $0xc,%rsp
ffffffff80204b88:	5d                   	pop    %rbp
ffffffff80204b89:	c3                   	retq
ffffffff80204b8a:	66 0f 1f 44 00 00    	nopw   0x0(%rax,%rax,1)

ffffffff80204b90 <itoa>:
ffffffff80204b90:	55                   	push   %rbp
ffffffff80204b91:	48 89 e5             	mov    %rsp,%rbp
ffffffff80204b94:	48 81 ec 70 01 00 00 	sub    $0x170,%rsp
ffffffff80204b9b:	48 89 7d f8          	mov    %rdi,-0x8(%rbp)
ffffffff80204b9f:	48 89 75 f0          	mov    %rsi,-0x10(%rbp)
ffffffff80204ba3:	89 55 ec             	mov    %edx,-0x14(%rbp)
ffffffff80204ba6:	48 c7 85 d8 fe ff ff 	movq   $0xffffffff80207d3a,-0x128(%rbp)
ffffffff80204bad:	3a 7d 20 80
ffffffff80204bb1:	83 7d ec 10          	cmpl   $0x10,-0x14(%rbp)
ffffffff80204bb5:	75 78                	jne    ffffffff80204c2f <itoa+0x9f>
ffffffff80204bb7:	c7 85 d4 fe ff ff 00 	movl   $0x0,-0x12c(%rbp)
ffffffff80204bbe:	00 00 00
ffffffff80204bc1:	83 bd d4 fe ff ff 10 	cmpl   $0x10,-0x12c(%rbp)
ffffffff80204bc8:	7d 59                	jge    ffffffff80204c23 <itoa+0x93>
ffffffff80204bca:	b8 0f 00 00 00       	mov    $0xf,%eax
ffffffff80204bcf:	48 8b 4d f8          	mov    -0x8(%rbp),%rcx
ffffffff80204bd3:	8b 95 d4 fe ff ff    	mov    -0x12c(%rbp),%edx
ffffffff80204bd9:	c1 e2 02             	shl    $0x2,%edx
ffffffff80204bdc:	89 d2                	mov    %edx,%edx
ffffffff80204bde:	89 d6                	mov    %edx,%esi
ffffffff80204be0:	48 89 8d c0 fe ff ff 	mov    %rcx,-0x140(%rbp)
ffffffff80204be7:	48 89 f1             	mov    %rsi,%rcx
ffffffff80204bea:	48 8b b5 c0 fe ff ff 	mov    -0x140(%rbp),%rsi
ffffffff80204bf1:	48 d3 fe             	sar    %cl,%rsi
ffffffff80204bf4:	48 83 e6 0f          	and    $0xf,%rsi
ffffffff80204bf8:	48 8b bd d8 fe ff ff 	mov    -0x128(%rbp),%rdi
ffffffff80204bff:	8a 0c 37             	mov    (%rdi,%rsi,1),%cl
ffffffff80204c02:	2b 85 d4 fe ff ff    	sub    -0x12c(%rbp),%eax
ffffffff80204c08:	48 63 f0             	movslq %eax,%rsi
ffffffff80204c0b:	88 8c 35 e0 fe ff ff 	mov    %cl,-0x120(%rbp,%rsi,1)
ffffffff80204c12:	8b 85 d4 fe ff ff    	mov    -0x12c(%rbp),%eax
ffffffff80204c18:	83 c0 01             	add    $0x1,%eax
ffffffff80204c1b:	89 85 d4 fe ff ff    	mov    %eax,-0x12c(%rbp)
ffffffff80204c21:	eb 9e                	jmp    ffffffff80204bc1 <itoa+0x31>
ffffffff80204c23:	c6 85 f0 fe ff ff 00 	movb   $0x0,-0x110(%rbp)
ffffffff80204c2a:	e9 55 01 00 00       	jmpq   ffffffff80204d84 <itoa+0x1f4>
ffffffff80204c2f:	83 7d ec 02          	cmpl   $0x2,-0x14(%rbp)
ffffffff80204c33:	75 73                	jne    ffffffff80204ca8 <itoa+0x118>
ffffffff80204c35:	c7 85 d0 fe ff ff 00 	movl   $0x0,-0x130(%rbp)
ffffffff80204c3c:	00 00 00
ffffffff80204c3f:	83 bd d0 fe ff ff 40 	cmpl   $0x40,-0x130(%rbp)
ffffffff80204c46:	7d 54                	jge    ffffffff80204c9c <itoa+0x10c>
ffffffff80204c48:	b8 3f 00 00 00       	mov    $0x3f,%eax
ffffffff80204c4d:	48 8b 4d f8          	mov    -0x8(%rbp),%rcx
ffffffff80204c51:	8b 95 d0 fe ff ff    	mov    -0x130(%rbp),%edx
ffffffff80204c57:	89 d6                	mov    %edx,%esi
ffffffff80204c59:	48 89 8d b8 fe ff ff 	mov    %rcx,-0x148(%rbp)
ffffffff80204c60:	48 89 f1             	mov    %rsi,%rcx
ffffffff80204c63:	48 8b b5 b8 fe ff ff 	mov    -0x148(%rbp),%rsi
ffffffff80204c6a:	48 d3 fe             	sar    %cl,%rsi
ffffffff80204c6d:	48 83 e6 01          	and    $0x1,%rsi
ffffffff80204c71:	48 8b bd d8 fe ff ff 	mov    -0x128(%rbp),%rdi
ffffffff80204c78:	8a 0c 37             	mov    (%rdi,%rsi,1),%cl
ffffffff80204c7b:	2b 85 d0 fe ff ff    	sub    -0x130(%rbp),%eax
ffffffff80204c81:	48 63 f0             	movslq %eax,%rsi
ffffffff80204c84:	88 8c 35 e0 fe ff ff 	mov    %cl,-0x120(%rbp,%rsi,1)
ffffffff80204c8b:	8b 85 d0 fe ff ff    	mov    -0x130(%rbp),%eax
ffffffff80204c91:	83 c0 01             	add    $0x1,%eax
ffffffff80204c94:	89 85 d0 fe ff ff    	mov    %eax,-0x130(%rbp)
ffffffff80204c9a:	eb a3                	jmp    ffffffff80204c3f <itoa+0xaf>
ffffffff80204c9c:	c6 85 20 ff ff ff 00 	movb   $0x0,-0xe0(%rbp)
ffffffff80204ca3:	e9 da 00 00 00       	jmpq   ffffffff80204d82 <itoa+0x1f2>
ffffffff80204ca8:	83 7d ec 10          	cmpl   $0x10,-0x14(%rbp)
ffffffff80204cac:	0f 8d c7 00 00 00    	jge    ffffffff80204d79 <itoa+0x1e9>
ffffffff80204cb2:	c7 85 cc fe ff ff 00 	movl   $0x0,-0x134(%rbp)
ffffffff80204cb9:	00 00 00
ffffffff80204cbc:	c7 85 c8 fe ff ff 00 	movl   $0x0,-0x138(%rbp)
ffffffff80204cc3:	00 00 00
ffffffff80204cc6:	48 83 7d f8 00       	cmpq   $0x0,-0x8(%rbp)
ffffffff80204ccb:	7d 16                	jge    ffffffff80204ce3 <itoa+0x153>
ffffffff80204ccd:	31 c0                	xor    %eax,%eax
ffffffff80204ccf:	89 c1                	mov    %eax,%ecx
ffffffff80204cd1:	c7 85 c8 fe ff ff 01 	movl   $0x1,-0x138(%rbp)
ffffffff80204cd8:	00 00 00
ffffffff80204cdb:	48 2b 4d f8          	sub    -0x8(%rbp),%rcx
ffffffff80204cdf:	48 89 4d f8          	mov    %rcx,-0x8(%rbp)
ffffffff80204ce3:	eb 00                	jmp    ffffffff80204ce5 <itoa+0x155>
ffffffff80204ce5:	48 8b 45 f8          	mov    -0x8(%rbp),%rax
ffffffff80204ce9:	48 63 4d ec          	movslq -0x14(%rbp),%rcx
ffffffff80204ced:	48 99                	cqto
ffffffff80204cef:	48 f7 f9             	idiv   %rcx
ffffffff80204cf2:	48 8b 8d d8 fe ff ff 	mov    -0x128(%rbp),%rcx
ffffffff80204cf9:	40 8a 34 11          	mov    (%rcx,%rdx,1),%sil
ffffffff80204cfd:	8b bd cc fe ff ff    	mov    -0x134(%rbp),%edi
ffffffff80204d03:	41 89 f8             	mov    %edi,%r8d
ffffffff80204d06:	41 83 c0 01          	add    $0x1,%r8d
ffffffff80204d0a:	44 89 85 cc fe ff ff 	mov    %r8d,-0x134(%rbp)
ffffffff80204d11:	48 63 cf             	movslq %edi,%rcx
ffffffff80204d14:	40 88 b4 0d e0 fe ff 	mov    %sil,-0x120(%rbp,%rcx,1)
ffffffff80204d1b:	ff
ffffffff80204d1c:	48 63 4d ec          	movslq -0x14(%rbp),%rcx
ffffffff80204d20:	48 8b 55 f8          	mov    -0x8(%rbp),%rdx
ffffffff80204d24:	48 89 d0             	mov    %rdx,%rax
ffffffff80204d27:	48 99                	cqto
ffffffff80204d29:	48 f7 f9             	idiv   %rcx
ffffffff80204d2c:	48 89 45 f8          	mov    %rax,-0x8(%rbp)
ffffffff80204d30:	48 83 7d f8 00       	cmpq   $0x0,-0x8(%rbp)
ffffffff80204d35:	75 ae                	jne    ffffffff80204ce5 <itoa+0x155>
ffffffff80204d37:	83 bd c8 fe ff ff 00 	cmpl   $0x0,-0x138(%rbp)
ffffffff80204d3e:	74 1c                	je     ffffffff80204d5c <itoa+0x1cc>
ffffffff80204d40:	8b 85 cc fe ff ff    	mov    -0x134(%rbp),%eax
ffffffff80204d46:	89 c1                	mov    %eax,%ecx
ffffffff80204d48:	83 c1 01             	add    $0x1,%ecx
ffffffff80204d4b:	89 8d cc fe ff ff    	mov    %ecx,-0x134(%rbp)
ffffffff80204d51:	48 63 d0             	movslq %eax,%rdx
ffffffff80204d54:	c6 84 15 e0 fe ff ff 	movb   $0x2d,-0x120(%rbp,%rdx,1)
ffffffff80204d5b:	2d
ffffffff80204d5c:	48 8d bd e0 fe ff ff 	lea    -0x120(%rbp),%rdi
ffffffff80204d63:	48 63 85 cc fe ff ff 	movslq -0x134(%rbp),%rax
ffffffff80204d6a:	c6 84 05 e0 fe ff ff 	movb   $0x0,-0x120(%rbp,%rax,1)
ffffffff80204d71:	00
ffffffff80204d72:	e8 99 fa ff ff       	callq  ffffffff80204810 <strrev>
ffffffff80204d77:	eb 07                	jmp    ffffffff80204d80 <itoa+0x1f0>
ffffffff80204d79:	c6 85 e0 fe ff ff 00 	movb   $0x0,-0x120(%rbp)
ffffffff80204d80:	eb 00                	jmp    ffffffff80204d82 <itoa+0x1f2>
ffffffff80204d82:	eb 00                	jmp    ffffffff80204d84 <itoa+0x1f4>
ffffffff80204d84:	48 8d 85 e0 fe ff ff 	lea    -0x120(%rbp),%rax
ffffffff80204d8b:	48 8b 7d f0          	mov    -0x10(%rbp),%rdi
ffffffff80204d8f:	48 89 bd b0 fe ff ff 	mov    %rdi,-0x150(%rbp)
ffffffff80204d96:	48 89 c7             	mov    %rax,%rdi
ffffffff80204d99:	48 89 85 a8 fe ff ff 	mov    %rax,-0x158(%rbp)
ffffffff80204da0:	e8 fb fa ff ff       	callq  ffffffff802048a0 <strlen>
ffffffff80204da5:	48 8b bd b0 fe ff ff 	mov    -0x150(%rbp),%rdi
ffffffff80204dac:	48 8b b5 a8 fe ff ff 	mov    -0x158(%rbp),%rsi
ffffffff80204db3:	48 89 c2             	mov    %rax,%rdx
ffffffff80204db6:	e8 c5 f8 ff ff       	callq  ffffffff80204680 <memcpy>
ffffffff80204dbb:	48 8d bd e0 fe ff ff 	lea    -0x120(%rbp),%rdi
ffffffff80204dc2:	48 8b 55 f0          	mov    -0x10(%rbp),%rdx
ffffffff80204dc6:	48 89 85 a0 fe ff ff 	mov    %rax,-0x160(%rbp)
ffffffff80204dcd:	48 89 95 98 fe ff ff 	mov    %rdx,-0x168(%rbp)
ffffffff80204dd4:	e8 c7 fa ff ff       	callq  ffffffff802048a0 <strlen>
ffffffff80204dd9:	48 8b 95 98 fe ff ff 	mov    -0x168(%rbp),%rdx
ffffffff80204de0:	48 01 c2             	add    %rax,%rdx
ffffffff80204de3:	48 89 d0             	mov    %rdx,%rax
ffffffff80204de6:	48 81 c4 70 01 00 00 	add    $0x170,%rsp
ffffffff80204ded:	5d                   	pop    %rbp
ffffffff80204dee:	c3                   	retq
ffffffff80204def:	90                   	nop

ffffffff80204df0 <utoa>:
ffffffff80204df0:	55                   	push   %rbp
ffffffff80204df1:	48 89 e5             	mov    %rsp,%rbp
ffffffff80204df4:	48 81 ec 70 01 00 00 	sub    $0x170,%rsp
ffffffff80204dfb:	48 89 7d f8          	mov    %rdi,-0x8(%rbp)
ffffffff80204dff:	48 89 75 f0          	mov    %rsi,-0x10(%rbp)
ffffffff80204e03:	89 55 ec             	mov    %edx,-0x14(%rbp)
ffffffff80204e06:	48 c7 85 d8 fe ff ff 	movq   $0xffffffff80207d3a,-0x128(%rbp)
ffffffff80204e0d:	3a 7d 20 80
ffffffff80204e11:	83 7d ec 00          	cmpl   $0x0,-0x14(%rbp)
ffffffff80204e15:	75 07                	jne    ffffffff80204e1e <utoa+0x2e>
ffffffff80204e17:	c7 45 ec 10 00 00 00 	movl   $0x10,-0x14(%rbp)
ffffffff80204e1e:	83 7d ec 10          	cmpl   $0x10,-0x14(%rbp)
ffffffff80204e22:	75 78                	jne    ffffffff80204e9c <utoa+0xac>
ffffffff80204e24:	c7 85 d4 fe ff ff 00 	movl   $0x0,-0x12c(%rbp)
ffffffff80204e2b:	00 00 00
ffffffff80204e2e:	83 bd d4 fe ff ff 08 	cmpl   $0x8,-0x12c(%rbp)
ffffffff80204e35:	7d 59                	jge    ffffffff80204e90 <utoa+0xa0>
ffffffff80204e37:	b8 07 00 00 00       	mov    $0x7,%eax
ffffffff80204e3c:	48 8b 4d f8          	mov    -0x8(%rbp),%rcx
ffffffff80204e40:	8b 95 d4 fe ff ff    	mov    -0x12c(%rbp),%edx
ffffffff80204e46:	c1 e2 02             	shl    $0x2,%edx
ffffffff80204e49:	89 d2                	mov    %edx,%edx
ffffffff80204e4b:	89 d6                	mov    %edx,%esi
ffffffff80204e4d:	48 89 8d c0 fe ff ff 	mov    %rcx,-0x140(%rbp)
ffffffff80204e54:	48 89 f1             	mov    %rsi,%rcx
ffffffff80204e57:	48 8b b5 c0 fe ff ff 	mov    -0x140(%rbp),%rsi
ffffffff80204e5e:	48 d3 ee             	shr    %cl,%rsi
ffffffff80204e61:	48 83 e6 0f          	and    $0xf,%rsi
ffffffff80204e65:	48 8b bd d8 fe ff ff 	mov    -0x128(%rbp),%rdi
ffffffff80204e6c:	8a 0c 37             	mov    (%rdi,%rsi,1),%cl
ffffffff80204e6f:	2b 85 d4 fe ff ff    	sub    -0x12c(%rbp),%eax
ffffffff80204e75:	48 63 f0             	movslq %eax,%rsi
ffffffff80204e78:	88 8c 35 e0 fe ff ff 	mov    %cl,-0x120(%rbp,%rsi,1)
ffffffff80204e7f:	8b 85 d4 fe ff ff    	mov    -0x12c(%rbp),%eax
ffffffff80204e85:	83 c0 01             	add    $0x1,%eax
ffffffff80204e88:	89 85 d4 fe ff ff    	mov    %eax,-0x12c(%rbp)
ffffffff80204e8e:	eb 9e                	jmp    ffffffff80204e2e <utoa+0x3e>
ffffffff80204e90:	c6 85 e8 fe ff ff 00 	movb   $0x0,-0x118(%rbp)
ffffffff80204e97:	e9 30 01 00 00       	jmpq   ffffffff80204fcc <utoa+0x1dc>
ffffffff80204e9c:	83 7d ec 02          	cmpl   $0x2,-0x14(%rbp)
ffffffff80204ea0:	75 73                	jne    ffffffff80204f15 <utoa+0x125>
ffffffff80204ea2:	c7 85 d0 fe ff ff 00 	movl   $0x0,-0x130(%rbp)
ffffffff80204ea9:	00 00 00
ffffffff80204eac:	83 bd d0 fe ff ff 20 	cmpl   $0x20,-0x130(%rbp)
ffffffff80204eb3:	7d 54                	jge    ffffffff80204f09 <utoa+0x119>
ffffffff80204eb5:	b8 1f 00 00 00       	mov    $0x1f,%eax
ffffffff80204eba:	48 8b 4d f8          	mov    -0x8(%rbp),%rcx
ffffffff80204ebe:	8b 95 d0 fe ff ff    	mov    -0x130(%rbp),%edx
ffffffff80204ec4:	89 d6                	mov    %edx,%esi
ffffffff80204ec6:	48 89 8d b8 fe ff ff 	mov    %rcx,-0x148(%rbp)
ffffffff80204ecd:	48 89 f1             	mov    %rsi,%rcx
ffffffff80204ed0:	48 8b b5 b8 fe ff ff 	mov    -0x148(%rbp),%rsi
ffffffff80204ed7:	48 d3 ee             	shr    %cl,%rsi
ffffffff80204eda:	48 83 e6 01          	and    $0x1,%rsi
ffffffff80204ede:	48 8b bd d8 fe ff ff 	mov    -0x128(%rbp),%rdi
ffffffff80204ee5:	8a 0c 37             	mov    (%rdi,%rsi,1),%cl
ffffffff80204ee8:	2b 85 d0 fe ff ff    	sub    -0x130(%rbp),%eax
ffffffff80204eee:	48 63 f0             	movslq %eax,%rsi
ffffffff80204ef1:	88 8c 35 e0 fe ff ff 	mov    %cl,-0x120(%rbp,%rsi,1)
ffffffff80204ef8:	8b 85 d0 fe ff ff    	mov    -0x130(%rbp),%eax
ffffffff80204efe:	83 c0 01             	add    $0x1,%eax
ffffffff80204f01:	89 85 d0 fe ff ff    	mov    %eax,-0x130(%rbp)
ffffffff80204f07:	eb a3                	jmp    ffffffff80204eac <utoa+0xbc>
ffffffff80204f09:	c6 85 00 ff ff ff 00 	movb   $0x0,-0x100(%rbp)
ffffffff80204f10:	e9 b5 00 00 00       	jmpq   ffffffff80204fca <utoa+0x1da>
ffffffff80204f15:	83 7d ec 10          	cmpl   $0x10,-0x14(%rbp)
ffffffff80204f19:	0f 8d a2 00 00 00    	jge    ffffffff80204fc1 <utoa+0x1d1>
ffffffff80204f1f:	c7 85 cc fe ff ff 00 	movl   $0x0,-0x134(%rbp)
ffffffff80204f26:	00 00 00
ffffffff80204f29:	48 8b 45 f8          	mov    -0x8(%rbp),%rax
ffffffff80204f2d:	48 63 4d ec          	movslq -0x14(%rbp),%rcx
ffffffff80204f31:	31 d2                	xor    %edx,%edx
ffffffff80204f33:	48 f7 f1             	div    %rcx
ffffffff80204f36:	48 8b 8d d8 fe ff ff 	mov    -0x128(%rbp),%rcx
ffffffff80204f3d:	40 8a 34 11          	mov    (%rcx,%rdx,1),%sil
ffffffff80204f41:	8b bd cc fe ff ff    	mov    -0x134(%rbp),%edi
ffffffff80204f47:	41 89 f8             	mov    %edi,%r8d
ffffffff80204f4a:	41 83 c0 01          	add    $0x1,%r8d
ffffffff80204f4e:	44 89 85 cc fe ff ff 	mov    %r8d,-0x134(%rbp)
ffffffff80204f55:	48 63 cf             	movslq %edi,%rcx
ffffffff80204f58:	40 88 b4 0d e0 fe ff 	mov    %sil,-0x120(%rbp,%rcx,1)
ffffffff80204f5f:	ff
ffffffff80204f60:	48 63 4d ec          	movslq -0x14(%rbp),%rcx
ffffffff80204f64:	48 8b 55 f8          	mov    -0x8(%rbp),%rdx
ffffffff80204f68:	48 89 d0             	mov    %rdx,%rax
ffffffff80204f6b:	31 ff                	xor    %edi,%edi
ffffffff80204f6d:	89 fa                	mov    %edi,%edx
ffffffff80204f6f:	48 f7 f1             	div    %rcx
ffffffff80204f72:	48 89 45 f8          	mov    %rax,-0x8(%rbp)
ffffffff80204f76:	31 c0                	xor    %eax,%eax
ffffffff80204f78:	88 c1                	mov    %al,%cl
ffffffff80204f7a:	48 83 7d f8 00       	cmpq   $0x0,-0x8(%rbp)
ffffffff80204f7f:	88 8d b7 fe ff ff    	mov    %cl,-0x149(%rbp)
ffffffff80204f85:	74 13                	je     ffffffff80204f9a <utoa+0x1aa>
ffffffff80204f87:	81 bd cc fe ff ff ff 	cmpl   $0x1ff,-0x134(%rbp)
ffffffff80204f8e:	01 00 00
ffffffff80204f91:	0f 9c c0             	setl   %al
ffffffff80204f94:	88 85 b7 fe ff ff    	mov    %al,-0x149(%rbp)
ffffffff80204f9a:	8a 85 b7 fe ff ff    	mov    -0x149(%rbp),%al
ffffffff80204fa0:	a8 01                	test   $0x1,%al
ffffffff80204fa2:	75 85                	jne    ffffffff80204f29 <utoa+0x139>
ffffffff80204fa4:	48 8d bd e0 fe ff ff 	lea    -0x120(%rbp),%rdi
ffffffff80204fab:	48 63 85 cc fe ff ff 	movslq -0x134(%rbp),%rax
ffffffff80204fb2:	c6 84 05 e0 fe ff ff 	movb   $0x0,-0x120(%rbp,%rax,1)
ffffffff80204fb9:	00
ffffffff80204fba:	e8 51 f8 ff ff       	callq  ffffffff80204810 <strrev>
ffffffff80204fbf:	eb 07                	jmp    ffffffff80204fc8 <utoa+0x1d8>
ffffffff80204fc1:	c6 85 e0 fe ff ff 00 	movb   $0x0,-0x120(%rbp)
ffffffff80204fc8:	eb 00                	jmp    ffffffff80204fca <utoa+0x1da>
ffffffff80204fca:	eb 00                	jmp    ffffffff80204fcc <utoa+0x1dc>
ffffffff80204fcc:	48 8d 85 e0 fe ff ff 	lea    -0x120(%rbp),%rax
ffffffff80204fd3:	48 8b 7d f0          	mov    -0x10(%rbp),%rdi
ffffffff80204fd7:	48 89 bd a8 fe ff ff 	mov    %rdi,-0x158(%rbp)
ffffffff80204fde:	48 89 c7             	mov    %rax,%rdi
ffffffff80204fe1:	48 89 85 a0 fe ff ff 	mov    %rax,-0x160(%rbp)
ffffffff80204fe8:	e8 b3 f8 ff ff       	callq  ffffffff802048a0 <strlen>
ffffffff80204fed:	48 8b bd a8 fe ff ff 	mov    -0x158(%rbp),%rdi
ffffffff80204ff4:	48 8b b5 a0 fe ff ff 	mov    -0x160(%rbp),%rsi
ffffffff80204ffb:	48 89 c2             	mov    %rax,%rdx
ffffffff80204ffe:	e8 7d f6 ff ff       	callq  ffffffff80204680 <memcpy>
ffffffff80205003:	48 8d bd e0 fe ff ff 	lea    -0x120(%rbp),%rdi
ffffffff8020500a:	48 8b 55 f0          	mov    -0x10(%rbp),%rdx
ffffffff8020500e:	48 89 85 98 fe ff ff 	mov    %rax,-0x168(%rbp)
ffffffff80205015:	48 89 95 90 fe ff ff 	mov    %rdx,-0x170(%rbp)
ffffffff8020501c:	e8 7f f8 ff ff       	callq  ffffffff802048a0 <strlen>
ffffffff80205021:	48 8b 95 90 fe ff ff 	mov    -0x170(%rbp),%rdx
ffffffff80205028:	48 01 c2             	add    %rax,%rdx
ffffffff8020502b:	48 89 d0             	mov    %rdx,%rax
ffffffff8020502e:	48 81 c4 70 01 00 00 	add    $0x170,%rsp
ffffffff80205035:	5d                   	pop    %rbp
ffffffff80205036:	c3                   	retq
ffffffff80205037:	66 0f 1f 84 00 00 00 	nopw   0x0(%rax,%rax,1)
ffffffff8020503e:	00 00

ffffffff80205040 <vsnprintf>:
ffffffff80205040:	55                   	push   %rbp
ffffffff80205041:	48 89 e5             	mov    %rsp,%rbp
ffffffff80205044:	48 81 ec e0 01 00 00 	sub    $0x1e0,%rsp
ffffffff8020504b:	48 89 7d f8          	mov    %rdi,-0x8(%rbp)
ffffffff8020504f:	48 89 75 f0          	mov    %rsi,-0x10(%rbp)
ffffffff80205053:	48 89 55 e8          	mov    %rdx,-0x18(%rbp)
ffffffff80205057:	c7 45 e4 00 00 00 00 	movl   $0x0,-0x1c(%rbp)
ffffffff8020505e:	48 c7 45 d8 00 00 00 	movq   $0x0,-0x28(%rbp)
ffffffff80205065:	00
ffffffff80205066:	48 8b 45 d8          	mov    -0x28(%rbp),%rax
ffffffff8020506a:	48 8b 7d f0          	mov    -0x10(%rbp),%rdi
ffffffff8020506e:	48 89 45 a8          	mov    %rax,-0x58(%rbp)
ffffffff80205072:	e8 29 f8 ff ff       	callq  ffffffff802048a0 <strlen>
ffffffff80205077:	48 8b 7d a8          	mov    -0x58(%rbp),%rdi
ffffffff8020507b:	48 39 c7             	cmp    %rax,%rdi
ffffffff8020507e:	73 3c                	jae    ffffffff802050bc <vsnprintf+0x7c>
ffffffff80205080:	48 8b 45 d8          	mov    -0x28(%rbp),%rax
ffffffff80205084:	48 8b 4d f0          	mov    -0x10(%rbp),%rcx
ffffffff80205088:	0f be 14 01          	movsbl (%rcx,%rax,1),%edx
ffffffff8020508c:	83 fa 25             	cmp    $0x25,%edx
ffffffff8020508f:	75 1b                	jne    ffffffff802050ac <vsnprintf+0x6c>
ffffffff80205091:	48 8b 45 d8          	mov    -0x28(%rbp),%rax
ffffffff80205095:	48 8b 4d f0          	mov    -0x10(%rbp),%rcx
ffffffff80205099:	0f be 54 01 01       	movsbl 0x1(%rcx,%rax,1),%edx
ffffffff8020509e:	83 fa 25             	cmp    $0x25,%edx
ffffffff802050a1:	74 09                	je     ffffffff802050ac <vsnprintf+0x6c>
ffffffff802050a3:	8b 45 e4             	mov    -0x1c(%rbp),%eax
ffffffff802050a6:	83 c0 01             	add    $0x1,%eax
ffffffff802050a9:	89 45 e4             	mov    %eax,-0x1c(%rbp)
ffffffff802050ac:	eb 00                	jmp    ffffffff802050ae <vsnprintf+0x6e>
ffffffff802050ae:	48 8b 45 d8          	mov    -0x28(%rbp),%rax
ffffffff802050b2:	48 83 c0 01          	add    $0x1,%rax
ffffffff802050b6:	48 89 45 d8          	mov    %rax,-0x28(%rbp)
ffffffff802050ba:	eb aa                	jmp    ffffffff80205066 <vsnprintf+0x26>
ffffffff802050bc:	48 c7 45 d0 00 00 00 	movq   $0x0,-0x30(%rbp)
ffffffff802050c3:	00
ffffffff802050c4:	48 8b 45 d0          	mov    -0x30(%rbp),%rax
ffffffff802050c8:	48 8b 7d f0          	mov    -0x10(%rbp),%rdi
ffffffff802050cc:	48 89 45 a0          	mov    %rax,-0x60(%rbp)
ffffffff802050d0:	e8 cb f7 ff ff       	callq  ffffffff802048a0 <strlen>
ffffffff802050d5:	48 8b 7d a0          	mov    -0x60(%rbp),%rdi
ffffffff802050d9:	48 39 c7             	cmp    %rax,%rdi
ffffffff802050dc:	0f 83 67 08 00 00    	jae    ffffffff80205949 <vsnprintf+0x909>
ffffffff802050e2:	48 8b 45 d0          	mov    -0x30(%rbp),%rax
ffffffff802050e6:	48 8b 4d f0          	mov    -0x10(%rbp),%rcx
ffffffff802050ea:	0f be 14 01          	movsbl (%rcx,%rax,1),%edx
ffffffff802050ee:	83 fa 25             	cmp    $0x25,%edx
ffffffff802050f1:	74 22                	je     ffffffff80205115 <vsnprintf+0xd5>
ffffffff802050f3:	48 8b 45 d0          	mov    -0x30(%rbp),%rax
ffffffff802050f7:	48 8b 4d f0          	mov    -0x10(%rbp),%rcx
ffffffff802050fb:	8a 14 01             	mov    (%rcx,%rax,1),%dl
ffffffff802050fe:	48 8b 45 f8          	mov    -0x8(%rbp),%rax
ffffffff80205102:	88 10                	mov    %dl,(%rax)
ffffffff80205104:	48 8b 45 f8          	mov    -0x8(%rbp),%rax
ffffffff80205108:	48 83 c0 01          	add    $0x1,%rax
ffffffff8020510c:	48 89 45 f8          	mov    %rax,-0x8(%rbp)
ffffffff80205110:	e9 21 08 00 00       	jmpq   ffffffff80205936 <vsnprintf+0x8f6>
ffffffff80205115:	48 8b 45 d0          	mov    -0x30(%rbp),%rax
ffffffff80205119:	48 83 c0 01          	add    $0x1,%rax
ffffffff8020511d:	48 89 45 d0          	mov    %rax,-0x30(%rbp)
ffffffff80205121:	c7 45 cc 01 00 00 00 	movl   $0x1,-0x34(%rbp)
ffffffff80205128:	c6 45 cb 20          	movb   $0x20,-0x35(%rbp)
ffffffff8020512c:	c7 45 c4 00 00 00 00 	movl   $0x0,-0x3c(%rbp)
ffffffff80205133:	c7 45 c0 00 00 00 00 	movl   $0x0,-0x40(%rbp)
ffffffff8020513a:	83 7d cc 00          	cmpl   $0x0,-0x34(%rbp)
ffffffff8020513e:	0f 84 f0 07 00 00    	je     ffffffff80205934 <vsnprintf+0x8f4>
ffffffff80205144:	48 8b 45 d0          	mov    -0x30(%rbp),%rax
ffffffff80205148:	48 8b 4d f0          	mov    -0x10(%rbp),%rcx
ffffffff8020514c:	0f be 14 01          	movsbl (%rcx,%rax,1),%edx
ffffffff80205150:	89 d6                	mov    %edx,%esi
ffffffff80205152:	83 ee 23             	sub    $0x23,%esi
ffffffff80205155:	89 55 9c             	mov    %edx,-0x64(%rbp)
ffffffff80205158:	89 75 98             	mov    %esi,-0x68(%rbp)
ffffffff8020515b:	0f 84 4b 01 00 00    	je     ffffffff802052ac <vsnprintf+0x26c>
ffffffff80205161:	eb 00                	jmp    ffffffff80205163 <vsnprintf+0x123>
ffffffff80205163:	8b 45 9c             	mov    -0x64(%rbp),%eax
ffffffff80205166:	83 e8 25             	sub    $0x25,%eax
ffffffff80205169:	89 45 94             	mov    %eax,-0x6c(%rbp)
ffffffff8020516c:	0f 84 a4 07 00 00    	je     ffffffff80205916 <vsnprintf+0x8d6>
ffffffff80205172:	eb 00                	jmp    ffffffff80205174 <vsnprintf+0x134>
ffffffff80205174:	8b 45 9c             	mov    -0x64(%rbp),%eax
ffffffff80205177:	83 e8 2a             	sub    $0x2a,%eax
ffffffff8020517a:	89 45 90             	mov    %eax,-0x70(%rbp)
ffffffff8020517d:	0f 84 d2 01 00 00    	je     ffffffff80205355 <vsnprintf+0x315>
ffffffff80205183:	eb 00                	jmp    ffffffff80205185 <vsnprintf+0x145>
ffffffff80205185:	8b 45 9c             	mov    -0x64(%rbp),%eax
ffffffff80205188:	83 e8 2e             	sub    $0x2e,%eax
ffffffff8020518b:	89 45 8c             	mov    %eax,-0x74(%rbp)
ffffffff8020518e:	0f 84 29 02 00 00    	je     ffffffff802053bd <vsnprintf+0x37d>
ffffffff80205194:	eb 00                	jmp    ffffffff80205196 <vsnprintf+0x156>
ffffffff80205196:	8b 45 9c             	mov    -0x64(%rbp),%eax
ffffffff80205199:	83 e8 30             	sub    $0x30,%eax
ffffffff8020519c:	89 45 88             	mov    %eax,-0x78(%rbp)
ffffffff8020519f:	0f 84 f2 00 00 00    	je     ffffffff80205297 <vsnprintf+0x257>
ffffffff802051a5:	eb 00                	jmp    ffffffff802051a7 <vsnprintf+0x167>
ffffffff802051a7:	8b 45 9c             	mov    -0x64(%rbp),%eax
ffffffff802051aa:	83 c0 cf             	add    $0xffffffcf,%eax
ffffffff802051ad:	83 e8 09             	sub    $0x9,%eax
ffffffff802051b0:	89 45 84             	mov    %eax,-0x7c(%rbp)
ffffffff802051b3:	0f 82 28 01 00 00    	jb     ffffffff802052e1 <vsnprintf+0x2a1>
ffffffff802051b9:	eb 00                	jmp    ffffffff802051bb <vsnprintf+0x17b>
ffffffff802051bb:	8b 45 9c             	mov    -0x64(%rbp),%eax
ffffffff802051be:	83 e8 46             	sub    $0x46,%eax
ffffffff802051c1:	89 45 80             	mov    %eax,-0x80(%rbp)
ffffffff802051c4:	0f 84 f1 05 00 00    	je     ffffffff802057bb <vsnprintf+0x77b>
ffffffff802051ca:	eb 00                	jmp    ffffffff802051cc <vsnprintf+0x18c>
ffffffff802051cc:	8b 45 9c             	mov    -0x64(%rbp),%eax
ffffffff802051cf:	83 e8 58             	sub    $0x58,%eax
ffffffff802051d2:	89 85 7c ff ff ff    	mov    %eax,-0x84(%rbp)
ffffffff802051d8:	0f 84 52 05 00 00    	je     ffffffff80205730 <vsnprintf+0x6f0>
ffffffff802051de:	eb 00                	jmp    ffffffff802051e0 <vsnprintf+0x1a0>
ffffffff802051e0:	8b 45 9c             	mov    -0x64(%rbp),%eax
ffffffff802051e3:	83 e8 62             	sub    $0x62,%eax
ffffffff802051e6:	89 85 78 ff ff ff    	mov    %eax,-0x88(%rbp)
ffffffff802051ec:	0f 84 28 04 00 00    	je     ffffffff8020561a <vsnprintf+0x5da>
ffffffff802051f2:	eb 00                	jmp    ffffffff802051f4 <vsnprintf+0x1b4>
ffffffff802051f4:	8b 45 9c             	mov    -0x64(%rbp),%eax
ffffffff802051f7:	83 e8 63             	sub    $0x63,%eax
ffffffff802051fa:	89 85 74 ff ff ff    	mov    %eax,-0x8c(%rbp)
ffffffff80205200:	0f 84 cd 05 00 00    	je     ffffffff802057d3 <vsnprintf+0x793>
ffffffff80205206:	eb 00                	jmp    ffffffff80205208 <vsnprintf+0x1c8>
ffffffff80205208:	8b 45 9c             	mov    -0x64(%rbp),%eax
ffffffff8020520b:	83 e8 64             	sub    $0x64,%eax
ffffffff8020520e:	89 85 70 ff ff ff    	mov    %eax,-0x90(%rbp)
ffffffff80205214:	0f 84 a2 02 00 00    	je     ffffffff802054bc <vsnprintf+0x47c>
ffffffff8020521a:	eb 00                	jmp    ffffffff8020521c <vsnprintf+0x1dc>
ffffffff8020521c:	8b 45 9c             	mov    -0x64(%rbp),%eax
ffffffff8020521f:	83 e8 66             	sub    $0x66,%eax
ffffffff80205222:	89 85 6c ff ff ff    	mov    %eax,-0x94(%rbp)
ffffffff80205228:	0f 84 8d 05 00 00    	je     ffffffff802057bb <vsnprintf+0x77b>
ffffffff8020522e:	eb 00                	jmp    ffffffff80205230 <vsnprintf+0x1f0>
ffffffff80205230:	8b 45 9c             	mov    -0x64(%rbp),%eax
ffffffff80205233:	83 e8 69             	sub    $0x69,%eax
ffffffff80205236:	89 85 68 ff ff ff    	mov    %eax,-0x98(%rbp)
ffffffff8020523c:	0f 84 7a 02 00 00    	je     ffffffff802054bc <vsnprintf+0x47c>
ffffffff80205242:	eb 00                	jmp    ffffffff80205244 <vsnprintf+0x204>
ffffffff80205244:	8b 45 9c             	mov    -0x64(%rbp),%eax
ffffffff80205247:	83 e8 6f             	sub    $0x6f,%eax
ffffffff8020524a:	89 85 64 ff ff ff    	mov    %eax,-0x9c(%rbp)
ffffffff80205250:	0f 84 4f 04 00 00    	je     ffffffff802056a5 <vsnprintf+0x665>
ffffffff80205256:	eb 00                	jmp    ffffffff80205258 <vsnprintf+0x218>
ffffffff80205258:	8b 45 9c             	mov    -0x64(%rbp),%eax
ffffffff8020525b:	83 e8 73             	sub    $0x73,%eax
ffffffff8020525e:	89 85 60 ff ff ff    	mov    %eax,-0xa0(%rbp)
ffffffff80205264:	0f 84 ee 05 00 00    	je     ffffffff80205858 <vsnprintf+0x818>
ffffffff8020526a:	eb 00                	jmp    ffffffff8020526c <vsnprintf+0x22c>
ffffffff8020526c:	8b 45 9c             	mov    -0x64(%rbp),%eax
ffffffff8020526f:	83 e8 75             	sub    $0x75,%eax
ffffffff80205272:	89 85 5c ff ff ff    	mov    %eax,-0xa4(%rbp)
ffffffff80205278:	0f 84 11 03 00 00    	je     ffffffff8020558f <vsnprintf+0x54f>
ffffffff8020527e:	eb 00                	jmp    ffffffff80205280 <vsnprintf+0x240>
ffffffff80205280:	8b 45 9c             	mov    -0x64(%rbp),%eax
ffffffff80205283:	83 e8 78             	sub    $0x78,%eax
ffffffff80205286:	89 85 58 ff ff ff    	mov    %eax,-0xa8(%rbp)
ffffffff8020528c:	0f 84 9e 04 00 00    	je     ffffffff80205730 <vsnprintf+0x6f0>
ffffffff80205292:	e9 98 06 00 00       	jmpq   ffffffff8020592f <vsnprintf+0x8ef>
ffffffff80205297:	c6 45 cb 30          	movb   $0x30,-0x35(%rbp)
ffffffff8020529b:	48 8b 45 d0          	mov    -0x30(%rbp),%rax
ffffffff8020529f:	48 83 c0 01          	add    $0x1,%rax
ffffffff802052a3:	48 89 45 d0          	mov    %rax,-0x30(%rbp)
ffffffff802052a7:	e9 83 06 00 00       	jmpq   ffffffff8020592f <vsnprintf+0x8ef>
ffffffff802052ac:	48 8b 45 f8          	mov    -0x8(%rbp),%rax
ffffffff802052b0:	48 89 c1             	mov    %rax,%rcx
ffffffff802052b3:	48 83 c1 01          	add    $0x1,%rcx
ffffffff802052b7:	48 89 4d f8          	mov    %rcx,-0x8(%rbp)
ffffffff802052bb:	c6 00 30             	movb   $0x30,(%rax)
ffffffff802052be:	48 8b 45 f8          	mov    -0x8(%rbp),%rax
ffffffff802052c2:	48 89 c1             	mov    %rax,%rcx
ffffffff802052c5:	48 83 c1 01          	add    $0x1,%rcx
ffffffff802052c9:	48 89 4d f8          	mov    %rcx,-0x8(%rbp)
ffffffff802052cd:	c6 00 78             	movb   $0x78,(%rax)
ffffffff802052d0:	48 8b 45 d0          	mov    -0x30(%rbp),%rax
ffffffff802052d4:	48 83 c0 01          	add    $0x1,%rax
ffffffff802052d8:	48 89 45 d0          	mov    %rax,-0x30(%rbp)
ffffffff802052dc:	e9 4e 06 00 00       	jmpq   ffffffff8020592f <vsnprintf+0x8ef>
ffffffff802052e1:	eb 00                	jmp    ffffffff802052e3 <vsnprintf+0x2a3>
ffffffff802052e3:	31 c0                	xor    %eax,%eax
ffffffff802052e5:	88 c1                	mov    %al,%cl
ffffffff802052e7:	48 8b 55 d0          	mov    -0x30(%rbp),%rdx
ffffffff802052eb:	48 8b 75 f0          	mov    -0x10(%rbp),%rsi
ffffffff802052ef:	0f be 04 16          	movsbl (%rsi,%rdx,1),%eax
ffffffff802052f3:	83 e8 30             	sub    $0x30,%eax
ffffffff802052f6:	83 f8 09             	cmp    $0x9,%eax
ffffffff802052f9:	88 8d 57 ff ff ff    	mov    %cl,-0xa9(%rbp)
ffffffff802052ff:	7f 1d                	jg     ffffffff8020531e <vsnprintf+0x2de>
ffffffff80205301:	48 8b 45 d0          	mov    -0x30(%rbp),%rax
ffffffff80205305:	48 8b 4d f0          	mov    -0x10(%rbp),%rcx
ffffffff80205309:	0f be 14 01          	movsbl (%rcx,%rax,1),%edx
ffffffff8020530d:	83 ea 30             	sub    $0x30,%edx
ffffffff80205310:	83 fa 00             	cmp    $0x0,%edx
ffffffff80205313:	40 0f 9d c6          	setge  %sil
ffffffff80205317:	40 88 b5 57 ff ff ff 	mov    %sil,-0xa9(%rbp)
ffffffff8020531e:	8a 85 57 ff ff ff    	mov    -0xa9(%rbp),%al
ffffffff80205324:	a8 01                	test   $0x1,%al
ffffffff80205326:	75 02                	jne    ffffffff8020532a <vsnprintf+0x2ea>
ffffffff80205328:	eb 26                	jmp    ffffffff80205350 <vsnprintf+0x310>
ffffffff8020532a:	6b 45 c4 0a          	imul   $0xa,-0x3c(%rbp),%eax
ffffffff8020532e:	48 8b 4d d0          	mov    -0x30(%rbp),%rcx
ffffffff80205332:	48 8b 55 f0          	mov    -0x10(%rbp),%rdx
ffffffff80205336:	0f be 34 0a          	movsbl (%rdx,%rcx,1),%esi
ffffffff8020533a:	83 ee 30             	sub    $0x30,%esi
ffffffff8020533d:	01 f0                	add    %esi,%eax
ffffffff8020533f:	89 45 c4             	mov    %eax,-0x3c(%rbp)
ffffffff80205342:	48 8b 4d d0          	mov    -0x30(%rbp),%rcx
ffffffff80205346:	48 83 c1 01          	add    $0x1,%rcx
ffffffff8020534a:	48 89 4d d0          	mov    %rcx,-0x30(%rbp)
ffffffff8020534e:	eb 93                	jmp    ffffffff802052e3 <vsnprintf+0x2a3>
ffffffff80205350:	e9 da 05 00 00       	jmpq   ffffffff8020592f <vsnprintf+0x8ef>
ffffffff80205355:	48 8b 45 e8          	mov    -0x18(%rbp),%rax
ffffffff80205359:	8b 08                	mov    (%rax),%ecx
ffffffff8020535b:	83 f9 28             	cmp    $0x28,%ecx
ffffffff8020535e:	48 89 85 48 ff ff ff 	mov    %rax,-0xb8(%rbp)
ffffffff80205365:	89 8d 44 ff ff ff    	mov    %ecx,-0xbc(%rbp)
ffffffff8020536b:	77 22                	ja     ffffffff8020538f <vsnprintf+0x34f>
ffffffff8020536d:	8b 85 44 ff ff ff    	mov    -0xbc(%rbp),%eax
ffffffff80205373:	48 63 c8             	movslq %eax,%rcx
ffffffff80205376:	48 8b 95 48 ff ff ff 	mov    -0xb8(%rbp),%rdx
ffffffff8020537d:	48 03 4a 10          	add    0x10(%rdx),%rcx
ffffffff80205381:	83 c0 08             	add    $0x8,%eax
ffffffff80205384:	89 02                	mov    %eax,(%rdx)
ffffffff80205386:	48 89 8d 38 ff ff ff 	mov    %rcx,-0xc8(%rbp)
ffffffff8020538d:	eb 1d                	jmp    ffffffff802053ac <vsnprintf+0x36c>
ffffffff8020538f:	48 8b 85 48 ff ff ff 	mov    -0xb8(%rbp),%rax
ffffffff80205396:	48 8b 48 08          	mov    0x8(%rax),%rcx
ffffffff8020539a:	48 89 ca             	mov    %rcx,%rdx
ffffffff8020539d:	48 83 c1 08          	add    $0x8,%rcx
ffffffff802053a1:	48 89 48 08          	mov    %rcx,0x8(%rax)
ffffffff802053a5:	48 89 95 38 ff ff ff 	mov    %rdx,-0xc8(%rbp)
ffffffff802053ac:	48 8b 85 38 ff ff ff 	mov    -0xc8(%rbp),%rax
ffffffff802053b3:	8b 08                	mov    (%rax),%ecx
ffffffff802053b5:	89 4d c4             	mov    %ecx,-0x3c(%rbp)
ffffffff802053b8:	e9 72 05 00 00       	jmpq   ffffffff8020592f <vsnprintf+0x8ef>
ffffffff802053bd:	48 8b 45 d0          	mov    -0x30(%rbp),%rax
ffffffff802053c1:	48 89 c1             	mov    %rax,%rcx
ffffffff802053c4:	48 ff c1             	inc    %rcx
ffffffff802053c7:	48 89 4d d0          	mov    %rcx,-0x30(%rbp)
ffffffff802053cb:	48 8b 4d f0          	mov    -0x10(%rbp),%rcx
ffffffff802053cf:	0f b6 54 01 01       	movzbl 0x1(%rcx,%rax,1),%edx
ffffffff802053d4:	83 ea 2a             	sub    $0x2a,%edx
ffffffff802053d7:	89 95 34 ff ff ff    	mov    %edx,-0xcc(%rbp)
ffffffff802053dd:	75 67                	jne    ffffffff80205446 <vsnprintf+0x406>
ffffffff802053df:	eb 00                	jmp    ffffffff802053e1 <vsnprintf+0x3a1>
ffffffff802053e1:	48 8b 45 e8          	mov    -0x18(%rbp),%rax
ffffffff802053e5:	8b 08                	mov    (%rax),%ecx
ffffffff802053e7:	83 f9 28             	cmp    $0x28,%ecx
ffffffff802053ea:	48 89 85 28 ff ff ff 	mov    %rax,-0xd8(%rbp)
ffffffff802053f1:	89 8d 24 ff ff ff    	mov    %ecx,-0xdc(%rbp)
ffffffff802053f7:	77 22                	ja     ffffffff8020541b <vsnprintf+0x3db>
ffffffff802053f9:	8b 85 24 ff ff ff    	mov    -0xdc(%rbp),%eax
ffffffff802053ff:	48 63 c8             	movslq %eax,%rcx
ffffffff80205402:	48 8b 95 28 ff ff ff 	mov    -0xd8(%rbp),%rdx
ffffffff80205409:	48 03 4a 10          	add    0x10(%rdx),%rcx
ffffffff8020540d:	83 c0 08             	add    $0x8,%eax
ffffffff80205410:	89 02                	mov    %eax,(%rdx)
ffffffff80205412:	48 89 8d 18 ff ff ff 	mov    %rcx,-0xe8(%rbp)
ffffffff80205419:	eb 1d                	jmp    ffffffff80205438 <vsnprintf+0x3f8>
ffffffff8020541b:	48 8b 85 28 ff ff ff 	mov    -0xd8(%rbp),%rax
ffffffff80205422:	48 8b 48 08          	mov    0x8(%rax),%rcx
ffffffff80205426:	48 89 ca             	mov    %rcx,%rdx
ffffffff80205429:	48 83 c1 08          	add    $0x8,%rcx
ffffffff8020542d:	48 89 48 08          	mov    %rcx,0x8(%rax)
ffffffff80205431:	48 89 95 18 ff ff ff 	mov    %rdx,-0xe8(%rbp)
ffffffff80205438:	48 8b 85 18 ff ff ff 	mov    -0xe8(%rbp),%rax
ffffffff8020543f:	8b 08                	mov    (%rax),%ecx
ffffffff80205441:	89 4d c0             	mov    %ecx,-0x40(%rbp)
ffffffff80205444:	eb 71                	jmp    ffffffff802054b7 <vsnprintf+0x477>
ffffffff80205446:	eb 00                	jmp    ffffffff80205448 <vsnprintf+0x408>
ffffffff80205448:	31 c0                	xor    %eax,%eax
ffffffff8020544a:	88 c1                	mov    %al,%cl
ffffffff8020544c:	48 8b 55 d0          	mov    -0x30(%rbp),%rdx
ffffffff80205450:	48 8b 75 f0          	mov    -0x10(%rbp),%rsi
ffffffff80205454:	0f be 04 16          	movsbl (%rsi,%rdx,1),%eax
ffffffff80205458:	83 e8 30             	sub    $0x30,%eax
ffffffff8020545b:	83 f8 09             	cmp    $0x9,%eax
ffffffff8020545e:	88 8d 17 ff ff ff    	mov    %cl,-0xe9(%rbp)
ffffffff80205464:	7f 1d                	jg     ffffffff80205483 <vsnprintf+0x443>
ffffffff80205466:	48 8b 45 d0          	mov    -0x30(%rbp),%rax
ffffffff8020546a:	48 8b 4d f0          	mov    -0x10(%rbp),%rcx
ffffffff8020546e:	0f be 14 01          	movsbl (%rcx,%rax,1),%edx
ffffffff80205472:	83 ea 30             	sub    $0x30,%edx
ffffffff80205475:	83 fa 00             	cmp    $0x0,%edx
ffffffff80205478:	40 0f 9d c6          	setge  %sil
ffffffff8020547c:	40 88 b5 17 ff ff ff 	mov    %sil,-0xe9(%rbp)
ffffffff80205483:	8a 85 17 ff ff ff    	mov    -0xe9(%rbp),%al
ffffffff80205489:	a8 01                	test   $0x1,%al
ffffffff8020548b:	75 02                	jne    ffffffff8020548f <vsnprintf+0x44f>
ffffffff8020548d:	eb 26                	jmp    ffffffff802054b5 <vsnprintf+0x475>
ffffffff8020548f:	6b 45 c4 0a          	imul   $0xa,-0x3c(%rbp),%eax
ffffffff80205493:	48 8b 4d d0          	mov    -0x30(%rbp),%rcx
ffffffff80205497:	48 8b 55 f0          	mov    -0x10(%rbp),%rdx
ffffffff8020549b:	0f be 34 0a          	movsbl (%rdx,%rcx,1),%esi
ffffffff8020549f:	83 ee 30             	sub    $0x30,%esi
ffffffff802054a2:	01 f0                	add    %esi,%eax
ffffffff802054a4:	89 45 c4             	mov    %eax,-0x3c(%rbp)
ffffffff802054a7:	48 8b 4d d0          	mov    -0x30(%rbp),%rcx
ffffffff802054ab:	48 83 c1 01          	add    $0x1,%rcx
ffffffff802054af:	48 89 4d d0          	mov    %rcx,-0x30(%rbp)
ffffffff802054b3:	eb 93                	jmp    ffffffff80205448 <vsnprintf+0x408>
ffffffff802054b5:	eb 00                	jmp    ffffffff802054b7 <vsnprintf+0x477>
ffffffff802054b7:	e9 73 04 00 00       	jmpq   ffffffff8020592f <vsnprintf+0x8ef>
ffffffff802054bc:	48 8b 45 e8          	mov    -0x18(%rbp),%rax
ffffffff802054c0:	8b 08                	mov    (%rax),%ecx
ffffffff802054c2:	83 f9 28             	cmp    $0x28,%ecx
ffffffff802054c5:	48 89 85 08 ff ff ff 	mov    %rax,-0xf8(%rbp)
ffffffff802054cc:	89 8d 04 ff ff ff    	mov    %ecx,-0xfc(%rbp)
ffffffff802054d2:	77 22                	ja     ffffffff802054f6 <vsnprintf+0x4b6>
ffffffff802054d4:	8b 85 04 ff ff ff    	mov    -0xfc(%rbp),%eax
ffffffff802054da:	48 63 c8             	movslq %eax,%rcx
ffffffff802054dd:	48 8b 95 08 ff ff ff 	mov    -0xf8(%rbp),%rdx
ffffffff802054e4:	48 03 4a 10          	add    0x10(%rdx),%rcx
ffffffff802054e8:	83 c0 08             	add    $0x8,%eax
ffffffff802054eb:	89 02                	mov    %eax,(%rdx)
ffffffff802054ed:	48 89 8d f8 fe ff ff 	mov    %rcx,-0x108(%rbp)
ffffffff802054f4:	eb 1d                	jmp    ffffffff80205513 <vsnprintf+0x4d3>
ffffffff802054f6:	48 8b 85 08 ff ff ff 	mov    -0xf8(%rbp),%rax
ffffffff802054fd:	48 8b 48 08          	mov    0x8(%rax),%rcx
ffffffff80205501:	48 89 ca             	mov    %rcx,%rdx
ffffffff80205504:	48 83 c1 08          	add    $0x8,%rcx
ffffffff80205508:	48 89 48 08          	mov    %rcx,0x8(%rax)
ffffffff8020550c:	48 89 95 f8 fe ff ff 	mov    %rdx,-0x108(%rbp)
ffffffff80205513:	48 8b 85 f8 fe ff ff 	mov    -0x108(%rbp),%rax
ffffffff8020551a:	b9 0a 00 00 00       	mov    $0xa,%ecx
ffffffff8020551f:	48 63 38             	movslq (%rax),%rdi
ffffffff80205522:	48 8b 75 f8          	mov    -0x8(%rbp),%rsi
ffffffff80205526:	ba 0a 00 00 00       	mov    $0xa,%edx
ffffffff8020552b:	89 8d f4 fe ff ff    	mov    %ecx,-0x10c(%rbp)
ffffffff80205531:	e8 5a f6 ff ff       	callq  ffffffff80204b90 <itoa>
ffffffff80205536:	48 8b 75 f8          	mov    -0x8(%rbp),%rsi
ffffffff8020553a:	48 29 f0             	sub    %rsi,%rax
ffffffff8020553d:	89 c1                	mov    %eax,%ecx
ffffffff8020553f:	89 4d bc             	mov    %ecx,-0x44(%rbp)
ffffffff80205542:	8b 4d bc             	mov    -0x44(%rbp),%ecx
ffffffff80205545:	83 c1 01             	add    $0x1,%ecx
ffffffff80205548:	89 4d bc             	mov    %ecx,-0x44(%rbp)
ffffffff8020554b:	8b 4d bc             	mov    -0x44(%rbp),%ecx
ffffffff8020554e:	48 8b 45 f8          	mov    -0x8(%rbp),%rax
ffffffff80205552:	48 63 f1             	movslq %ecx,%rsi
ffffffff80205555:	48 01 f0             	add    %rsi,%rax
ffffffff80205558:	48 89 45 f8          	mov    %rax,-0x8(%rbp)
ffffffff8020555c:	8b 45 bc             	mov    -0x44(%rbp),%eax
ffffffff8020555f:	3b 45 c4             	cmp    -0x3c(%rbp),%eax
ffffffff80205562:	7d 1f                	jge    ffffffff80205583 <vsnprintf+0x543>
ffffffff80205564:	8a 45 cb             	mov    -0x35(%rbp),%al
ffffffff80205567:	48 8b 4d f8          	mov    -0x8(%rbp),%rcx
ffffffff8020556b:	48 89 ca             	mov    %rcx,%rdx
ffffffff8020556e:	48 83 c2 01          	add    $0x1,%rdx
ffffffff80205572:	48 89 55 f8          	mov    %rdx,-0x8(%rbp)
ffffffff80205576:	88 01                	mov    %al,(%rcx)
ffffffff80205578:	8b 75 bc             	mov    -0x44(%rbp),%esi
ffffffff8020557b:	83 c6 01             	add    $0x1,%esi
ffffffff8020557e:	89 75 bc             	mov    %esi,-0x44(%rbp)
ffffffff80205581:	eb d9                	jmp    ffffffff8020555c <vsnprintf+0x51c>
ffffffff80205583:	c7 45 cc 00 00 00 00 	movl   $0x0,-0x34(%rbp)
ffffffff8020558a:	e9 a0 03 00 00       	jmpq   ffffffff8020592f <vsnprintf+0x8ef>
ffffffff8020558f:	48 8b 45 e8          	mov    -0x18(%rbp),%rax
ffffffff80205593:	8b 08                	mov    (%rax),%ecx
ffffffff80205595:	83 f9 28             	cmp    $0x28,%ecx
ffffffff80205598:	48 89 85 e8 fe ff ff 	mov    %rax,-0x118(%rbp)
ffffffff8020559f:	89 8d e4 fe ff ff    	mov    %ecx,-0x11c(%rbp)
ffffffff802055a5:	77 22                	ja     ffffffff802055c9 <vsnprintf+0x589>
ffffffff802055a7:	8b 85 e4 fe ff ff    	mov    -0x11c(%rbp),%eax
ffffffff802055ad:	48 63 c8             	movslq %eax,%rcx
ffffffff802055b0:	48 8b 95 e8 fe ff ff 	mov    -0x118(%rbp),%rdx
ffffffff802055b7:	48 03 4a 10          	add    0x10(%rdx),%rcx
ffffffff802055bb:	83 c0 08             	add    $0x8,%eax
ffffffff802055be:	89 02                	mov    %eax,(%rdx)
ffffffff802055c0:	48 89 8d d8 fe ff ff 	mov    %rcx,-0x128(%rbp)
ffffffff802055c7:	eb 1d                	jmp    ffffffff802055e6 <vsnprintf+0x5a6>
ffffffff802055c9:	48 8b 85 e8 fe ff ff 	mov    -0x118(%rbp),%rax
ffffffff802055d0:	48 8b 48 08          	mov    0x8(%rax),%rcx
ffffffff802055d4:	48 89 ca             	mov    %rcx,%rdx
ffffffff802055d7:	48 83 c1 08          	add    $0x8,%rcx
ffffffff802055db:	48 89 48 08          	mov    %rcx,0x8(%rax)
ffffffff802055df:	48 89 95 d8 fe ff ff 	mov    %rdx,-0x128(%rbp)
ffffffff802055e6:	48 8b 85 d8 fe ff ff 	mov    -0x128(%rbp),%rax
ffffffff802055ed:	b9 0a 00 00 00       	mov    $0xa,%ecx
ffffffff802055f2:	8b 10                	mov    (%rax),%edx
ffffffff802055f4:	89 d7                	mov    %edx,%edi
ffffffff802055f6:	48 8b 75 f8          	mov    -0x8(%rbp),%rsi
ffffffff802055fa:	ba 0a 00 00 00       	mov    $0xa,%edx
ffffffff802055ff:	89 8d d4 fe ff ff    	mov    %ecx,-0x12c(%rbp)
ffffffff80205605:	e8 e6 f7 ff ff       	callq  ffffffff80204df0 <utoa>
ffffffff8020560a:	48 89 45 f8          	mov    %rax,-0x8(%rbp)
ffffffff8020560e:	c7 45 cc 00 00 00 00 	movl   $0x0,-0x34(%rbp)
ffffffff80205615:	e9 15 03 00 00       	jmpq   ffffffff8020592f <vsnprintf+0x8ef>
ffffffff8020561a:	48 8b 45 e8          	mov    -0x18(%rbp),%rax
ffffffff8020561e:	8b 08                	mov    (%rax),%ecx
ffffffff80205620:	83 f9 28             	cmp    $0x28,%ecx
ffffffff80205623:	48 89 85 c8 fe ff ff 	mov    %rax,-0x138(%rbp)
ffffffff8020562a:	89 8d c4 fe ff ff    	mov    %ecx,-0x13c(%rbp)
ffffffff80205630:	77 22                	ja     ffffffff80205654 <vsnprintf+0x614>
ffffffff80205632:	8b 85 c4 fe ff ff    	mov    -0x13c(%rbp),%eax
ffffffff80205638:	48 63 c8             	movslq %eax,%rcx
ffffffff8020563b:	48 8b 95 c8 fe ff ff 	mov    -0x138(%rbp),%rdx
ffffffff80205642:	48 03 4a 10          	add    0x10(%rdx),%rcx
ffffffff80205646:	83 c0 08             	add    $0x8,%eax
ffffffff80205649:	89 02                	mov    %eax,(%rdx)
ffffffff8020564b:	48 89 8d b8 fe ff ff 	mov    %rcx,-0x148(%rbp)
ffffffff80205652:	eb 1d                	jmp    ffffffff80205671 <vsnprintf+0x631>
ffffffff80205654:	48 8b 85 c8 fe ff ff 	mov    -0x138(%rbp),%rax
ffffffff8020565b:	48 8b 48 08          	mov    0x8(%rax),%rcx
ffffffff8020565f:	48 89 ca             	mov    %rcx,%rdx
ffffffff80205662:	48 83 c1 08          	add    $0x8,%rcx
ffffffff80205666:	48 89 48 08          	mov    %rcx,0x8(%rax)
ffffffff8020566a:	48 89 95 b8 fe ff ff 	mov    %rdx,-0x148(%rbp)
ffffffff80205671:	48 8b 85 b8 fe ff ff 	mov    -0x148(%rbp),%rax
ffffffff80205678:	b9 02 00 00 00       	mov    $0x2,%ecx
ffffffff8020567d:	8b 10                	mov    (%rax),%edx
ffffffff8020567f:	89 d7                	mov    %edx,%edi
ffffffff80205681:	48 8b 75 f8          	mov    -0x8(%rbp),%rsi
ffffffff80205685:	ba 02 00 00 00       	mov    $0x2,%edx
ffffffff8020568a:	89 8d b4 fe ff ff    	mov    %ecx,-0x14c(%rbp)
ffffffff80205690:	e8 5b f7 ff ff       	callq  ffffffff80204df0 <utoa>
ffffffff80205695:	48 89 45 f8          	mov    %rax,-0x8(%rbp)
ffffffff80205699:	c7 45 cc 00 00 00 00 	movl   $0x0,-0x34(%rbp)
ffffffff802056a0:	e9 8a 02 00 00       	jmpq   ffffffff8020592f <vsnprintf+0x8ef>
ffffffff802056a5:	48 8b 45 e8          	mov    -0x18(%rbp),%rax
ffffffff802056a9:	8b 08                	mov    (%rax),%ecx
ffffffff802056ab:	83 f9 28             	cmp    $0x28,%ecx
ffffffff802056ae:	48 89 85 a8 fe ff ff 	mov    %rax,-0x158(%rbp)
ffffffff802056b5:	89 8d a4 fe ff ff    	mov    %ecx,-0x15c(%rbp)
ffffffff802056bb:	77 22                	ja     ffffffff802056df <vsnprintf+0x69f>
ffffffff802056bd:	8b 85 a4 fe ff ff    	mov    -0x15c(%rbp),%eax
ffffffff802056c3:	48 63 c8             	movslq %eax,%rcx
ffffffff802056c6:	48 8b 95 a8 fe ff ff 	mov    -0x158(%rbp),%rdx
ffffffff802056cd:	48 03 4a 10          	add    0x10(%rdx),%rcx
ffffffff802056d1:	83 c0 08             	add    $0x8,%eax
ffffffff802056d4:	89 02                	mov    %eax,(%rdx)
ffffffff802056d6:	48 89 8d 98 fe ff ff 	mov    %rcx,-0x168(%rbp)
ffffffff802056dd:	eb 1d                	jmp    ffffffff802056fc <vsnprintf+0x6bc>
ffffffff802056df:	48 8b 85 a8 fe ff ff 	mov    -0x158(%rbp),%rax
ffffffff802056e6:	48 8b 48 08          	mov    0x8(%rax),%rcx
ffffffff802056ea:	48 89 ca             	mov    %rcx,%rdx
ffffffff802056ed:	48 83 c1 08          	add    $0x8,%rcx
ffffffff802056f1:	48 89 48 08          	mov    %rcx,0x8(%rax)
ffffffff802056f5:	48 89 95 98 fe ff ff 	mov    %rdx,-0x168(%rbp)
ffffffff802056fc:	48 8b 85 98 fe ff ff 	mov    -0x168(%rbp),%rax
ffffffff80205703:	b9 08 00 00 00       	mov    $0x8,%ecx
ffffffff80205708:	8b 10                	mov    (%rax),%edx
ffffffff8020570a:	89 d7                	mov    %edx,%edi
ffffffff8020570c:	48 8b 75 f8          	mov    -0x8(%rbp),%rsi
ffffffff80205710:	ba 08 00 00 00       	mov    $0x8,%edx
ffffffff80205715:	89 8d 94 fe ff ff    	mov    %ecx,-0x16c(%rbp)
ffffffff8020571b:	e8 d0 f6 ff ff       	callq  ffffffff80204df0 <utoa>
ffffffff80205720:	48 89 45 f8          	mov    %rax,-0x8(%rbp)
ffffffff80205724:	c7 45 cc 00 00 00 00 	movl   $0x0,-0x34(%rbp)
ffffffff8020572b:	e9 ff 01 00 00       	jmpq   ffffffff8020592f <vsnprintf+0x8ef>
ffffffff80205730:	48 8b 45 e8          	mov    -0x18(%rbp),%rax
ffffffff80205734:	8b 08                	mov    (%rax),%ecx
ffffffff80205736:	83 f9 28             	cmp    $0x28,%ecx
ffffffff80205739:	48 89 85 88 fe ff ff 	mov    %rax,-0x178(%rbp)
ffffffff80205740:	89 8d 84 fe ff ff    	mov    %ecx,-0x17c(%rbp)
ffffffff80205746:	77 22                	ja     ffffffff8020576a <vsnprintf+0x72a>
ffffffff80205748:	8b 85 84 fe ff ff    	mov    -0x17c(%rbp),%eax
ffffffff8020574e:	48 63 c8             	movslq %eax,%rcx
ffffffff80205751:	48 8b 95 88 fe ff ff 	mov    -0x178(%rbp),%rdx
ffffffff80205758:	48 03 4a 10          	add    0x10(%rdx),%rcx
ffffffff8020575c:	83 c0 08             	add    $0x8,%eax
ffffffff8020575f:	89 02                	mov    %eax,(%rdx)
ffffffff80205761:	48 89 8d 78 fe ff ff 	mov    %rcx,-0x188(%rbp)
ffffffff80205768:	eb 1d                	jmp    ffffffff80205787 <vsnprintf+0x747>
ffffffff8020576a:	48 8b 85 88 fe ff ff 	mov    -0x178(%rbp),%rax
ffffffff80205771:	48 8b 48 08          	mov    0x8(%rax),%rcx
ffffffff80205775:	48 89 ca             	mov    %rcx,%rdx
ffffffff80205778:	48 83 c1 08          	add    $0x8,%rcx
ffffffff8020577c:	48 89 48 08          	mov    %rcx,0x8(%rax)
ffffffff80205780:	48 89 95 78 fe ff ff 	mov    %rdx,-0x188(%rbp)
ffffffff80205787:	48 8b 85 78 fe ff ff 	mov    -0x188(%rbp),%rax
ffffffff8020578e:	b9 10 00 00 00       	mov    $0x10,%ecx
ffffffff80205793:	8b 10                	mov    (%rax),%edx
ffffffff80205795:	89 d7                	mov    %edx,%edi
ffffffff80205797:	48 8b 75 f8          	mov    -0x8(%rbp),%rsi
ffffffff8020579b:	ba 10 00 00 00       	mov    $0x10,%edx
ffffffff802057a0:	89 8d 74 fe ff ff    	mov    %ecx,-0x18c(%rbp)
ffffffff802057a6:	e8 45 f6 ff ff       	callq  ffffffff80204df0 <utoa>
ffffffff802057ab:	48 89 45 f8          	mov    %rax,-0x8(%rbp)
ffffffff802057af:	c7 45 cc 00 00 00 00 	movl   $0x0,-0x34(%rbp)
ffffffff802057b6:	e9 74 01 00 00       	jmpq   ffffffff8020592f <vsnprintf+0x8ef>
ffffffff802057bb:	48 8b 45 f8          	mov    -0x8(%rbp),%rax
ffffffff802057bf:	48 83 c0 01          	add    $0x1,%rax
ffffffff802057c3:	48 89 45 f8          	mov    %rax,-0x8(%rbp)
ffffffff802057c7:	c7 45 cc 00 00 00 00 	movl   $0x0,-0x34(%rbp)
ffffffff802057ce:	e9 5c 01 00 00       	jmpq   ffffffff8020592f <vsnprintf+0x8ef>
ffffffff802057d3:	48 8b 45 e8          	mov    -0x18(%rbp),%rax
ffffffff802057d7:	8b 08                	mov    (%rax),%ecx
ffffffff802057d9:	83 f9 28             	cmp    $0x28,%ecx
ffffffff802057dc:	48 89 85 68 fe ff ff 	mov    %rax,-0x198(%rbp)
ffffffff802057e3:	89 8d 64 fe ff ff    	mov    %ecx,-0x19c(%rbp)
ffffffff802057e9:	77 22                	ja     ffffffff8020580d <vsnprintf+0x7cd>
ffffffff802057eb:	8b 85 64 fe ff ff    	mov    -0x19c(%rbp),%eax
ffffffff802057f1:	48 63 c8             	movslq %eax,%rcx
ffffffff802057f4:	48 8b 95 68 fe ff ff 	mov    -0x198(%rbp),%rdx
ffffffff802057fb:	48 03 4a 10          	add    0x10(%rdx),%rcx
ffffffff802057ff:	83 c0 08             	add    $0x8,%eax
ffffffff80205802:	89 02                	mov    %eax,(%rdx)
ffffffff80205804:	48 89 8d 58 fe ff ff 	mov    %rcx,-0x1a8(%rbp)
ffffffff8020580b:	eb 1d                	jmp    ffffffff8020582a <vsnprintf+0x7ea>
ffffffff8020580d:	48 8b 85 68 fe ff ff 	mov    -0x198(%rbp),%rax
ffffffff80205814:	48 8b 48 08          	mov    0x8(%rax),%rcx
ffffffff80205818:	48 89 ca             	mov    %rcx,%rdx
ffffffff8020581b:	48 83 c1 08          	add    $0x8,%rcx
ffffffff8020581f:	48 89 48 08          	mov    %rcx,0x8(%rax)
ffffffff80205823:	48 89 95 58 fe ff ff 	mov    %rdx,-0x1a8(%rbp)
ffffffff8020582a:	48 8b 85 58 fe ff ff 	mov    -0x1a8(%rbp),%rax
ffffffff80205831:	8b 08                	mov    (%rax),%ecx
ffffffff80205833:	81 e1 ff 00 00 00    	and    $0xff,%ecx
ffffffff80205839:	88 ca                	mov    %cl,%dl
ffffffff8020583b:	48 8b 45 f8          	mov    -0x8(%rbp),%rax
ffffffff8020583f:	48 89 c6             	mov    %rax,%rsi
ffffffff80205842:	48 83 c6 01          	add    $0x1,%rsi
ffffffff80205846:	48 89 75 f8          	mov    %rsi,-0x8(%rbp)
ffffffff8020584a:	88 10                	mov    %dl,(%rax)
ffffffff8020584c:	c7 45 cc 00 00 00 00 	movl   $0x0,-0x34(%rbp)
ffffffff80205853:	e9 d7 00 00 00       	jmpq   ffffffff8020592f <vsnprintf+0x8ef>
ffffffff80205858:	48 8b 45 e8          	mov    -0x18(%rbp),%rax
ffffffff8020585c:	8b 08                	mov    (%rax),%ecx
ffffffff8020585e:	83 f9 28             	cmp    $0x28,%ecx
ffffffff80205861:	48 89 85 50 fe ff ff 	mov    %rax,-0x1b0(%rbp)
ffffffff80205868:	89 8d 4c fe ff ff    	mov    %ecx,-0x1b4(%rbp)
ffffffff8020586e:	77 22                	ja     ffffffff80205892 <vsnprintf+0x852>
ffffffff80205870:	8b 85 4c fe ff ff    	mov    -0x1b4(%rbp),%eax
ffffffff80205876:	48 63 c8             	movslq %eax,%rcx
ffffffff80205879:	48 8b 95 50 fe ff ff 	mov    -0x1b0(%rbp),%rdx
ffffffff80205880:	48 03 4a 10          	add    0x10(%rdx),%rcx
ffffffff80205884:	83 c0 08             	add    $0x8,%eax
ffffffff80205887:	89 02                	mov    %eax,(%rdx)
ffffffff80205889:	48 89 8d 40 fe ff ff 	mov    %rcx,-0x1c0(%rbp)
ffffffff80205890:	eb 1d                	jmp    ffffffff802058af <vsnprintf+0x86f>
ffffffff80205892:	48 8b 85 50 fe ff ff 	mov    -0x1b0(%rbp),%rax
ffffffff80205899:	48 8b 48 08          	mov    0x8(%rax),%rcx
ffffffff8020589d:	48 89 ca             	mov    %rcx,%rdx
ffffffff802058a0:	48 83 c1 08          	add    $0x8,%rcx
ffffffff802058a4:	48 89 48 08          	mov    %rcx,0x8(%rax)
ffffffff802058a8:	48 89 95 40 fe ff ff 	mov    %rdx,-0x1c0(%rbp)
ffffffff802058af:	48 8b 85 40 fe ff ff 	mov    -0x1c0(%rbp),%rax
ffffffff802058b6:	48 8b 00             	mov    (%rax),%rax
ffffffff802058b9:	48 89 45 b0          	mov    %rax,-0x50(%rbp)
ffffffff802058bd:	48 8b 7d f8          	mov    -0x8(%rbp),%rdi
ffffffff802058c1:	48 8b 75 b0          	mov    -0x50(%rbp),%rsi
ffffffff802058c5:	48 8b 45 b0          	mov    -0x50(%rbp),%rax
ffffffff802058c9:	48 89 bd 38 fe ff ff 	mov    %rdi,-0x1c8(%rbp)
ffffffff802058d0:	48 89 c7             	mov    %rax,%rdi
ffffffff802058d3:	48 89 b5 30 fe ff ff 	mov    %rsi,-0x1d0(%rbp)
ffffffff802058da:	e8 c1 ef ff ff       	callq  ffffffff802048a0 <strlen>
ffffffff802058df:	48 8b bd 38 fe ff ff 	mov    -0x1c8(%rbp),%rdi
ffffffff802058e6:	48 8b b5 30 fe ff ff 	mov    -0x1d0(%rbp),%rsi
ffffffff802058ed:	48 89 c2             	mov    %rax,%rdx
ffffffff802058f0:	e8 8b ed ff ff       	callq  ffffffff80204680 <memcpy>
ffffffff802058f5:	48 8b 7d b0          	mov    -0x50(%rbp),%rdi
ffffffff802058f9:	48 89 85 28 fe ff ff 	mov    %rax,-0x1d8(%rbp)
ffffffff80205900:	e8 9b ef ff ff       	callq  ffffffff802048a0 <strlen>
ffffffff80205905:	48 03 45 f8          	add    -0x8(%rbp),%rax
ffffffff80205909:	48 89 45 f8          	mov    %rax,-0x8(%rbp)
ffffffff8020590d:	c7 45 cc 00 00 00 00 	movl   $0x0,-0x34(%rbp)
ffffffff80205914:	eb 19                	jmp    ffffffff8020592f <vsnprintf+0x8ef>
ffffffff80205916:	48 8b 45 f8          	mov    -0x8(%rbp),%rax
ffffffff8020591a:	48 89 c1             	mov    %rax,%rcx
ffffffff8020591d:	48 83 c1 01          	add    $0x1,%rcx
ffffffff80205921:	48 89 4d f8          	mov    %rcx,-0x8(%rbp)
ffffffff80205925:	c6 00 25             	movb   $0x25,(%rax)
ffffffff80205928:	c7 45 cc 00 00 00 00 	movl   $0x0,-0x34(%rbp)
ffffffff8020592f:	e9 06 f8 ff ff       	jmpq   ffffffff8020513a <vsnprintf+0xfa>
ffffffff80205934:	eb 00                	jmp    ffffffff80205936 <vsnprintf+0x8f6>
ffffffff80205936:	eb 00                	jmp    ffffffff80205938 <vsnprintf+0x8f8>
ffffffff80205938:	48 8b 45 d0          	mov    -0x30(%rbp),%rax
ffffffff8020593c:	48 83 c0 01          	add    $0x1,%rax
ffffffff80205940:	48 89 45 d0          	mov    %rax,-0x30(%rbp)
ffffffff80205944:	e9 7b f7 ff ff       	jmpq   ffffffff802050c4 <vsnprintf+0x84>
ffffffff80205949:	31 c0                	xor    %eax,%eax
ffffffff8020594b:	48 8b 4d f8          	mov    -0x8(%rbp),%rcx
ffffffff8020594f:	c6 01 00             	movb   $0x0,(%rcx)
ffffffff80205952:	48 81 c4 e0 01 00 00 	add    $0x1e0,%rsp
ffffffff80205959:	5d                   	pop    %rbp
ffffffff8020595a:	c3                   	retq
ffffffff8020595b:	0f 1f 44 00 00       	nopl   0x0(%rax,%rax,1)

ffffffff80205960 <sprintf>:
ffffffff80205960:	55                   	push   %rbp
ffffffff80205961:	48 89 e5             	mov    %rsp,%rbp
ffffffff80205964:	48 81 ec a0 01 00 00 	sub    $0x1a0,%rsp
ffffffff8020596b:	84 c0                	test   %al,%al
ffffffff8020596d:	0f 29 bd 10 ff ff ff 	movaps %xmm7,-0xf0(%rbp)
ffffffff80205974:	0f 29 b5 00 ff ff ff 	movaps %xmm6,-0x100(%rbp)
ffffffff8020597b:	0f 29 ad f0 fe ff ff 	movaps %xmm5,-0x110(%rbp)
ffffffff80205982:	0f 29 a5 e0 fe ff ff 	movaps %xmm4,-0x120(%rbp)
ffffffff80205989:	0f 29 9d d0 fe ff ff 	movaps %xmm3,-0x130(%rbp)
ffffffff80205990:	0f 29 95 c0 fe ff ff 	movaps %xmm2,-0x140(%rbp)
ffffffff80205997:	0f 29 8d b0 fe ff ff 	movaps %xmm1,-0x150(%rbp)
ffffffff8020599e:	0f 29 85 a0 fe ff ff 	movaps %xmm0,-0x160(%rbp)
ffffffff802059a5:	48 89 bd 98 fe ff ff 	mov    %rdi,-0x168(%rbp)
ffffffff802059ac:	4c 89 8d 90 fe ff ff 	mov    %r9,-0x170(%rbp)
ffffffff802059b3:	4c 89 85 88 fe ff ff 	mov    %r8,-0x178(%rbp)
ffffffff802059ba:	48 89 8d 80 fe ff ff 	mov    %rcx,-0x180(%rbp)
ffffffff802059c1:	48 89 95 78 fe ff ff 	mov    %rdx,-0x188(%rbp)
ffffffff802059c8:	48 89 b5 70 fe ff ff 	mov    %rsi,-0x190(%rbp)
ffffffff802059cf:	74 61                	je     ffffffff80205a32 <sprintf+0xd2>
ffffffff802059d1:	0f 28 85 a0 fe ff ff 	movaps -0x160(%rbp),%xmm0
ffffffff802059d8:	0f 29 85 50 ff ff ff 	movaps %xmm0,-0xb0(%rbp)
ffffffff802059df:	0f 28 8d b0 fe ff ff 	movaps -0x150(%rbp),%xmm1
ffffffff802059e6:	0f 29 8d 60 ff ff ff 	movaps %xmm1,-0xa0(%rbp)
ffffffff802059ed:	0f 28 95 c0 fe ff ff 	movaps -0x140(%rbp),%xmm2
ffffffff802059f4:	0f 29 95 70 ff ff ff 	movaps %xmm2,-0x90(%rbp)
ffffffff802059fb:	0f 28 9d d0 fe ff ff 	movaps -0x130(%rbp),%xmm3
ffffffff80205a02:	0f 29 5d 80          	movaps %xmm3,-0x80(%rbp)
ffffffff80205a06:	0f 28 a5 e0 fe ff ff 	movaps -0x120(%rbp),%xmm4
ffffffff80205a0d:	0f 29 65 90          	movaps %xmm4,-0x70(%rbp)
ffffffff80205a11:	0f 28 ad f0 fe ff ff 	movaps -0x110(%rbp),%xmm5
ffffffff80205a18:	0f 29 6d a0          	movaps %xmm5,-0x60(%rbp)
ffffffff80205a1c:	0f 28 b5 00 ff ff ff 	movaps -0x100(%rbp),%xmm6
ffffffff80205a23:	0f 29 75 b0          	movaps %xmm6,-0x50(%rbp)
ffffffff80205a27:	0f 28 bd 10 ff ff ff 	movaps -0xf0(%rbp),%xmm7
ffffffff80205a2e:	0f 29 7d c0          	movaps %xmm7,-0x40(%rbp)
ffffffff80205a32:	48 8b 85 90 fe ff ff 	mov    -0x170(%rbp),%rax
ffffffff80205a39:	48 89 85 48 ff ff ff 	mov    %rax,-0xb8(%rbp)
ffffffff80205a40:	48 8b 8d 88 fe ff ff 	mov    -0x178(%rbp),%rcx
ffffffff80205a47:	48 89 8d 40 ff ff ff 	mov    %rcx,-0xc0(%rbp)
ffffffff80205a4e:	48 8b 95 80 fe ff ff 	mov    -0x180(%rbp),%rdx
ffffffff80205a55:	48 89 95 38 ff ff ff 	mov    %rdx,-0xc8(%rbp)
ffffffff80205a5c:	48 8b b5 78 fe ff ff 	mov    -0x188(%rbp),%rsi
ffffffff80205a63:	48 89 b5 30 ff ff ff 	mov    %rsi,-0xd0(%rbp)
ffffffff80205a6a:	48 8b bd 70 fe ff ff 	mov    -0x190(%rbp),%rdi
ffffffff80205a71:	4c 8b 85 98 fe ff ff 	mov    -0x168(%rbp),%r8
ffffffff80205a78:	4c 89 45 f8          	mov    %r8,-0x8(%rbp)
ffffffff80205a7c:	48 89 7d f0          	mov    %rdi,-0x10(%rbp)
ffffffff80205a80:	48 8d bd 20 ff ff ff 	lea    -0xe0(%rbp),%rdi
ffffffff80205a87:	48 89 7d e0          	mov    %rdi,-0x20(%rbp)
ffffffff80205a8b:	48 8d 7d 10          	lea    0x10(%rbp),%rdi
ffffffff80205a8f:	48 89 7d d8          	mov    %rdi,-0x28(%rbp)
ffffffff80205a93:	c7 45 d4 30 00 00 00 	movl   $0x30,-0x2c(%rbp)
ffffffff80205a9a:	c7 45 d0 10 00 00 00 	movl   $0x10,-0x30(%rbp)
ffffffff80205aa1:	48 8b 7d f8          	mov    -0x8(%rbp),%rdi
ffffffff80205aa5:	48 8b 75 f0          	mov    -0x10(%rbp),%rsi
ffffffff80205aa9:	48 8d 55 d0          	lea    -0x30(%rbp),%rdx
ffffffff80205aad:	e8 8e f5 ff ff       	callq  ffffffff80205040 <vsnprintf>
ffffffff80205ab2:	45 31 c9             	xor    %r9d,%r9d
ffffffff80205ab5:	89 85 6c fe ff ff    	mov    %eax,-0x194(%rbp)
ffffffff80205abb:	44 89 c8             	mov    %r9d,%eax
ffffffff80205abe:	48 81 c4 a0 01 00 00 	add    $0x1a0,%rsp
ffffffff80205ac5:	5d                   	pop    %rbp
ffffffff80205ac6:	c3                   	retq
ffffffff80205ac7:	66 0f 1f 84 00 00 00 	nopw   0x0(%rax,%rax,1)
ffffffff80205ace:	00 00

ffffffff80205ad0 <bootstrap_malloc>:
ffffffff80205ad0:	55                   	push   %rbp
ffffffff80205ad1:	48 89 e5             	mov    %rsp,%rbp
ffffffff80205ad4:	48 83 ec 18          	sub    $0x18,%rsp
ffffffff80205ad8:	48 89 7d f0          	mov    %rdi,-0x10(%rbp)
ffffffff80205adc:	89 f8                	mov    %edi,%eax
ffffffff80205ade:	83 e0 03             	and    $0x3,%eax
ffffffff80205ae1:	89 c1                	mov    %eax,%ecx
ffffffff80205ae3:	48 01 cf             	add    %rcx,%rdi
ffffffff80205ae6:	48 89 7d f0          	mov    %rdi,-0x10(%rbp)
ffffffff80205aea:	8b 04 25 70 dd 20 80 	mov    0xffffffff8020dd70,%eax
ffffffff80205af1:	89 c0                	mov    %eax,%eax
ffffffff80205af3:	89 c1                	mov    %eax,%ecx
ffffffff80205af5:	48 03 4d f0          	add    -0x10(%rbp),%rcx
ffffffff80205af9:	48 81 f9 00 00 00 01 	cmp    $0x1000000,%rcx
ffffffff80205b00:	76 0a                	jbe    ffffffff80205b0c <bootstrap_malloc+0x3c>
ffffffff80205b02:	48 c7 45 f8 00 00 00 	movq   $0x0,-0x8(%rbp)
ffffffff80205b09:	00
ffffffff80205b0a:	eb 2f                	jmp    ffffffff80205b3b <bootstrap_malloc+0x6b>
ffffffff80205b0c:	8b 04 25 70 dd 20 80 	mov    0xffffffff8020dd70,%eax
ffffffff80205b13:	89 c1                	mov    %eax,%ecx
ffffffff80205b15:	48 8d 89 80 dd 20 80 	lea    -0x7fdf2280(%rcx),%rcx
ffffffff80205b1c:	48 89 4d e8          	mov    %rcx,-0x18(%rbp)
ffffffff80205b20:	8b 45 f0             	mov    -0x10(%rbp),%eax
ffffffff80205b23:	8b 14 25 70 dd 20 80 	mov    0xffffffff8020dd70,%edx
ffffffff80205b2a:	01 c2                	add    %eax,%edx
ffffffff80205b2c:	89 14 25 70 dd 20 80 	mov    %edx,0xffffffff8020dd70
ffffffff80205b33:	48 8b 4d e8          	mov    -0x18(%rbp),%rcx
ffffffff80205b37:	48 89 4d f8          	mov    %rcx,-0x8(%rbp)
ffffffff80205b3b:	48 8b 45 f8          	mov    -0x8(%rbp),%rax
ffffffff80205b3f:	48 83 c4 18          	add    $0x18,%rsp
ffffffff80205b43:	5d                   	pop    %rbp
ffffffff80205b44:	c3                   	retq
ffffffff80205b45:	66 2e 0f 1f 84 00 00 	nopw   %cs:0x0(%rax,%rax,1)
ffffffff80205b4c:	00 00 00
ffffffff80205b4f:	90                   	nop

ffffffff80205b50 <ParseAndSaveBootInformation>:
ffffffff80205b50:	55                   	push   %rbp
ffffffff80205b51:	48 89 e5             	mov    %rsp,%rbp
ffffffff80205b54:	48 83 ec 70          	sub    $0x70,%rsp
ffffffff80205b58:	48 89 7d f8          	mov    %rdi,-0x8(%rbp)
ffffffff80205b5c:	48 8b 7d f8          	mov    -0x8(%rbp),%rdi
ffffffff80205b60:	48 89 7d f0          	mov    %rdi,-0x10(%rbp)
ffffffff80205b64:	48 8b 7d f8          	mov    -0x8(%rbp),%rdi
ffffffff80205b68:	8b 07                	mov    (%rdi),%eax
ffffffff80205b6a:	89 45 ec             	mov    %eax,-0x14(%rbp)
ffffffff80205b6d:	48 c7 c7 80 dd 20 81 	mov    $0xffffffff8120dd80,%rdi
ffffffff80205b74:	b8 48 00 00 00       	mov    $0x48,%eax
ffffffff80205b79:	89 c2                	mov    %eax,%edx
ffffffff80205b7b:	31 f6                	xor    %esi,%esi
ffffffff80205b7d:	e8 5e eb ff ff       	callq  ffffffff802046e0 <memset>
ffffffff80205b82:	c7 45 e8 00 00 00 00 	movl   $0x0,-0x18(%rbp)
ffffffff80205b89:	c7 45 e4 08 00 00 00 	movl   $0x8,-0x1c(%rbp)
ffffffff80205b90:	48 89 45 a8          	mov    %rax,-0x58(%rbp)
ffffffff80205b94:	8b 45 e4             	mov    -0x1c(%rbp),%eax
ffffffff80205b97:	3b 45 ec             	cmp    -0x14(%rbp),%eax
ffffffff80205b9a:	0f 83 00 02 00 00    	jae    ffffffff80205da0 <ParseAndSaveBootInformation+0x250>
ffffffff80205ba0:	8b 45 e4             	mov    -0x1c(%rbp),%eax
ffffffff80205ba3:	89 c1                	mov    %eax,%ecx
ffffffff80205ba5:	48 8b 55 f0          	mov    -0x10(%rbp),%rdx
ffffffff80205ba9:	8b 04 0a             	mov    (%rdx,%rcx,1),%eax
ffffffff80205bac:	89 45 e0             	mov    %eax,-0x20(%rbp)
ffffffff80205baf:	85 c0                	test   %eax,%eax
ffffffff80205bb1:	89 45 a4             	mov    %eax,-0x5c(%rbp)
ffffffff80205bb4:	0f 84 a4 01 00 00    	je     ffffffff80205d5e <ParseAndSaveBootInformation+0x20e>
ffffffff80205bba:	eb 00                	jmp    ffffffff80205bbc <ParseAndSaveBootInformation+0x6c>
ffffffff80205bbc:	8b 45 a4             	mov    -0x5c(%rbp),%eax
ffffffff80205bbf:	83 e8 06             	sub    $0x6,%eax
ffffffff80205bc2:	89 45 a0             	mov    %eax,-0x60(%rbp)
ffffffff80205bc5:	74 3b                	je     ffffffff80205c02 <ParseAndSaveBootInformation+0xb2>
ffffffff80205bc7:	eb 00                	jmp    ffffffff80205bc9 <ParseAndSaveBootInformation+0x79>
ffffffff80205bc9:	8b 45 a4             	mov    -0x5c(%rbp),%eax
ffffffff80205bcc:	83 e8 08             	sub    $0x8,%eax
ffffffff80205bcf:	89 45 9c             	mov    %eax,-0x64(%rbp)
ffffffff80205bd2:	0f 84 9e 00 00 00    	je     ffffffff80205c76 <ParseAndSaveBootInformation+0x126>
ffffffff80205bd8:	eb 00                	jmp    ffffffff80205bda <ParseAndSaveBootInformation+0x8a>
ffffffff80205bda:	8b 45 a4             	mov    -0x5c(%rbp),%eax
ffffffff80205bdd:	83 e8 09             	sub    $0x9,%eax
ffffffff80205be0:	89 45 98             	mov    %eax,-0x68(%rbp)
ffffffff80205be3:	0f 84 ec 00 00 00    	je     ffffffff80205cd5 <ParseAndSaveBootInformation+0x185>
ffffffff80205be9:	eb 00                	jmp    ffffffff80205beb <ParseAndSaveBootInformation+0x9b>
ffffffff80205beb:	8b 45 a4             	mov    -0x5c(%rbp),%eax
ffffffff80205bee:	83 c0 f2             	add    $0xfffffff2,%eax
ffffffff80205bf1:	83 e8 02             	sub    $0x2,%eax
ffffffff80205bf4:	89 45 94             	mov    %eax,-0x6c(%rbp)
ffffffff80205bf7:	0f 82 3f 01 00 00    	jb     ffffffff80205d3c <ParseAndSaveBootInformation+0x1ec>
ffffffff80205bfd:	e9 5e 01 00 00       	jmpq   ffffffff80205d60 <ParseAndSaveBootInformation+0x210>
ffffffff80205c02:	8b 45 e4             	mov    -0x1c(%rbp),%eax
ffffffff80205c05:	89 c1                	mov    %eax,%ecx
ffffffff80205c07:	48 03 4d f0          	add    -0x10(%rbp),%rcx
ffffffff80205c0b:	48 89 4d d8          	mov    %rcx,-0x28(%rbp)
ffffffff80205c0f:	c7 45 d4 00 00 00 00 	movl   $0x0,-0x2c(%rbp)
ffffffff80205c16:	8b 45 d4             	mov    -0x2c(%rbp),%eax
ffffffff80205c19:	48 8b 4d d8          	mov    -0x28(%rbp),%rcx
ffffffff80205c1d:	8b 51 04             	mov    0x4(%rcx),%edx
ffffffff80205c20:	83 ea 10             	sub    $0x10,%edx
ffffffff80205c23:	39 d0                	cmp    %edx,%eax
ffffffff80205c25:	73 4a                	jae    ffffffff80205c71 <ParseAndSaveBootInformation+0x121>
ffffffff80205c27:	48 8b 45 d8          	mov    -0x28(%rbp),%rax
ffffffff80205c2b:	48 83 c0 10          	add    $0x10,%rax
ffffffff80205c2f:	8b 4d d4             	mov    -0x2c(%rbp),%ecx
ffffffff80205c32:	89 ca                	mov    %ecx,%edx
ffffffff80205c34:	48 01 d0             	add    %rdx,%rax
ffffffff80205c37:	48 89 45 c8          	mov    %rax,-0x38(%rbp)
ffffffff80205c3b:	48 8b 45 c8          	mov    -0x38(%rbp),%rax
ffffffff80205c3f:	83 78 10 01          	cmpl   $0x1,0x10(%rax)
ffffffff80205c43:	75 1b                	jne    ffffffff80205c60 <ParseAndSaveBootInformation+0x110>
ffffffff80205c45:	48 8b 45 c8          	mov    -0x38(%rbp),%rax
ffffffff80205c49:	48 8b 40 08          	mov    0x8(%rax),%rax
ffffffff80205c4d:	48 8b 0c 25 80 dd 20 	mov    0xffffffff8120dd80,%rcx
ffffffff80205c54:	81
ffffffff80205c55:	48 01 c1             	add    %rax,%rcx
ffffffff80205c58:	48 89 0c 25 80 dd 20 	mov    %rcx,0xffffffff8120dd80
ffffffff80205c5f:	81
ffffffff80205c60:	eb 00                	jmp    ffffffff80205c62 <ParseAndSaveBootInformation+0x112>
ffffffff80205c62:	48 8b 45 d8          	mov    -0x28(%rbp),%rax
ffffffff80205c66:	8b 48 08             	mov    0x8(%rax),%ecx
ffffffff80205c69:	03 4d d4             	add    -0x2c(%rbp),%ecx
ffffffff80205c6c:	89 4d d4             	mov    %ecx,-0x2c(%rbp)
ffffffff80205c6f:	eb a5                	jmp    ffffffff80205c16 <ParseAndSaveBootInformation+0xc6>
ffffffff80205c71:	e9 ea 00 00 00       	jmpq   ffffffff80205d60 <ParseAndSaveBootInformation+0x210>
ffffffff80205c76:	8b 45 e4             	mov    -0x1c(%rbp),%eax
ffffffff80205c79:	89 c1                	mov    %eax,%ecx
ffffffff80205c7b:	48 8b 55 f0          	mov    -0x10(%rbp),%rdx
ffffffff80205c7f:	48 89 d6             	mov    %rdx,%rsi
ffffffff80205c82:	48 01 ce             	add    %rcx,%rsi
ffffffff80205c85:	48 89 75 c0          	mov    %rsi,-0x40(%rbp)
ffffffff80205c89:	48 8b 4c 0a 08       	mov    0x8(%rdx,%rcx,1),%rcx
ffffffff80205c8e:	48 89 0c 25 b0 dd 20 	mov    %rcx,0xffffffff8120ddb0
ffffffff80205c95:	81
ffffffff80205c96:	48 8b 4d c0          	mov    -0x40(%rbp),%rcx
ffffffff80205c9a:	8b 41 10             	mov    0x10(%rcx),%eax
ffffffff80205c9d:	89 04 25 b8 dd 20 81 	mov    %eax,0xffffffff8120ddb8
ffffffff80205ca4:	48 8b 4d c0          	mov    -0x40(%rbp),%rcx
ffffffff80205ca8:	8b 41 14             	mov    0x14(%rcx),%eax
ffffffff80205cab:	89 04 25 bc dd 20 81 	mov    %eax,0xffffffff8120ddbc
ffffffff80205cb2:	48 8b 4d c0          	mov    -0x40(%rbp),%rcx
ffffffff80205cb6:	8b 41 18             	mov    0x18(%rcx),%eax
ffffffff80205cb9:	89 04 25 c0 dd 20 81 	mov    %eax,0xffffffff8120ddc0
ffffffff80205cc0:	48 8b 4d c0          	mov    -0x40(%rbp),%rcx
ffffffff80205cc4:	40 8a 79 1c          	mov    0x1c(%rcx),%dil
ffffffff80205cc8:	40 88 3c 25 c4 dd 20 	mov    %dil,0xffffffff8120ddc4
ffffffff80205ccf:	81
ffffffff80205cd0:	e9 8b 00 00 00       	jmpq   ffffffff80205d60 <ParseAndSaveBootInformation+0x210>
ffffffff80205cd5:	8b 45 e4             	mov    -0x1c(%rbp),%eax
ffffffff80205cd8:	89 c1                	mov    %eax,%ecx
ffffffff80205cda:	48 8b 55 f0          	mov    -0x10(%rbp),%rdx
ffffffff80205cde:	48 89 d6             	mov    %rdx,%rsi
ffffffff80205ce1:	48 01 ce             	add    %rcx,%rsi
ffffffff80205ce4:	48 89 75 b8          	mov    %rsi,-0x48(%rbp)
ffffffff80205ce8:	8b 04 0a             	mov    (%rdx,%rcx,1),%eax
ffffffff80205ceb:	89 04 25 88 dd 20 81 	mov    %eax,0xffffffff8120dd88
ffffffff80205cf2:	48 8b 4d b8          	mov    -0x48(%rbp),%rcx
ffffffff80205cf6:	8b 41 04             	mov    0x4(%rcx),%eax
ffffffff80205cf9:	89 04 25 8c dd 20 81 	mov    %eax,0xffffffff8120dd8c
ffffffff80205d00:	48 8b 4d b8          	mov    -0x48(%rbp),%rcx
ffffffff80205d04:	8b 41 08             	mov    0x8(%rcx),%eax
ffffffff80205d07:	89 04 25 90 dd 20 81 	mov    %eax,0xffffffff8120dd90
ffffffff80205d0e:	48 8b 4d b8          	mov    -0x48(%rbp),%rcx
ffffffff80205d12:	8b 41 0c             	mov    0xc(%rcx),%eax
ffffffff80205d15:	89 04 25 94 dd 20 81 	mov    %eax,0xffffffff8120dd94
ffffffff80205d1c:	48 8b 4d b8          	mov    -0x48(%rbp),%rcx
ffffffff80205d20:	8b 41 10             	mov    0x10(%rcx),%eax
ffffffff80205d23:	89 04 25 98 dd 20 81 	mov    %eax,0xffffffff8120dd98
ffffffff80205d2a:	48 8b 4d b8          	mov    -0x48(%rbp),%rcx
ffffffff80205d2e:	48 83 c1 14          	add    $0x14,%rcx
ffffffff80205d32:	48 89 0c 25 a0 dd 20 	mov    %rcx,0xffffffff8120dda0
ffffffff80205d39:	81
ffffffff80205d3a:	eb 24                	jmp    ffffffff80205d60 <ParseAndSaveBootInformation+0x210>
ffffffff80205d3c:	8b 45 e4             	mov    -0x1c(%rbp),%eax
ffffffff80205d3f:	89 c1                	mov    %eax,%ecx
ffffffff80205d41:	48 8b 55 f0          	mov    -0x10(%rbp),%rdx
ffffffff80205d45:	48 89 d6             	mov    %rdx,%rsi
ffffffff80205d48:	48 01 ce             	add    %rcx,%rsi
ffffffff80205d4b:	48 89 75 b0          	mov    %rsi,-0x50(%rbp)
ffffffff80205d4f:	48 8d 4c 0a 08       	lea    0x8(%rdx,%rcx,1),%rcx
ffffffff80205d54:	48 89 0c 25 a8 dd 20 	mov    %rcx,0xffffffff8120dda8
ffffffff80205d5b:	81
ffffffff80205d5c:	eb 02                	jmp    ffffffff80205d60 <ParseAndSaveBootInformation+0x210>
ffffffff80205d5e:	eb 00                	jmp    ffffffff80205d60 <ParseAndSaveBootInformation+0x210>
ffffffff80205d60:	8b 45 e4             	mov    -0x1c(%rbp),%eax
ffffffff80205d63:	83 c0 04             	add    $0x4,%eax
ffffffff80205d66:	89 c0                	mov    %eax,%eax
ffffffff80205d68:	89 c1                	mov    %eax,%ecx
ffffffff80205d6a:	48 8b 55 f0          	mov    -0x10(%rbp),%rdx
ffffffff80205d6e:	8b 04 0a             	mov    (%rdx,%rcx,1),%eax
ffffffff80205d71:	89 45 e8             	mov    %eax,-0x18(%rbp)
ffffffff80205d74:	8b 45 e8             	mov    -0x18(%rbp),%eax
ffffffff80205d77:	83 e0 07             	and    $0x7,%eax
ffffffff80205d7a:	83 f8 00             	cmp    $0x0,%eax
ffffffff80205d7d:	74 13                	je     ffffffff80205d92 <ParseAndSaveBootInformation+0x242>
ffffffff80205d7f:	b8 08 00 00 00       	mov    $0x8,%eax
ffffffff80205d84:	8b 4d e8             	mov    -0x18(%rbp),%ecx
ffffffff80205d87:	83 e1 07             	and    $0x7,%ecx
ffffffff80205d8a:	29 c8                	sub    %ecx,%eax
ffffffff80205d8c:	03 45 e8             	add    -0x18(%rbp),%eax
ffffffff80205d8f:	89 45 e8             	mov    %eax,-0x18(%rbp)
ffffffff80205d92:	8b 45 e8             	mov    -0x18(%rbp),%eax
ffffffff80205d95:	03 45 e4             	add    -0x1c(%rbp),%eax
ffffffff80205d98:	89 45 e4             	mov    %eax,-0x1c(%rbp)
ffffffff80205d9b:	e9 f4 fd ff ff       	jmpq   ffffffff80205b94 <ParseAndSaveBootInformation+0x44>
ffffffff80205da0:	48 83 c4 70          	add    $0x70,%rsp
ffffffff80205da4:	5d                   	pop    %rbp
ffffffff80205da5:	c3                   	retq
ffffffff80205da6:	66 2e 0f 1f 84 00 00 	nopw   %cs:0x0(%rax,%rax,1)
ffffffff80205dad:	00 00 00

ffffffff80205db0 <GetBootInfo>:
ffffffff80205db0:	55                   	push   %rbp
ffffffff80205db1:	48 89 e5             	mov    %rsp,%rbp
ffffffff80205db4:	48 c7 c0 80 dd 20 81 	mov    $0xffffffff8120dd80,%rax
ffffffff80205dbb:	5d                   	pop    %rbp
ffffffff80205dbc:	c3                   	retq
ffffffff80205dbd:	0f 1f 00             	nopl   (%rax)

ffffffff80205dc0 <ACPITables_Initialize>:
ffffffff80205dc0:	55                   	push   %rbp
ffffffff80205dc1:	48 89 e5             	mov    %rsp,%rbp
ffffffff80205dc4:	48 83 ec 40          	sub    $0x40,%rsp
ffffffff80205dc8:	48 c7 04 25 c8 dd 20 	movq   $0x0,0xffffffff8120ddc8
ffffffff80205dcf:	81 00 00 00 00
ffffffff80205dd4:	e8 d7 ff ff ff       	callq  ffffffff80205db0 <GetBootInfo>
ffffffff80205dd9:	48 8b 40 28          	mov    0x28(%rax),%rax
ffffffff80205ddd:	48 89 45 f0          	mov    %rax,-0x10(%rbp)
ffffffff80205de1:	0f b6 08             	movzbl (%rax),%ecx
ffffffff80205de4:	8a 14 25 4b 7d 20 80 	mov    0xffffffff80207d4b,%dl
ffffffff80205deb:	0f be f2             	movsbl %dl,%esi
ffffffff80205dee:	39 f1                	cmp    %esi,%ecx
ffffffff80205df0:	0f 85 d6 00 00 00    	jne    ffffffff80205ecc <ACPITables_Initialize+0x10c>
ffffffff80205df6:	48 8b 7d f0          	mov    -0x10(%rbp),%rdi
ffffffff80205dfa:	48 c7 c6 4b 7d 20 80 	mov    $0xffffffff80207d4b,%rsi
ffffffff80205e01:	b8 08 00 00 00       	mov    $0x8,%eax
ffffffff80205e06:	89 c2                	mov    %eax,%edx
ffffffff80205e08:	e8 d3 ea ff ff       	callq  ffffffff802048e0 <strncmp>
ffffffff80205e0d:	83 f8 00             	cmp    $0x0,%eax
ffffffff80205e10:	0f 85 b4 00 00 00    	jne    ffffffff80205eca <ACPITables_Initialize+0x10a>
ffffffff80205e16:	48 8b 45 f0          	mov    -0x10(%rbp),%rax
ffffffff80205e1a:	48 89 04 25 c8 dd 20 	mov    %rax,0xffffffff8120ddc8
ffffffff80205e21:	81
ffffffff80205e22:	c7 45 ec 00 00 00 00 	movl   $0x0,-0x14(%rbp)
ffffffff80205e29:	48 8b 45 f0          	mov    -0x10(%rbp),%rax
ffffffff80205e2d:	48 89 45 e0          	mov    %rax,-0x20(%rbp)
ffffffff80205e31:	48 8b 45 e0          	mov    -0x20(%rbp),%rax
ffffffff80205e35:	48 8b 4d f0          	mov    -0x10(%rbp),%rcx
ffffffff80205e39:	48 8b 14 25 c8 dd 20 	mov    0xffffffff8120ddc8,%rdx
ffffffff80205e40:	81
ffffffff80205e41:	0f b6 72 0f          	movzbl 0xf(%rdx),%esi
ffffffff80205e45:	83 fe 00             	cmp    $0x0,%esi
ffffffff80205e48:	48 89 45 d8          	mov    %rax,-0x28(%rbp)
ffffffff80205e4c:	48 89 4d d0          	mov    %rcx,-0x30(%rbp)
ffffffff80205e50:	75 0d                	jne    ffffffff80205e5f <ACPITables_Initialize+0x9f>
ffffffff80205e52:	b8 14 00 00 00       	mov    $0x14,%eax
ffffffff80205e57:	89 c1                	mov    %eax,%ecx
ffffffff80205e59:	48 89 4d c8          	mov    %rcx,-0x38(%rbp)
ffffffff80205e5d:	eb 11                	jmp    ffffffff80205e70 <ACPITables_Initialize+0xb0>
ffffffff80205e5f:	48 8b 04 25 c8 dd 20 	mov    0xffffffff8120ddc8,%rax
ffffffff80205e66:	81
ffffffff80205e67:	8b 48 14             	mov    0x14(%rax),%ecx
ffffffff80205e6a:	89 c8                	mov    %ecx,%eax
ffffffff80205e6c:	48 89 45 c8          	mov    %rax,-0x38(%rbp)
ffffffff80205e70:	48 8b 45 c8          	mov    -0x38(%rbp),%rax
ffffffff80205e74:	48 8b 4d d0          	mov    -0x30(%rbp),%rcx
ffffffff80205e78:	48 01 c1             	add    %rax,%rcx
ffffffff80205e7b:	48 8b 45 d8          	mov    -0x28(%rbp),%rax
ffffffff80205e7f:	48 39 c8             	cmp    %rcx,%rax
ffffffff80205e82:	73 1b                	jae    ffffffff80205e9f <ACPITables_Initialize+0xdf>
ffffffff80205e84:	48 8b 45 e0          	mov    -0x20(%rbp),%rax
ffffffff80205e88:	0f b6 08             	movzbl (%rax),%ecx
ffffffff80205e8b:	03 4d ec             	add    -0x14(%rbp),%ecx
ffffffff80205e8e:	89 4d ec             	mov    %ecx,-0x14(%rbp)
ffffffff80205e91:	48 8b 45 e0          	mov    -0x20(%rbp),%rax
ffffffff80205e95:	48 83 c0 01          	add    $0x1,%rax
ffffffff80205e99:	48 89 45 e0          	mov    %rax,-0x20(%rbp)
ffffffff80205e9d:	eb 92                	jmp    ffffffff80205e31 <ACPITables_Initialize+0x71>
ffffffff80205e9f:	8b 45 ec             	mov    -0x14(%rbp),%eax
ffffffff80205ea2:	25 ff 00 00 00       	and    $0xff,%eax
ffffffff80205ea7:	83 f8 00             	cmp    $0x0,%eax
ffffffff80205eaa:	75 10                	jne    ffffffff80205ebc <ACPITables_Initialize+0xfc>
ffffffff80205eac:	48 8b 04 25 c8 dd 20 	mov    0xffffffff8120ddc8,%rax
ffffffff80205eb3:	81
ffffffff80205eb4:	8a 48 0f             	mov    0xf(%rax),%cl
ffffffff80205eb7:	88 4d ff             	mov    %cl,-0x1(%rbp)
ffffffff80205eba:	eb 14                	jmp    ffffffff80205ed0 <ACPITables_Initialize+0x110>
ffffffff80205ebc:	48 c7 04 25 c8 dd 20 	movq   $0x0,0xffffffff8120ddc8
ffffffff80205ec3:	81 00 00 00 00
ffffffff80205ec8:	eb 00                	jmp    ffffffff80205eca <ACPITables_Initialize+0x10a>
ffffffff80205eca:	eb 00                	jmp    ffffffff80205ecc <ACPITables_Initialize+0x10c>
ffffffff80205ecc:	c6 45 ff ff          	movb   $0xff,-0x1(%rbp)
ffffffff80205ed0:	0f b6 45 ff          	movzbl -0x1(%rbp),%eax
ffffffff80205ed4:	48 83 c4 40          	add    $0x40,%rsp
ffffffff80205ed8:	5d                   	pop    %rbp
ffffffff80205ed9:	c3                   	retq
ffffffff80205eda:	66 0f 1f 44 00 00    	nopw   0x0(%rax,%rax,1)

ffffffff80205ee0 <ACPITables_ValidateChecksum>:
ffffffff80205ee0:	55                   	push   %rbp
ffffffff80205ee1:	48 89 e5             	mov    %rsp,%rbp
ffffffff80205ee4:	48 83 ec 10          	sub    $0x10,%rsp
ffffffff80205ee8:	48 89 7d f8          	mov    %rdi,-0x8(%rbp)
ffffffff80205eec:	c6 45 f7 00          	movb   $0x0,-0x9(%rbp)
ffffffff80205ef0:	c7 45 f0 00 00 00 00 	movl   $0x0,-0x10(%rbp)
ffffffff80205ef7:	8b 45 f0             	mov    -0x10(%rbp),%eax
ffffffff80205efa:	48 8b 4d f8          	mov    -0x8(%rbp),%rcx
ffffffff80205efe:	3b 41 04             	cmp    0x4(%rcx),%eax
ffffffff80205f01:	73 25                	jae    ffffffff80205f28 <ACPITables_ValidateChecksum+0x48>
ffffffff80205f03:	8b 45 f0             	mov    -0x10(%rbp),%eax
ffffffff80205f06:	89 c1                	mov    %eax,%ecx
ffffffff80205f08:	48 8b 55 f8          	mov    -0x8(%rbp),%rdx
ffffffff80205f0c:	0f be 04 0a          	movsbl (%rdx,%rcx,1),%eax
ffffffff80205f10:	0f b6 75 f7          	movzbl -0x9(%rbp),%esi
ffffffff80205f14:	01 c6                	add    %eax,%esi
ffffffff80205f16:	40 88 f7             	mov    %sil,%dil
ffffffff80205f19:	40 88 7d f7          	mov    %dil,-0x9(%rbp)
ffffffff80205f1d:	8b 45 f0             	mov    -0x10(%rbp),%eax
ffffffff80205f20:	83 c0 01             	add    $0x1,%eax
ffffffff80205f23:	89 45 f0             	mov    %eax,-0x10(%rbp)
ffffffff80205f26:	eb cf                	jmp    ffffffff80205ef7 <ACPITables_ValidateChecksum+0x17>
ffffffff80205f28:	0f b6 45 f7          	movzbl -0x9(%rbp),%eax
ffffffff80205f2c:	83 f8 00             	cmp    $0x0,%eax
ffffffff80205f2f:	0f 94 c1             	sete   %cl
ffffffff80205f32:	80 e1 01             	and    $0x1,%cl
ffffffff80205f35:	0f b6 c1             	movzbl %cl,%eax
ffffffff80205f38:	88 c1                	mov    %al,%cl
ffffffff80205f3a:	0f b6 c1             	movzbl %cl,%eax
ffffffff80205f3d:	48 83 c4 10          	add    $0x10,%rsp
ffffffff80205f41:	5d                   	pop    %rbp
ffffffff80205f42:	c3                   	retq
ffffffff80205f43:	0f 1f 00             	nopl   (%rax)
ffffffff80205f46:	66 2e 0f 1f 84 00 00 	nopw   %cs:0x0(%rax,%rax,1)
ffffffff80205f4d:	00 00 00

ffffffff80205f50 <ACPITables_FindTable>:
ffffffff80205f50:	55                   	push   %rbp
ffffffff80205f51:	48 89 e5             	mov    %rsp,%rbp
ffffffff80205f54:	48 81 ec 80 00 00 00 	sub    $0x80,%rsp
ffffffff80205f5b:	48 89 7d f0          	mov    %rdi,-0x10(%rbp)
ffffffff80205f5f:	89 75 ec             	mov    %esi,-0x14(%rbp)
ffffffff80205f62:	48 8b 3c 25 c8 dd 20 	mov    0xffffffff8120ddc8,%rdi
ffffffff80205f69:	81
ffffffff80205f6a:	48 83 ff 00          	cmp    $0x0,%rdi
ffffffff80205f6e:	75 0d                	jne    ffffffff80205f7d <ACPITables_FindTable+0x2d>
ffffffff80205f70:	48 c7 45 f8 00 00 00 	movq   $0x0,-0x8(%rbp)
ffffffff80205f77:	00
ffffffff80205f78:	e9 34 02 00 00       	jmpq   ffffffff802061b1 <ACPITables_FindTable+0x261>
ffffffff80205f7d:	48 8b 04 25 c8 dd 20 	mov    0xffffffff8120ddc8,%rax
ffffffff80205f84:	81
ffffffff80205f85:	0f b6 48 0f          	movzbl 0xf(%rax),%ecx
ffffffff80205f89:	83 f9 00             	cmp    $0x0,%ecx
ffffffff80205f8c:	0f 85 0d 01 00 00    	jne    ffffffff8020609f <ACPITables_FindTable+0x14f>
ffffffff80205f92:	48 8b 04 25 c8 dd 20 	mov    0xffffffff8120ddc8,%rax
ffffffff80205f99:	81
ffffffff80205f9a:	8b 48 10             	mov    0x10(%rax),%ecx
ffffffff80205f9d:	89 cf                	mov    %ecx,%edi
ffffffff80205f9f:	e8 0c b6 ff ff       	callq  ffffffff802015b0 <GetVirtualAddress>
ffffffff80205fa4:	48 89 45 e0          	mov    %rax,-0x20(%rbp)
ffffffff80205fa8:	48 8b 45 e0          	mov    -0x20(%rbp),%rax
ffffffff80205fac:	48 89 c7             	mov    %rax,%rdi
ffffffff80205faf:	e8 2c ff ff ff       	callq  ffffffff80205ee0 <ACPITables_ValidateChecksum>
ffffffff80205fb4:	3c 00                	cmp    $0x0,%al
ffffffff80205fb6:	75 0d                	jne    ffffffff80205fc5 <ACPITables_FindTable+0x75>
ffffffff80205fb8:	48 c7 45 f8 00 00 00 	movq   $0x0,-0x8(%rbp)
ffffffff80205fbf:	00
ffffffff80205fc0:	e9 ec 01 00 00       	jmpq   ffffffff802061b1 <ACPITables_FindTable+0x261>
ffffffff80205fc5:	48 8b 45 e0          	mov    -0x20(%rbp),%rax
ffffffff80205fc9:	8b 48 04             	mov    0x4(%rax),%ecx
ffffffff80205fcc:	89 c8                	mov    %ecx,%eax
ffffffff80205fce:	48 83 e8 24          	sub    $0x24,%rax
ffffffff80205fd2:	48 c1 e8 02          	shr    $0x2,%rax
ffffffff80205fd6:	89 c1                	mov    %eax,%ecx
ffffffff80205fd8:	89 4d dc             	mov    %ecx,-0x24(%rbp)
ffffffff80205fdb:	c7 45 d8 00 00 00 00 	movl   $0x0,-0x28(%rbp)
ffffffff80205fe2:	c7 45 d4 00 00 00 00 	movl   $0x0,-0x2c(%rbp)
ffffffff80205fe9:	8b 45 d4             	mov    -0x2c(%rbp),%eax
ffffffff80205fec:	3b 45 dc             	cmp    -0x24(%rbp),%eax
ffffffff80205fef:	0f 8d a5 00 00 00    	jge    ffffffff8020609a <ACPITables_FindTable+0x14a>
ffffffff80205ff5:	48 63 45 d4          	movslq -0x2c(%rbp),%rax
ffffffff80205ff9:	48 8b 4d e0          	mov    -0x20(%rbp),%rcx
ffffffff80205ffd:	8b 54 81 24          	mov    0x24(%rcx,%rax,4),%edx
ffffffff80206001:	89 d7                	mov    %edx,%edi
ffffffff80206003:	e8 a8 b5 ff ff       	callq  ffffffff802015b0 <GetVirtualAddress>
ffffffff80206008:	48 89 45 c8          	mov    %rax,-0x38(%rbp)
ffffffff8020600c:	48 8b 45 c8          	mov    -0x38(%rbp),%rax
ffffffff80206010:	48 c1 e8 20          	shr    $0x20,%rax
ffffffff80206014:	89 c2                	mov    %eax,%edx
ffffffff80206016:	48 8b 45 c8          	mov    -0x38(%rbp),%rax
ffffffff8020601a:	89 c6                	mov    %eax,%esi
ffffffff8020601c:	48 c7 c7 54 7d 20 80 	mov    $0xffffffff80207d54,%rdi
ffffffff80206023:	45 31 c0             	xor    %r8d,%r8d
ffffffff80206026:	45 88 c1             	mov    %r8b,%r9b
ffffffff80206029:	89 75 a4             	mov    %esi,-0x5c(%rbp)
ffffffff8020602c:	89 d6                	mov    %edx,%esi
ffffffff8020602e:	8b 55 a4             	mov    -0x5c(%rbp),%edx
ffffffff80206031:	44 88 c8             	mov    %r9b,%al
ffffffff80206034:	e8 27 b2 ff ff       	callq  ffffffff80201260 <debug_gfx_writeLine>
ffffffff80206039:	ba 04 00 00 00       	mov    $0x4,%edx
ffffffff8020603e:	89 d1                	mov    %edx,%ecx
ffffffff80206040:	48 8b 7d c8          	mov    -0x38(%rbp),%rdi
ffffffff80206044:	48 8b 75 f0          	mov    -0x10(%rbp),%rsi
ffffffff80206048:	ba 04 00 00 00       	mov    $0x4,%edx
ffffffff8020604d:	48 89 4d 98          	mov    %rcx,-0x68(%rbp)
ffffffff80206051:	e8 8a e8 ff ff       	callq  ffffffff802048e0 <strncmp>
ffffffff80206056:	83 f8 00             	cmp    $0x0,%eax
ffffffff80206059:	75 2f                	jne    ffffffff8020608a <ACPITables_FindTable+0x13a>
ffffffff8020605b:	48 8b 7d c8          	mov    -0x38(%rbp),%rdi
ffffffff8020605f:	e8 7c fe ff ff       	callq  ffffffff80205ee0 <ACPITables_ValidateChecksum>
ffffffff80206064:	0f b6 c8             	movzbl %al,%ecx
ffffffff80206067:	83 f9 00             	cmp    $0x0,%ecx
ffffffff8020606a:	74 1e                	je     ffffffff8020608a <ACPITables_FindTable+0x13a>
ffffffff8020606c:	8b 45 d8             	mov    -0x28(%rbp),%eax
ffffffff8020606f:	3b 45 ec             	cmp    -0x14(%rbp),%eax
ffffffff80206072:	75 0d                	jne    ffffffff80206081 <ACPITables_FindTable+0x131>
ffffffff80206074:	48 8b 45 c8          	mov    -0x38(%rbp),%rax
ffffffff80206078:	48 89 45 f8          	mov    %rax,-0x8(%rbp)
ffffffff8020607c:	e9 30 01 00 00       	jmpq   ffffffff802061b1 <ACPITables_FindTable+0x261>
ffffffff80206081:	8b 45 d8             	mov    -0x28(%rbp),%eax
ffffffff80206084:	83 c0 01             	add    $0x1,%eax
ffffffff80206087:	89 45 d8             	mov    %eax,-0x28(%rbp)
ffffffff8020608a:	eb 00                	jmp    ffffffff8020608c <ACPITables_FindTable+0x13c>
ffffffff8020608c:	8b 45 d4             	mov    -0x2c(%rbp),%eax
ffffffff8020608f:	83 c0 01             	add    $0x1,%eax
ffffffff80206092:	89 45 d4             	mov    %eax,-0x2c(%rbp)
ffffffff80206095:	e9 4f ff ff ff       	jmpq   ffffffff80205fe9 <ACPITables_FindTable+0x99>
ffffffff8020609a:	e9 0a 01 00 00       	jmpq   ffffffff802061a9 <ACPITables_FindTable+0x259>
ffffffff8020609f:	48 8b 04 25 c8 dd 20 	mov    0xffffffff8120ddc8,%rax
ffffffff802060a6:	81
ffffffff802060a7:	48 8b 78 18          	mov    0x18(%rax),%rdi
ffffffff802060ab:	e8 00 b5 ff ff       	callq  ffffffff802015b0 <GetVirtualAddress>
ffffffff802060b0:	48 89 45 c0          	mov    %rax,-0x40(%rbp)
ffffffff802060b4:	48 8b 45 c0          	mov    -0x40(%rbp),%rax
ffffffff802060b8:	48 89 c7             	mov    %rax,%rdi
ffffffff802060bb:	e8 20 fe ff ff       	callq  ffffffff80205ee0 <ACPITables_ValidateChecksum>
ffffffff802060c0:	3c 00                	cmp    $0x0,%al
ffffffff802060c2:	75 10                	jne    ffffffff802060d4 <ACPITables_FindTable+0x184>
ffffffff802060c4:	48 c7 c0 ff ff ff ff 	mov    $0xffffffffffffffff,%rax
ffffffff802060cb:	48 89 45 f8          	mov    %rax,-0x8(%rbp)
ffffffff802060cf:	e9 dd 00 00 00       	jmpq   ffffffff802061b1 <ACPITables_FindTable+0x261>
ffffffff802060d4:	48 8b 45 c0          	mov    -0x40(%rbp),%rax
ffffffff802060d8:	8b 48 04             	mov    0x4(%rax),%ecx
ffffffff802060db:	89 c8                	mov    %ecx,%eax
ffffffff802060dd:	48 83 e8 24          	sub    $0x24,%rax
ffffffff802060e1:	48 c1 e8 03          	shr    $0x3,%rax
ffffffff802060e5:	89 c1                	mov    %eax,%ecx
ffffffff802060e7:	89 4d bc             	mov    %ecx,-0x44(%rbp)
ffffffff802060ea:	c7 45 b8 00 00 00 00 	movl   $0x0,-0x48(%rbp)
ffffffff802060f1:	c7 45 b4 00 00 00 00 	movl   $0x0,-0x4c(%rbp)
ffffffff802060f8:	8b 45 b4             	mov    -0x4c(%rbp),%eax
ffffffff802060fb:	3b 45 bc             	cmp    -0x44(%rbp),%eax
ffffffff802060fe:	0f 8d a3 00 00 00    	jge    ffffffff802061a7 <ACPITables_FindTable+0x257>
ffffffff80206104:	48 63 45 b4          	movslq -0x4c(%rbp),%rax
ffffffff80206108:	48 8b 4d c0          	mov    -0x40(%rbp),%rcx
ffffffff8020610c:	48 8b 7c c1 28       	mov    0x28(%rcx,%rax,8),%rdi
ffffffff80206111:	e8 9a b4 ff ff       	callq  ffffffff802015b0 <GetVirtualAddress>
ffffffff80206116:	48 89 45 a8          	mov    %rax,-0x58(%rbp)
ffffffff8020611a:	8b 55 b4             	mov    -0x4c(%rbp),%edx
ffffffff8020611d:	81 c2 ff ff 00 00    	add    $0xffff,%edx
ffffffff80206123:	89 d7                	mov    %edx,%edi
ffffffff80206125:	e8 06 a1 ff ff       	callq  ffffffff80200230 <bootstrap_render>
ffffffff8020612a:	48 c7 c7 59 7d 20 80 	mov    $0xffffffff80207d59,%rdi
ffffffff80206131:	31 d2                	xor    %edx,%edx
ffffffff80206133:	40 88 d6             	mov    %dl,%sil
ffffffff80206136:	40 88 f0             	mov    %sil,%al
ffffffff80206139:	e8 22 b1 ff ff       	callq  ffffffff80201260 <debug_gfx_writeLine>
ffffffff8020613e:	ba 04 00 00 00       	mov    $0x4,%edx
ffffffff80206143:	89 d1                	mov    %edx,%ecx
ffffffff80206145:	48 8b 7d a8          	mov    -0x58(%rbp),%rdi
ffffffff80206149:	48 8b 75 f0          	mov    -0x10(%rbp),%rsi
ffffffff8020614d:	ba 04 00 00 00       	mov    $0x4,%edx
ffffffff80206152:	48 89 4d 90          	mov    %rcx,-0x70(%rbp)
ffffffff80206156:	e8 85 e7 ff ff       	callq  ffffffff802048e0 <strncmp>
ffffffff8020615b:	83 f8 00             	cmp    $0x0,%eax
ffffffff8020615e:	75 2d                	jne    ffffffff8020618d <ACPITables_FindTable+0x23d>
ffffffff80206160:	b8 ff ff ff ff       	mov    $0xffffffff,%eax
ffffffff80206165:	bf ff ff ff ff       	mov    $0xffffffff,%edi
ffffffff8020616a:	89 45 8c             	mov    %eax,-0x74(%rbp)
ffffffff8020616d:	e8 be a0 ff ff       	callq  ffffffff80200230 <bootstrap_render>
ffffffff80206172:	8b 45 b8             	mov    -0x48(%rbp),%eax
ffffffff80206175:	3b 45 ec             	cmp    -0x14(%rbp),%eax
ffffffff80206178:	75 0a                	jne    ffffffff80206184 <ACPITables_FindTable+0x234>
ffffffff8020617a:	48 8b 45 a8          	mov    -0x58(%rbp),%rax
ffffffff8020617e:	48 89 45 f8          	mov    %rax,-0x8(%rbp)
ffffffff80206182:	eb 2d                	jmp    ffffffff802061b1 <ACPITables_FindTable+0x261>
ffffffff80206184:	8b 45 b8             	mov    -0x48(%rbp),%eax
ffffffff80206187:	83 c0 01             	add    $0x1,%eax
ffffffff8020618a:	89 45 b8             	mov    %eax,-0x48(%rbp)
ffffffff8020618d:	31 c0                	xor    %eax,%eax
ffffffff8020618f:	31 ff                	xor    %edi,%edi
ffffffff80206191:	89 45 88             	mov    %eax,-0x78(%rbp)
ffffffff80206194:	e8 97 a0 ff ff       	callq  ffffffff80200230 <bootstrap_render>
ffffffff80206199:	8b 45 b4             	mov    -0x4c(%rbp),%eax
ffffffff8020619c:	83 c0 01             	add    $0x1,%eax
ffffffff8020619f:	89 45 b4             	mov    %eax,-0x4c(%rbp)
ffffffff802061a2:	e9 51 ff ff ff       	jmpq   ffffffff802060f8 <ACPITables_FindTable+0x1a8>
ffffffff802061a7:	eb 00                	jmp    ffffffff802061a9 <ACPITables_FindTable+0x259>
ffffffff802061a9:	48 c7 45 f8 00 00 00 	movq   $0x0,-0x8(%rbp)
ffffffff802061b0:	00
ffffffff802061b1:	48 8b 45 f8          	mov    -0x8(%rbp),%rax
ffffffff802061b5:	48 81 c4 80 00 00 00 	add    $0x80,%rsp
ffffffff802061bc:	5d                   	pop    %rbp
ffffffff802061bd:	c3                   	retq   
