	.text
	.file	"tmp0.bc"
	.globl	bootstrap_render
	.align	16, 0x90
	.type	bootstrap_render,@function
bootstrap_render:                       # @bootstrap_render
	.cfi_startproc
# BB#0:
	pushq	%rbp
.Ltmp0:
	.cfi_def_cfa_offset 16
.Ltmp1:
	.cfi_offset %rbp, -16
	movq	%rsp, %rbp
.Ltmp2:
	.cfi_def_cfa_register %rbp
	movl	bootInfo+80, %eax
	imull	bootInfo+88, %eax
	testl	%eax, %eax
	je	.LBB0_3
# BB#1:                                 # %.lr.ph
	xorl	%eax, %eax
	movq	bootInfo+72, %rcx
	.align	16, 0x90
.LBB0_2:                                # =>This Inner Loop Header: Depth=1
	movl	%eax, %edx
	movl	%edi, (%rdx,%rcx)
	addl	$4, %eax
	movl	bootInfo+80, %edx
	imull	bootInfo+88, %edx
	cmpl	%edx, %eax
	jb	.LBB0_2
.LBB0_3:                                # %._crit_edge
	popq	%rbp
	retq
.Lfunc_end0:
	.size	bootstrap_render, .Lfunc_end0-bootstrap_render
	.cfi_endproc

	.globl	bootstrap_pagefault_handler
	.align	16, 0x90
	.type	bootstrap_pagefault_handler,@function
bootstrap_pagefault_handler:            # @bootstrap_pagefault_handler
	.cfi_startproc
# BB#0:
	pushq	%rbp
.Ltmp3:
	.cfi_def_cfa_offset 16
.Ltmp4:
	.cfi_offset %rbp, -16
	movq	%rsp, %rbp
.Ltmp5:
	.cfi_def_cfa_register %rbp
	pushq	%rbx
.Ltmp6:
	.cfi_offset %rbx, -24
	movq	128(%rdi), %rbx
	movq	%rbx, %rax
	shlq	$4, %rax
	movq	%rax, 128(%rdi)
	movl	bootInfo+80, %ecx
	imull	bootInfo+88, %ecx
	testl	%ecx, %ecx
	je	.LBB1_3
# BB#1:                                 # %.lr.ph.i
	xorl	%ecx, %ecx
	movq	bootInfo+72, %rdx
	.align	16, 0x90
.LBB1_2:                                # =>This Inner Loop Header: Depth=1
	movl	%ecx, %esi
	movl	%eax, (%rsi,%rdx)
	addl	$4, %ecx
	movl	bootInfo+80, %esi
	imull	bootInfo+88, %esi
	cmpl	%esi, %ecx
	jb	.LBB1_2
.LBB1_3:                                # %bootstrap_render.exit
	movq	144(%rdi), %rax
	movabsq	$1152921504606846975, %rcx # imm = 0xFFFFFFFFFFFFFFF
	andq	%rcx, %rbx
	movq	136(%rdi), %rcx
	movq	(%rdi), %r8
	movq	88(%rdi), %rdx
	movq	168(%rdi), %rsi
	movq	%r8, %rdi
	#APP
	cli
	hlt
	#NO_APP
	popq	%rbx
	popq	%rbp
	retq
.Lfunc_end1:
	.size	bootstrap_pagefault_handler, .Lfunc_end1-bootstrap_pagefault_handler
	.cfi_endproc

	.globl	bootstrap_kernel_panic
	.align	16, 0x90
	.type	bootstrap_kernel_panic,@function
bootstrap_kernel_panic:                 # @bootstrap_kernel_panic
	.cfi_startproc
# BB#0:
	pushq	%rbp
.Ltmp7:
	.cfi_def_cfa_offset 16
.Ltmp8:
	.cfi_offset %rbp, -16
	movq	%rsp, %rbp
.Ltmp9:
	.cfi_def_cfa_register %rbp
	movl	bootInfo+88, %eax
	imull	bootInfo+80, %eax
	testl	%eax, %eax
	je	.LBB2_4
# BB#1:
	xorl	$16711935, %edi         # imm = 0xFF00FF
	movq	bootInfo+72, %rax
	xorl	%ecx, %ecx
	.align	16, 0x90
.LBB2_2:                                # %.lr.ph.i
                                        # =>This Inner Loop Header: Depth=1
	movl	%ecx, %edx
	movl	%edi, (%rdx,%rax)
	addl	$4, %ecx
	movl	bootInfo+88, %edx
	imull	bootInfo+80, %edx
	cmpl	%edx, %ecx
	jb	.LBB2_2
# BB#3:                                 # %bootstrap_render.exit.outer.loopexit
                                        #   in Loop: Header=BB2_2 Depth=1
	testl	%edx, %edx
	movl	$0, %ecx
	jne	.LBB2_2
	.align	16, 0x90
.LBB2_4:                                # %bootstrap_render.exit
                                        # =>This Inner Loop Header: Depth=1
	jmp	.LBB2_4
.Lfunc_end2:
	.size	bootstrap_kernel_panic, .Lfunc_end2-bootstrap_kernel_panic
	.cfi_endproc

	.section	.entry_point,"ax",@progbits
	.globl	bootstrap_kernel
	.align	16, 0x90
	.type	bootstrap_kernel,@function
bootstrap_kernel:                       # @bootstrap_kernel
	.cfi_startproc
# BB#0:
	pushq	%rbp
.Ltmp10:
	.cfi_def_cfa_offset 16
.Ltmp11:
	.cfi_offset %rbp, -16
	movq	%rsp, %rbp
.Ltmp12:
	.cfi_def_cfa_register %rbp
	pushq	%r15
	pushq	%r14
	pushq	%r13
	pushq	%r12
	pushq	%rbx
	pushq	%rax
.Ltmp13:
	.cfi_offset %rbx, -56
.Ltmp14:
	.cfi_offset %r12, -48
.Ltmp15:
	.cfi_offset %r13, -40
.Ltmp16:
	.cfi_offset %r14, -32
.Ltmp17:
	.cfi_offset %r15, -24
	movq	%rsi, -48(%rbp)         # 8-byte Spill
	movq	%rdi, %r14
	movl	pos, %eax
	movq	%rax, %rcx
	addq	$32, %rcx
	cmpq	$5242881, %rcx          # imm = 0x500001
	jb	.LBB3_2
# BB#1:
	#APP
	cli
	hlt
	#NO_APP
	movl	pos, %eax
.LBB3_2:                                # %bootstrap_malloc.exit.i
	movl	%eax, %ecx
	leaq	mem_pool(%rcx), %rdx
	addl	$32, %eax
	movl	%eax, pos
	movq	$0, mem_pool+24(%rcx)
	movq	$0, mem_pool+16(%rcx)
	movq	$0, mem_pool+8(%rcx)
	movq	$0, mem_pool(%rcx)
	movq	%rdx, virtMemData
	movabsq	$-8589930496, %rax      # imm = 0xFFFFFFFE00001000
	movq	%rax, mem_pool+8(%rcx)
	movq	tmp_corePML, %rbx
	movabsq	$4294967296, %r13       # imm = 0x100000000
	movabsq	$8589934592, %r12       # imm = 0x200000000
	movabsq	$-17179869184, %r15     # imm = 0xFFFFFFFC00000000
	testq	%rbx, %rbx
	jne	.LBB3_8
# BB#3:
	movl	pos, %eax
	movq	%rax, %rcx
	addq	$8096, %rcx             # imm = 0x1FA0
	cmpq	$5242881, %rcx          # imm = 0x500001
	jb	.LBB3_5
# BB#4:
	#APP
	cli
	hlt
	#NO_APP
	movl	pos, %eax
.LBB3_5:                                # %bootstrap_malloc.exit6.i
	movl	%eax, %ecx
	leaq	mem_pool(%rcx), %rbx
	addl	$8096, %eax             # imm = 0x1FA0
	movl	%eax, pos
	xorl	%esi, %esi
	movl	$8096, %edx             # imm = 0x1FA0
	movq	%rbx, %rdi
	callq	memset
	movq	%rbx, tmp_corePML
	movq	%rbx, %rax
	andq	$4095, %rax             # imm = 0xFFF
	je	.LBB3_7
# BB#6:
	addq	$4096, %rbx             # imm = 0x1000
	subq	%rax, %rbx
	movq	%rbx, tmp_corePML
.LBB3_7:                                # %VirtMemMan_InitializeBootstrap.exit
	movabsq	$-17179869184, %r15     # imm = 0xFFFFFFFC00000000
.LBB3_8:                                # %VirtMemMan_InitializeBootstrap.exit
	movq	virtMemData, %rax
	movq	%rbx, (%rax)
	movb	$0, 16(%rax)
	movq	%r14, %rdi
	callq	ParseAndSaveBootInformation
	movq	bootInfo+72, %rax
	xorl	%ecx, %ecx
	cmpq	%r13, %rax
	leaq	(%rax,%r15), %rax
	cmovbq	%r12, %rcx
	addq	%rax, %rcx
	movq	%rcx, bootInfo+72
	cmpq	$920085129, -48(%rbp)   # 8-byte Folded Reload
                                        # imm = 0x36D76289
	jne	.LBB3_38
# BB#9:
	callq	GDT_Bootstrap
	callq	IDT_Initialize
	movq	$bootstrap_pagefault_handler, idt_handler_calls
	movq	$bootstrap_pagefault_handler, idt_handler_calls+8
	movq	$bootstrap_pagefault_handler, idt_handler_calls+16
	movq	$bootstrap_pagefault_handler, idt_handler_calls+24
	movq	$bootstrap_pagefault_handler, idt_handler_calls+32
	movq	$bootstrap_pagefault_handler, idt_handler_calls+40
	movq	$bootstrap_pagefault_handler, idt_handler_calls+48
	movq	$bootstrap_pagefault_handler, idt_handler_calls+56
	movq	$bootstrap_pagefault_handler, idt_handler_calls+64
	movq	$bootstrap_pagefault_handler, idt_handler_calls+72
	movq	$bootstrap_pagefault_handler, idt_handler_calls+80
	movq	$bootstrap_pagefault_handler, idt_handler_calls+88
	movq	$bootstrap_pagefault_handler, idt_handler_calls+96
	movq	$bootstrap_pagefault_handler, idt_handler_calls+104
	movq	$bootstrap_pagefault_handler, idt_handler_calls+112
	movq	$bootstrap_pagefault_handler, idt_handler_calls+120
	movq	$bootstrap_pagefault_handler, idt_handler_calls+128
	movq	$bootstrap_pagefault_handler, idt_handler_calls+136
	movq	$bootstrap_pagefault_handler, idt_handler_calls+144
	movq	$bootstrap_pagefault_handler, idt_handler_calls+152
	movq	$bootstrap_pagefault_handler, idt_handler_calls+160
	movq	$bootstrap_pagefault_handler, idt_handler_calls+168
	movq	$bootstrap_pagefault_handler, idt_handler_calls+176
	movq	$bootstrap_pagefault_handler, idt_handler_calls+184
	movq	$bootstrap_pagefault_handler, idt_handler_calls+192
	movq	$bootstrap_pagefault_handler, idt_handler_calls+200
	movq	$bootstrap_pagefault_handler, idt_handler_calls+208
	movq	$bootstrap_pagefault_handler, idt_handler_calls+216
	movq	$bootstrap_pagefault_handler, idt_handler_calls+224
	movq	$bootstrap_pagefault_handler, idt_handler_calls+232
	movq	$bootstrap_pagefault_handler, idt_handler_calls+240
	movq	$bootstrap_pagefault_handler, idt_handler_calls+248
	callq	FPU_Initialize
	callq	MemMan_Initialize
	callq	VirtMemMan_Initialize
	movl	$-2147483642, %eax      # imm = 0xFFFFFFFF80000006
	xorl	%ecx, %ecx
	#APP
	cpuid

	#NO_APP
	movl	%ebx, ebx
	movl	%edx, edx
	movl	pos, %eax
	movq	%rax, %rcx
	addq	$64, %rcx
	cmpq	$5242881, %rcx          # imm = 0x500001
	jb	.LBB3_11
# BB#10:
	#APP
	cli
	hlt
	#NO_APP
	movl	pos, %eax
.LBB3_11:                               # %CreateBootstrapSpinlock.exit
	movl	%eax, %esi
	leaq	mem_pool(%rsi), %rdi
	addl	$64, %eax
	movl	%eax, pos
	movq	$0, mem_pool+56(%rsi)
	movq	$0, mem_pool+48(%rsi)
	movq	$0, mem_pool+40(%rsi)
	movq	$0, mem_pool+32(%rsi)
	movq	$0, mem_pool+24(%rsi)
	movq	$0, mem_pool+16(%rsi)
	movq	$0, mem_pool+8(%rsi)
	movq	$0, mem_pool(%rsi)
	movl	$-2147483642, %eax      # imm = 0xFFFFFFFF80000006
	xorl	%ecx, %ecx
	#APP
	cpuid

	#NO_APP
	movl	%ebx, ebx
	movl	%edx, edx
	movq	$0, mem_pool+56(%rsi)
	movq	$0, mem_pool+48(%rsi)
	movq	$0, mem_pool+40(%rsi)
	movq	$0, mem_pool+32(%rsi)
	movq	$0, mem_pool+24(%rsi)
	movq	$0, mem_pool+16(%rsi)
	movq	$0, mem_pool+8(%rsi)
	movq	$0, mem_pool(%rsi)
	movq	%rdi, vmem_lock
	movq	$VirtMemMan_HandlePageFault, intHandlers+112
	movq	$ShadowInterruptHandler, idt_handler_calls+112
	movq	vmem_lock, %rax
	testq	%rax, %rax
	je	.LBB3_13
# BB#12:
	xorl	%ecx, %ecx
	#APP
	mfence
	pushfq
	cli
	popq	%rcx
	shlq	$16, %rcx
	movw	$1, %cx
	lock
	xaddw	%cx, 2(%rax)
	cmpw	%cx, (%rax)
	je	.Ltmp18
.Ltmp19:
	btq	$25, %rcx
	jae	.Ltmp20
.Ltmp20:
	pause
	cmpw	%cx, (%rax)
	jne	.Ltmp19
.Ltmp18:
	btq	$25, %rcx
	jae	.Ltmp21
	orw	$1, 4(%rax)
.Ltmp21:
	cli

	#NO_APP
.LBB3_13:                               # %LockSpinlock.exit.i
	movq	coreLocalSpace, %rcx
	xorl	%eax, %eax
	cmpq	$8, %rcx
	jb	.LBB3_15
# BB#14:
	movl	$8192, %eax             # imm = 0x2000
	subq	%rcx, %rax
	addq	virtMemData, %rax
	addq	$-8, %rcx
	movq	%rcx, coreLocalSpace
.LBB3_15:                               # %VirtMemMan_AllocCoreLocalData.exit.i
	movq	vmem_lock, %rcx
	testq	%rcx, %rcx
	je	.LBB3_16
# BB#17:                                # %MemoryHAL_Initialize.exit
	#APP
	mfence
	lock
	incw	(%rcx)
	btw	$0, 4(%rcx)
	jae	.Ltmp22
	sti
	movw	$0, 4(%rcx)
.Ltmp22:

	#NO_APP
	movq	vmem_lock, %rcx
	movq	%rax, curPageTable
	testq	%rcx, %rcx
	je	.LBB3_19
# BB#18:
	xorl	%eax, %eax
	#APP
	mfence
	pushfq
	cli
	popq	%rax
	shlq	$16, %rax
	movw	$1, %ax
	lock
	xaddw	%ax, 2(%rcx)
	cmpw	%ax, (%rcx)
	je	.Ltmp23
.Ltmp24:
	btq	$25, %rax
	jae	.Ltmp25
.Ltmp25:
	pause
	cmpw	%ax, (%rcx)
	jne	.Ltmp24
.Ltmp23:
	btq	$25, %rax
	jae	.Ltmp26
	orw	$1, 4(%rcx)
.Ltmp26:
	cli

	#NO_APP
	jmp	.LBB3_19
.LBB3_16:                               # %MemoryHAL_Initialize.exit.thread
	movq	%rax, curPageTable
.LBB3_19:                               # %LockSpinlock.exit.i.i
	movq	coreLocalSpace, %rcx
	xorl	%eax, %eax
	cmpq	$178, %rcx
	jb	.LBB3_21
# BB#20:
	movl	$8192, %eax             # imm = 0x2000
	subq	%rcx, %rax
	addq	virtMemData, %rax
	addq	$-178, %rcx
	movq	%rcx, coreLocalSpace
.LBB3_21:                               # %VirtMemMan_AllocCoreLocalData.exit.i.i
	movq	vmem_lock, %rcx
	testq	%rcx, %rcx
	je	.LBB3_23
# BB#22:
	#APP
	mfence
	lock
	incw	(%rcx)
	btw	$0, 4(%rcx)
	jae	.Ltmp27
	sti
	movw	$0, 4(%rcx)
.Ltmp27:

	#NO_APP
.LBB3_23:                               # %GDT_InitializeMP.exit
	movq	%rax, coreLocalData
	callq	GDT_Initialize
	movl	pos, %eax
	movq	%rax, %rcx
	addq	$16384, %rcx            # imm = 0x4000
	cmpq	$5242881, %rcx          # imm = 0x500001
	jb	.LBB3_25
# BB#24:
	#APP
	cli
	hlt
	#NO_APP
	movl	pos, %eax
.LBB3_25:                               # %bootstrap_malloc.exit18
	movl	%eax, %ebx
	leaq	mem_pool(%rbx), %rdi
	addl	$16384, %eax            # imm = 0x4000
	movl	%eax, pos
	xorl	%esi, %esi
	movl	$16384, %edx            # imm = 0x4000
	callq	memset
	leaq	mem_pool+16256(%rbx), %rax
	movq	coreLocalData, %rcx
	movq	%rax, 78(%rcx)
	movl	pos, %eax
	movq	%rax, %rcx
	addq	$4096, %rcx             # imm = 0x1000
	cmpq	$5242881, %rcx          # imm = 0x500001
	jb	.LBB3_27
# BB#26:
	#APP
	cli
	hlt
	#NO_APP
	movl	pos, %eax
.LBB3_27:                               # %bootstrap_malloc.exit12
	movl	%eax, %ecx
	leaq	mem_pool(%rcx), %rbx
	addl	$4096, %eax             # imm = 0x1000
	movl	%eax, pos
	xorl	%esi, %esi
	movl	$4096, %edx             # imm = 0x1000
	movq	%rbx, %rdi
	callq	memset
	movq	coreLocalData, %rax
	movq	%rbx, 110(%rax)
	movb	$-114, idt_entries+133
	movb	$1, idt_entries+132
	movw	$8, idt_entries+130
	movl	pos, %eax
	movq	%rax, %rcx
	addq	$4096, %rcx             # imm = 0x1000
	cmpq	$5242881, %rcx          # imm = 0x500001
	jb	.LBB3_29
# BB#28:
	#APP
	cli
	hlt
	#NO_APP
	movl	pos, %eax
.LBB3_29:                               # %bootstrap_malloc.exit6
	movl	%eax, %ecx
	leaq	mem_pool(%rcx), %rbx
	addl	$4096, %eax             # imm = 0x1000
	movl	%eax, pos
	xorl	%esi, %esi
	movl	$4096, %edx             # imm = 0x1000
	movq	%rbx, %rdi
	callq	memset
	movq	coreLocalData, %rax
	movq	%rbx, 118(%rax)
	movb	$-114, idt_entries+293
	movb	$2, idt_entries+292
	movw	$8, idt_entries+290
	callq	ACPITables_Initialize
	incl	smp_coreCount
	movq	$.L.str, %rdi
	xorl	%esi, %esi
	callq	ACPITables_FindTable
	testq	%rax, %rax
	je	.LBB3_31
# BB#30:
	movzbl	108(%rax), %eax
	movl	%eax, century_register
.LBB3_31:                               # %RTC_Initialize.exit
	movq	virtMemData, %rax
	movq	8(%rax), %rdi
	movq	bootInfo+72, %rsi
	callq	VirtMemMan_GetPhysicalAddress
	xorl	%ebx, %ebx
	cmpq	%r13, %rax
	leaq	(%rax,%r15), %rax
	cmovaeq	%rbx, %rax
	movq	%rax, bootInfo+72
	movq	bootInfo+48, %rax
	cmpq	%r13, %rax
	leaq	(%r15,%rax), %rax
	cmovaeq	%rbx, %r12
	addq	%rax, %r12
	movq	%r12, bootInfo+48
	movl	$1, smp_sync_base
	callq	APIC_Initialize
	.align	16, 0x90
.LBB3_32:                               # =>This Inner Loop Header: Depth=1
	movb	$-114, idt_entries+5(%rbx)
	movb	$2, idt_entries+4(%rbx)
	movw	$8, idt_entries+2(%rbx)
	movb	$-114, idt_entries+21(%rbx)
	movb	$2, idt_entries+20(%rbx)
	movw	$8, idt_entries+18(%rbx)
	addq	$32, %rbx
	cmpq	$512, %rbx              # imm = 0x200
	jne	.LBB3_32
# BB#33:
	movl	pos, %eax
	movq	%rax, %rcx
	addq	$32, %rcx
	cmpq	$5242881, %rcx          # imm = 0x500001
	jb	.LBB3_35
# BB#34:
	#APP
	cli
	hlt
	#NO_APP
	movl	pos, %eax
.LBB3_35:                               # %bootstrap_malloc.exit
	movl	%eax, %ecx
	leaq	mem_pool(%rcx), %rdi
	addl	$32, %eax
	movl	%eax, pos
	movq	$0, mem_pool+24(%rcx)
	movq	$0, mem_pool+16(%rcx)
	movq	$0, mem_pool+8(%rcx)
	movq	$0, mem_pool(%rcx)
	movq	virtMemData, %rax
	movq	8(%rax), %rax
	movq	%rax, mem_pool(%rcx)
	movl	$0, mem_pool+16(%rcx)
	movl	$-2147483642, %eax      # imm = 0xFFFFFFFF80000006
	xorl	%ecx, %ecx
	#APP
	cpuid

	#NO_APP
	movl	%ebx, ebx
	movl	%edx, edx
	movl	pos, %eax
	movq	%rax, %rcx
	addq	$64, %rcx
	cmpq	$5242881, %rcx          # imm = 0x500001
	jb	.LBB3_37
# BB#36:
	#APP
	cli
	hlt
	#NO_APP
	movl	pos, %eax
.LBB3_37:                               # %CreateBootstrapSpinlock.exit23
	movl	%eax, %esi
	leaq	mem_pool(%rsi), %r8
	addl	$64, %eax
	movl	%eax, pos
	movq	$0, mem_pool+56(%rsi)
	movq	$0, mem_pool+48(%rsi)
	movq	$0, mem_pool+40(%rsi)
	movq	$0, mem_pool+32(%rsi)
	movq	$0, mem_pool+24(%rsi)
	movq	$0, mem_pool+16(%rsi)
	movq	$0, mem_pool+8(%rsi)
	movq	$0, mem_pool(%rsi)
	movl	$-2147483642, %eax      # imm = 0xFFFFFFFF80000006
	xorl	%ecx, %ecx
	#APP
	cpuid

	#NO_APP
	movl	%ebx, ebx
	movl	%edx, edx
	movq	$0, mem_pool+56(%rsi)
	movq	$0, mem_pool+48(%rsi)
	movq	$0, mem_pool+40(%rsi)
	movq	$0, mem_pool+32(%rsi)
	movq	$0, mem_pool+24(%rsi)
	movq	$0, mem_pool+16(%rsi)
	movq	$0, mem_pool+8(%rsi)
	movq	$0, mem_pool(%rsi)
	movq	%r8, 24(%rdi)
	callq	SetActiveVirtualMemoryInstance
	callq	kernel_main_init
.LBB3_38:
	movl	$255, %edi
	callq	bootstrap_kernel_panic
.Lfunc_end3:
	.size	bootstrap_kernel, .Lfunc_end3-bootstrap_kernel
	.cfi_endproc

	.text
	.globl	setup_preemption
	.align	16, 0x90
	.type	setup_preemption,@function
setup_preemption:                       # @setup_preemption
	.cfi_startproc
# BB#0:
	pushq	%rbp
.Ltmp28:
	.cfi_def_cfa_offset 16
.Ltmp29:
	.cfi_offset %rbp, -16
	movq	%rsp, %rbp
.Ltmp30:
	.cfi_def_cfa_register %rbp
	movq	apic_data, %rax
	movq	8(%rax), %rax
	movq	$TaskSwitch, intHandlers+264
	movq	$ShadowInterruptHandler, idt_handler_calls+264
	movl	$33, preempt_vector
	movq	apic_data, %rax
	movq	(%rax), %rcx
	movl	800(%rcx), %ecx
	orl	$33, %ecx
	movq	(%rax), %rax
	movl	%ecx, 800(%rax)
	movq	apic_data, %rcx
	movq	8(%rcx), %rax
	shrq	$3, %rax
	movabsq	$2361183241434822607, %rdx # imm = 0x20C49BA5E353F7CF
	mulq	%rdx
	shrq	$4, %rdx
	movq	(%rcx), %rax
	movl	%edx, 896(%rax)
	movq	apic_data, %rax
	movq	(%rax), %rcx
	movl	800(%rcx), %ecx
	orl	$131072, %ecx           # imm = 0x20000
	movq	(%rax), %rax
	movl	%ecx, 800(%rax)
	#APP
	sti
	#NO_APP
	movq	apic_data, %rax
	movq	(%rax), %rcx
	movl	800(%rcx), %ecx
	andl	$-65537, %ecx           # imm = 0xFFFFFFFFFFFEFFFF
	movq	(%rax), %rax
	movl	%ecx, 800(%rax)
	popq	%rbp
	retq
.Lfunc_end4:
	.size	setup_preemption, .Lfunc_end4-setup_preemption
	.cfi_endproc

	.globl	target_device_setup
	.align	16, 0x90
	.type	target_device_setup,@function
target_device_setup:                    # @target_device_setup
	.cfi_startproc
# BB#0:
	pushq	%rbp
.Ltmp31:
	.cfi_def_cfa_offset 16
.Ltmp32:
	.cfi_offset %rbp, -16
	movq	%rsp, %rbp
.Ltmp33:
	.cfi_def_cfa_register %rbp
	popq	%rbp
	retq
.Lfunc_end5:
	.size	target_device_setup, .Lfunc_end5-target_device_setup
	.cfi_endproc

	.globl	get_perf_counter
	.align	16, 0x90
	.type	get_perf_counter,@function
get_perf_counter:                       # @get_perf_counter
	.cfi_startproc
# BB#0:
	pushq	%rbp
.Ltmp34:
	.cfi_def_cfa_offset 16
.Ltmp35:
	.cfi_offset %rbp, -16
	movq	%rsp, %rbp
.Ltmp36:
	.cfi_def_cfa_register %rbp
	xorl	%eax, %eax
	popq	%rbp
	retq
.Lfunc_end6:
	.size	get_perf_counter, .Lfunc_end6-get_perf_counter
	.cfi_endproc

	.globl	smp_unlock_cores
	.align	16, 0x90
	.type	smp_unlock_cores,@function
smp_unlock_cores:                       # @smp_unlock_cores
	.cfi_startproc
# BB#0:
	pushq	%rbp
.Ltmp37:
	.cfi_def_cfa_offset 16
.Ltmp38:
	.cfi_offset %rbp, -16
	movq	%rsp, %rbp
.Ltmp39:
	.cfi_def_cfa_register %rbp
	movl	$0, smp_sync_base
	popq	%rbp
	retq
.Lfunc_end7:
	.size	smp_unlock_cores, .Lfunc_end7-smp_unlock_cores
	.cfi_endproc

	.section	.tramp_handler,"ax",@progbits
	.globl	smp_bootstrap
	.align	16, 0x90
	.type	smp_bootstrap,@function
smp_bootstrap:                          # @smp_bootstrap
	.cfi_startproc
# BB#0:
	pushq	%rbp
.Ltmp40:
	.cfi_def_cfa_offset 16
.Ltmp41:
	.cfi_offset %rbp, -16
	movq	%rsp, %rbp
.Ltmp42:
	.cfi_def_cfa_register %rbp
	pushq	%rbx
	pushq	%rax
.Ltmp43:
	.cfi_offset %rbx, -24
	movq	$smp_lock139, %rax
	#APP
.Ltmp44:
	pause
	testl	$1, (%rax)
	jne	.Ltmp44
	lock
	btsl	$0, (%rax)
	jb	.Ltmp44
	#NO_APP
	movl	pos, %eax
	movq	%rax, %rcx
	addq	$16384, %rcx            # imm = 0x4000
	cmpq	$5242881, %rcx          # imm = 0x500001
	jb	.LBB8_2
# BB#1:
	#APP
	cli
	hlt
	#NO_APP
	movl	pos, %eax
.LBB8_2:                                # %bootstrap_malloc.exit
	movl	%eax, %ebx
	leaq	mem_pool(%rbx), %rdi
	addl	$16384, %eax            # imm = 0x4000
	movl	%eax, pos
	xorl	%esi, %esi
	movl	$16384, %edx            # imm = 0x4000
	callq	memset
	leaq	mem_pool+16384(%rbx), %rax
	#APP
	movq	%rax, %rsp
	#NO_APP
	callq	IDT_Initialize
	callq	FPU_Initialize
	movl	pos, %eax
	movq	%rax, %rcx
	addq	$32, %rcx
	cmpq	$5242881, %rcx          # imm = 0x500001
	jb	.LBB8_4
# BB#3:
	#APP
	cli
	hlt
	#NO_APP
	movl	pos, %eax
.LBB8_4:                                # %bootstrap_malloc.exit.i
	movl	%eax, %ecx
	leaq	mem_pool(%rcx), %rdx
	addl	$32, %eax
	movl	%eax, pos
	movq	$0, mem_pool+24(%rcx)
	movq	$0, mem_pool+16(%rcx)
	movq	$0, mem_pool+8(%rcx)
	movq	$0, mem_pool(%rcx)
	movq	%rdx, virtMemData
	movabsq	$-8589930496, %rax      # imm = 0xFFFFFFFE00001000
	movq	%rax, mem_pool+8(%rcx)
	movq	tmp_corePML, %rbx
	testq	%rbx, %rbx
	jne	.LBB8_9
# BB#5:
	movl	pos, %eax
	movq	%rax, %rcx
	addq	$8096, %rcx             # imm = 0x1FA0
	cmpq	$5242881, %rcx          # imm = 0x500001
	jb	.LBB8_7
# BB#6:
	#APP
	cli
	hlt
	#NO_APP
	movl	pos, %eax
.LBB8_7:                                # %bootstrap_malloc.exit6.i
	movl	%eax, %ecx
	leaq	mem_pool(%rcx), %rbx
	addl	$8096, %eax             # imm = 0x1FA0
	movl	%eax, pos
	xorl	%esi, %esi
	movl	$8096, %edx             # imm = 0x1FA0
	movq	%rbx, %rdi
	callq	memset
	movq	%rbx, tmp_corePML
	movq	%rbx, %rax
	andq	$4095, %rax             # imm = 0xFFF
	je	.LBB8_9
# BB#8:
	addq	$4096, %rbx             # imm = 0x1000
	subq	%rax, %rbx
	movq	%rbx, tmp_corePML
.LBB8_9:                                # %VirtMemMan_InitializeBootstrap.exit
	movq	virtMemData, %rax
	movq	%rbx, (%rax)
	movb	$0, 16(%rax)
	callq	VirtMemMan_Initialize
	callq	GDT_Initialize
	movl	pos, %eax
	movq	%rax, %rcx
	addq	$16384, %rcx            # imm = 0x4000
	cmpq	$5242881, %rcx          # imm = 0x500001
	jb	.LBB8_11
# BB#10:
	#APP
	cli
	hlt
	#NO_APP
	movl	pos, %eax
.LBB8_11:                               # %bootstrap_malloc.exit6
	movl	%eax, %ebx
	leaq	mem_pool(%rbx), %rdi
	addl	$16384, %eax            # imm = 0x4000
	movl	%eax, pos
	xorl	%esi, %esi
	movl	$16384, %edx            # imm = 0x4000
	callq	memset
	leaq	mem_pool+16256(%rbx), %rax
	movq	coreLocalData, %rcx
	movq	%rax, 78(%rcx)
	movl	pos, %eax
	movq	%rax, %rcx
	addq	$4096, %rcx             # imm = 0x1000
	cmpq	$5242881, %rcx          # imm = 0x500001
	jb	.LBB8_13
# BB#12:
	#APP
	cli
	hlt
	#NO_APP
	movl	pos, %eax
.LBB8_13:                               # %bootstrap_malloc.exit12
	movl	%eax, %ecx
	leaq	mem_pool(%rcx), %rbx
	addl	$4096, %eax             # imm = 0x1000
	movl	%eax, pos
	xorl	%esi, %esi
	movl	$4096, %edx             # imm = 0x1000
	movq	%rbx, %rdi
	callq	memset
	movq	coreLocalData, %rax
	movq	%rbx, 110(%rax)
	movb	$-114, idt_entries+133
	movb	$1, idt_entries+132
	movw	$8, idt_entries+130
	movl	pos, %eax
	movq	%rax, %rcx
	addq	$4096, %rcx             # imm = 0x1000
	cmpq	$5242881, %rcx          # imm = 0x500001
	jb	.LBB8_15
# BB#14:
	#APP
	cli
	hlt
	#NO_APP
	movl	pos, %eax
.LBB8_15:                               # %bootstrap_malloc.exit18
	movl	%eax, %ecx
	leaq	mem_pool(%rcx), %rbx
	addl	$4096, %eax             # imm = 0x1000
	movl	%eax, pos
	xorl	%esi, %esi
	movl	$4096, %edx             # imm = 0x1000
	movq	%rbx, %rdi
	callq	memset
	movq	coreLocalData, %rax
	movq	%rbx, 118(%rax)
	movb	$-114, idt_entries+293
	movb	$2, idt_entries+292
	movw	$8, idt_entries+290
	callq	APIC_LocalInitialize
	#APP
	sti
	#NO_APP
	callq	APIC_CallibrateTimer
	#APP
	cli
	#NO_APP
	incl	smp_coreCount
	movl	smp_coreCount, %edi
	movq	$smp_lock139, %rax
	#APP
	movl	$0, (%rax)
	#NO_APP
	.align	16, 0x90
.LBB8_16:                               # =>This Inner Loop Header: Depth=1
	cmpl	$0, smp_sync_base
	jne	.LBB8_16
# BB#17:
	callq	smp_core_main
.Lfunc_end8:
	.size	smp_bootstrap, .Lfunc_end8-smp_bootstrap
	.cfi_endproc

	.text
	.globl	GDT_Bootstrap
	.align	16, 0x90
	.type	GDT_Bootstrap,@function
GDT_Bootstrap:                          # @GDT_Bootstrap
	.cfi_startproc
# BB#0:
	pushq	%rbp
.Ltmp45:
	.cfi_def_cfa_offset 16
.Ltmp46:
	.cfi_offset %rbp, -16
	movq	%rsp, %rbp
.Ltmp47:
	.cfi_def_cfa_register %rbp
	pushq	%r14
	pushq	%rbx
.Ltmp48:
	.cfi_offset %rbx, -32
.Ltmp49:
	.cfi_offset %r14, -24
	#APP
	cli
	#NO_APP
	movl	pos, %eax
	movq	%rax, %rcx
	addq	$180, %rcx
	cmpq	$5242881, %rcx          # imm = 0x500001
	jb	.LBB9_2
# BB#1:
	#APP
	cli
	hlt
	#NO_APP
	movl	pos, %eax
.LBB9_2:                                # %.lr.ph.split.split.i.i.preheader
	movl	%eax, %ebx
	leaq	mem_pool(%rbx), %r14
	addl	$180, %eax
	movl	%eax, pos
	movl	$0, mem_pool(%rbx)
	leaq	mem_pool+4(%rbx), %rdi
	xorl	%esi, %esi
	movl	$176, %edx
	callq	memset
	movq	%r14, coreLocalData
	movq	$0, mem_pool+170(%rbx)
	movq	$0, mem_pool+162(%rbx)
	movq	$0, mem_pool+154(%rbx)
	movq	$0, mem_pool+146(%rbx)
	movq	$0, mem_pool+138(%rbx)
	movq	$0, mem_pool+130(%rbx)
	movq	$0, mem_pool+122(%rbx)
	movq	$0, mem_pool+114(%rbx)
	movq	$0, mem_pool+106(%rbx)
	movq	$0, mem_pool+98(%rbx)
	movq	$0, mem_pool+90(%rbx)
	movq	$0, mem_pool+82(%rbx)
	movq	$0, mem_pool+74(%rbx)
	movw	$104, mem_pool+176(%rbx)
	movq	coreLocalData, %rax
	movw	$63, 64(%rax)
	movq	coreLocalData, %rax
	movq	%rax, 66(%rax)
	movq	coreLocalData, %rax
	movw	$0, 2(%rax)
	movq	coreLocalData, %rax
	movb	$0, 4(%rax)
	movq	coreLocalData, %rax
	movb	$0, 7(%rax)
	movq	coreLocalData, %rax
	movw	$0, (%rax)
	movq	coreLocalData, %rax
	movb	$0, 6(%rax)
	movq	coreLocalData, %rax
	movb	6(%rax), %cl
	movb	%cl, 6(%rax)
	movq	coreLocalData, %rax
	movb	$0, 5(%rax)
	movq	coreLocalData, %rax
	movw	$0, 10(%rax)
	movq	coreLocalData, %rax
	movb	$0, 12(%rax)
	movq	coreLocalData, %rax
	movb	$0, 15(%rax)
	movq	coreLocalData, %rax
	movw	$-1, 8(%rax)
	movq	coreLocalData, %rax
	movb	$15, 14(%rax)
	movq	coreLocalData, %rax
	orb	$-96, 14(%rax)
	movq	coreLocalData, %rax
	movb	$-101, 13(%rax)
	movq	coreLocalData, %rax
	movw	$0, 18(%rax)
	movq	coreLocalData, %rax
	movb	$0, 20(%rax)
	movq	coreLocalData, %rax
	movb	$0, 23(%rax)
	movq	coreLocalData, %rax
	movw	$-1, 16(%rax)
	movq	coreLocalData, %rax
	movb	$15, 22(%rax)
	movq	coreLocalData, %rax
	movb	22(%rax), %cl
	movb	%cl, 22(%rax)
	movq	coreLocalData, %rax
	movb	$-109, 21(%rax)
	movq	coreLocalData, %rax
	movw	$0, 26(%rax)
	movq	coreLocalData, %rax
	movb	$0, 28(%rax)
	movq	coreLocalData, %rax
	movb	$0, 31(%rax)
	movq	coreLocalData, %rax
	movw	$-1, 24(%rax)
	movq	coreLocalData, %rax
	movb	$15, 30(%rax)
	movq	coreLocalData, %rax
	orb	$-48, 30(%rax)
	movq	coreLocalData, %rax
	movb	$-5, 29(%rax)
	movq	coreLocalData, %rax
	movw	$0, 34(%rax)
	movq	coreLocalData, %rax
	movb	$0, 36(%rax)
	movq	coreLocalData, %rax
	movb	$0, 39(%rax)
	movq	coreLocalData, %rax
	movw	$-1, 32(%rax)
	movq	coreLocalData, %rax
	movb	$15, 38(%rax)
	movq	coreLocalData, %rax
	movb	38(%rax), %cl
	movb	%cl, 38(%rax)
	movq	coreLocalData, %rax
	movb	$-13, 37(%rax)
	movq	coreLocalData, %rax
	movw	$0, 42(%rax)
	movq	coreLocalData, %rax
	movb	$0, 44(%rax)
	movq	coreLocalData, %rax
	movb	$0, 47(%rax)
	movq	coreLocalData, %rax
	movw	$-1, 40(%rax)
	movq	coreLocalData, %rax
	movb	$15, 46(%rax)
	movq	coreLocalData, %rax
	orb	$-96, 46(%rax)
	movq	coreLocalData, %rax
	movb	$-5, 45(%rax)
	movq	coreLocalData, %rcx
	leaq	74(%rcx), %rax
	movw	%ax, 50(%rcx)
	movl	%eax, %ecx
	shrl	$16, %ecx
	movq	coreLocalData, %rdx
	movb	%cl, 52(%rdx)
	movl	%eax, %ecx
	shrl	$24, %ecx
	movq	coreLocalData, %rdx
	movb	%cl, 55(%rdx)
	movq	coreLocalData, %rcx
	movw	$104, 48(%rcx)
	movq	coreLocalData, %rcx
	movb	$0, 54(%rcx)
	movq	coreLocalData, %rcx
	movb	54(%rcx), %dl
	movb	%dl, 54(%rcx)
	movq	coreLocalData, %rcx
	movb	$-23, 53(%rcx)
	movq	coreLocalData, %rcx
	movw	$0, 58(%rcx)
	movq	coreLocalData, %rcx
	movb	$0, 60(%rcx)
	movq	coreLocalData, %rcx
	movb	$0, 63(%rcx)
	movq	coreLocalData, %rcx
	movw	$0, 56(%rcx)
	movq	coreLocalData, %rcx
	movb	$0, 62(%rcx)
	movq	coreLocalData, %rcx
	movb	62(%rcx), %dl
	movb	%dl, 62(%rcx)
	movq	coreLocalData, %rcx
	movb	$0, 61(%rcx)
	movq	%rax, %rcx
	shrq	$32, %rcx
	movq	coreLocalData, %rdx
	movw	%cx, 56(%rdx)
	shrq	$48, %rax
	movq	coreLocalData, %rcx
	movw	%ax, 58(%rcx)
	movq	coreLocalData, %rax
	addq	$64, %rax
	#APP
	lgdtq	(%rax)
	#NO_APP
	#APP
	pushq	%rax
	movq	$flush_gdt_btstrp, %rax
	pushq	%rax
	retq
flush_gdt_btstrp:
	movw	$16, %ax
	movw	%ax, %ds
	movw	%ax, %es
	movw	%ax, %fs
	movw	%ax, %gs
	movw	%ax, %ss
	movw	$51, %ax
	ltrw	%ax
	popq	%rax

	#NO_APP
	popq	%rbx
	popq	%r14
	popq	%rbp
	retq
.Lfunc_end9:
	.size	GDT_Bootstrap, .Lfunc_end9-GDT_Bootstrap
	.cfi_endproc

	.globl	GDT_SetEntry
	.align	16, 0x90
	.type	GDT_SetEntry,@function
GDT_SetEntry:                           # @GDT_SetEntry
	.cfi_startproc
# BB#0:
	pushq	%rbp
.Ltmp50:
	.cfi_def_cfa_offset 16
.Ltmp51:
	.cfi_offset %rbp, -16
	movq	%rsp, %rbp
.Ltmp52:
	.cfi_def_cfa_register %rbp
	movslq	%edi, %rax
	movq	coreLocalData, %rdi
	movw	%si, 2(%rdi,%rax,8)
	movl	%esi, %r9d
	shrl	$16, %r9d
	movq	coreLocalData, %rdi
	movb	%r9b, 4(%rdi,%rax,8)
	shrl	$24, %esi
	movq	coreLocalData, %rdi
	movb	%sil, 7(%rdi,%rax,8)
	movq	coreLocalData, %rsi
	movw	%dx, (%rsi,%rax,8)
	shrl	$16, %edx
	andb	$15, %dl
	movq	coreLocalData, %rsi
	movb	%dl, 6(%rsi,%rax,8)
	andb	$-16, %r8b
	movq	coreLocalData, %rdx
	orb	%r8b, 6(%rdx,%rax,8)
	movq	coreLocalData, %rdx
	movb	%cl, 5(%rdx,%rax,8)
	popq	%rbp
	retq
.Lfunc_end10:
	.size	GDT_SetEntry, .Lfunc_end10-GDT_SetEntry
	.cfi_endproc

	.globl	GDT_SetTSS
	.align	16, 0x90
	.type	GDT_SetTSS,@function
GDT_SetTSS:                             # @GDT_SetTSS
	.cfi_startproc
# BB#0:
	pushq	%rbp
.Ltmp53:
	.cfi_def_cfa_offset 16
.Ltmp54:
	.cfi_offset %rbp, -16
	movq	%rsp, %rbp
.Ltmp55:
	.cfi_def_cfa_register %rbp
	movslq	%edi, %rax
	movq	coreLocalData, %rdi
	movw	%si, 2(%rdi,%rax,8)
	movl	%esi, %r8d
	shrl	$16, %r8d
	movq	coreLocalData, %rdi
	movb	%r8b, 4(%rdi,%rax,8)
	movl	%esi, %r8d
	shrl	$24, %r8d
	movq	coreLocalData, %rdi
	movb	%r8b, 7(%rdi,%rax,8)
	movq	coreLocalData, %rdi
	movw	%dx, (%rdi,%rax,8)
	shrl	$16, %edx
	andb	$15, %dl
	movq	coreLocalData, %rdi
	movb	%dl, 6(%rdi,%rax,8)
	movq	coreLocalData, %rdi
	movb	6(%rdi,%rax,8), %dl
	movb	%dl, 6(%rdi,%rax,8)
	movq	coreLocalData, %rdx
	movb	%cl, 5(%rdx,%rax,8)
	incl	%eax
	cltq
	movq	coreLocalData, %rcx
	movw	$0, 2(%rcx,%rax,8)
	movq	coreLocalData, %rcx
	movb	$0, 4(%rcx,%rax,8)
	movq	coreLocalData, %rcx
	movb	$0, 7(%rcx,%rax,8)
	movq	coreLocalData, %rcx
	movw	$0, (%rcx,%rax,8)
	movq	coreLocalData, %rcx
	movb	$0, 6(%rcx,%rax,8)
	movq	coreLocalData, %rcx
	movb	6(%rcx,%rax,8), %dl
	movb	%dl, 6(%rcx,%rax,8)
	movq	coreLocalData, %rcx
	movb	$0, 5(%rcx,%rax,8)
	movq	%rsi, %rcx
	shrq	$32, %rcx
	movq	coreLocalData, %rdx
	movw	%cx, (%rdx,%rax,8)
	shrq	$48, %rsi
	movq	coreLocalData, %rcx
	movw	%si, 2(%rcx,%rax,8)
	popq	%rbp
	retq
.Lfunc_end11:
	.size	GDT_SetTSS, .Lfunc_end11-GDT_SetTSS
	.cfi_endproc

	.globl	GDT_InitializeMP
	.align	16, 0x90
	.type	GDT_InitializeMP,@function
GDT_InitializeMP:                       # @GDT_InitializeMP
	.cfi_startproc
# BB#0:
	pushq	%rbp
.Ltmp56:
	.cfi_def_cfa_offset 16
.Ltmp57:
	.cfi_offset %rbp, -16
	movq	%rsp, %rbp
.Ltmp58:
	.cfi_def_cfa_register %rbp
	movq	vmem_lock, %rax
	testq	%rax, %rax
	je	.LBB12_2
# BB#1:
	xorl	%ecx, %ecx
	#APP
	mfence
	pushfq
	cli
	popq	%rcx
	shlq	$16, %rcx
	movw	$1, %cx
	lock
	xaddw	%cx, 2(%rax)
	cmpw	%cx, (%rax)
	je	.Ltmp59
.Ltmp60:
	btq	$25, %rcx
	jae	.Ltmp61
.Ltmp61:
	pause
	cmpw	%cx, (%rax)
	jne	.Ltmp60
.Ltmp59:
	btq	$25, %rcx
	jae	.Ltmp62
	orw	$1, 4(%rax)
.Ltmp62:
	cli

	#NO_APP
.LBB12_2:                               # %LockSpinlock.exit.i
	movq	coreLocalSpace, %rcx
	xorl	%eax, %eax
	cmpq	$178, %rcx
	jb	.LBB12_4
# BB#3:
	movl	$8192, %eax             # imm = 0x2000
	subq	%rcx, %rax
	addq	virtMemData, %rax
	addq	$-178, %rcx
	movq	%rcx, coreLocalSpace
.LBB12_4:                               # %VirtMemMan_AllocCoreLocalData.exit.i
	movq	vmem_lock, %rcx
	testq	%rcx, %rcx
	je	.LBB12_6
# BB#5:
	#APP
	mfence
	lock
	incw	(%rcx)
	btw	$0, 4(%rcx)
	jae	.Ltmp63
	sti
	movw	$0, 4(%rcx)
.Ltmp63:

	#NO_APP
.LBB12_6:                               # %AllocateAPLSMemory.exit
	movq	%rax, coreLocalData
	popq	%rbp
	retq
.Lfunc_end12:
	.size	GDT_InitializeMP, .Lfunc_end12-GDT_InitializeMP
	.cfi_endproc

	.globl	GDT_Initialize
	.align	16, 0x90
	.type	GDT_Initialize,@function
GDT_Initialize:                         # @GDT_Initialize
	.cfi_startproc
# BB#0:
	pushq	%rbp
.Ltmp64:
	.cfi_def_cfa_offset 16
.Ltmp65:
	.cfi_offset %rbp, -16
	movq	%rsp, %rbp
.Ltmp66:
	.cfi_def_cfa_register %rbp
	#APP
	cli
	#NO_APP
	movq	coreLocalData, %rdi
	xorl	%esi, %esi
	movl	$178, %edx
	callq	memset
	movq	coreLocalData, %rax
	movw	$104, 176(%rax)
	movq	coreLocalData, %rax
	movw	$63, 64(%rax)
	movq	coreLocalData, %rax
	movq	%rax, 66(%rax)
	xorl	%edi, %edi
	xorl	%esi, %esi
	xorl	%edx, %edx
	xorl	%ecx, %ecx
	xorl	%r8d, %r8d
	callq	GDT_SetEntry
	movl	$1, %edi
	xorl	%esi, %esi
	movl	$-1, %edx
	movl	$155, %ecx
	movl	$160, %r8d
	callq	GDT_SetEntry
	movl	$2, %edi
	xorl	%esi, %esi
	movl	$-1, %edx
	movl	$147, %ecx
	xorl	%r8d, %r8d
	callq	GDT_SetEntry
	movl	$3, %edi
	xorl	%esi, %esi
	movl	$-1, %edx
	movl	$251, %ecx
	movl	$208, %r8d
	callq	GDT_SetEntry
	movl	$4, %edi
	xorl	%esi, %esi
	movl	$-1, %edx
	movl	$243, %ecx
	xorl	%r8d, %r8d
	callq	GDT_SetEntry
	movl	$5, %edi
	xorl	%esi, %esi
	movl	$-1, %edx
	movl	$251, %ecx
	movl	$160, %r8d
	callq	GDT_SetEntry
	movq	coreLocalData, %rsi
	addq	$74, %rsi
	movl	$6, %edi
	movl	$104, %edx
	movl	$233, %ecx
	callq	GDT_SetTSS
	movq	coreLocalData, %rax
	addq	$64, %rax
	#APP
	lgdtq	(%rax)
	#NO_APP
	#APP
	pushq	%rax
	movq	$flush, %rax
	pushq	%rax
	retq
flush:
	movw	$16, %ax
	movw	%ax, %ds
	movw	%ax, %es
	movw	%ax, %fs
	movw	%ax, %gs
	movw	%ax, %ss
	movw	$51, %ax
	ltrw	%ax
	popq	%rax

	#NO_APP
	popq	%rbp
	retq
.Lfunc_end13:
	.size	GDT_Initialize, .Lfunc_end13-GDT_Initialize
	.cfi_endproc

	.globl	SetInterruptStack
	.align	16, 0x90
	.type	SetInterruptStack,@function
SetInterruptStack:                      # @SetInterruptStack
	.cfi_startproc
# BB#0:
	pushq	%rbp
.Ltmp67:
	.cfi_def_cfa_offset 16
.Ltmp68:
	.cfi_offset %rbp, -16
	movq	%rsp, %rbp
.Ltmp69:
	.cfi_def_cfa_register %rbp
	movq	coreLocalData, %rax
	movq	%rdi, 78(%rax)
	popq	%rbp
	retq
.Lfunc_end14:
	.size	SetInterruptStack, .Lfunc_end14-SetInterruptStack
	.cfi_endproc

	.globl	GDT_SetIST
	.align	16, 0x90
	.type	GDT_SetIST,@function
GDT_SetIST:                             # @GDT_SetIST
	.cfi_startproc
# BB#0:
	pushq	%rbp
.Ltmp70:
	.cfi_def_cfa_offset 16
.Ltmp71:
	.cfi_offset %rbp, -16
	movq	%rsp, %rbp
.Ltmp72:
	.cfi_def_cfa_register %rbp
	decl	%edi
	cmpl	$6, %edi
	ja	.LBB15_9
# BB#1:
	jmpq	*.LJTI15_0(,%rdi,8)
.LBB15_2:
	movq	coreLocalData, %rax
	movq	%rsi, 110(%rax)
	popq	%rbp
	retq
.LBB15_3:
	movq	coreLocalData, %rax
	movq	%rsi, 118(%rax)
	popq	%rbp
	retq
.LBB15_4:
	movq	coreLocalData, %rax
	movq	%rsi, 126(%rax)
	popq	%rbp
	retq
.LBB15_5:
	movq	coreLocalData, %rax
	movq	%rsi, 134(%rax)
	popq	%rbp
	retq
.LBB15_6:
	movq	coreLocalData, %rax
	movq	%rsi, 142(%rax)
	popq	%rbp
	retq
.LBB15_7:
	movq	coreLocalData, %rax
	movq	%rsi, 150(%rax)
	popq	%rbp
	retq
.LBB15_8:
	movq	coreLocalData, %rax
	movq	%rsi, 158(%rax)
.LBB15_9:
	popq	%rbp
	retq
.Lfunc_end15:
	.size	GDT_SetIST, .Lfunc_end15-GDT_SetIST
	.cfi_endproc
	.section	.rodata,"a",@progbits
	.align	8
.LJTI15_0:
	.quad	.LBB15_2
	.quad	.LBB15_3
	.quad	.LBB15_4
	.quad	.LBB15_5
	.quad	.LBB15_6
	.quad	.LBB15_7
	.quad	.LBB15_8

	.text
	.globl	IDT_Initialize
	.align	16, 0x90
	.type	IDT_Initialize,@function
IDT_Initialize:                         # @IDT_Initialize
	.cfi_startproc
# BB#0:
	pushq	%rbp
.Ltmp73:
	.cfi_def_cfa_offset 16
.Ltmp74:
	.cfi_offset %rbp, -16
	movq	%rsp, %rbp
.Ltmp75:
	.cfi_def_cfa_register %rbp
	pushq	%r15
	pushq	%r14
	pushq	%rbx
	pushq	%rax
.Ltmp76:
	.cfi_offset %rbx, -40
.Ltmp77:
	.cfi_offset %r14, -32
.Ltmp78:
	.cfi_offset %r15, -24
	movw	$4095, idt_table        # imm = 0xFFF
	movq	$idt_entries, idt_table+2
	#APP
	cli
	#NO_APP
	movq	$idt_table, %rax
	#APP
	lidtq	(%rax)
	#NO_APP
	movb	table_initialized, %al
	andb	$1, %al
	jne	.LBB16_5
# BB#1:
	movb	$1, table_initialized
	xorl	%eax, %eax
	.align	16, 0x90
.LBB16_2:                               # =>This Inner Loop Header: Depth=1
	movw	$0, idt_entries
	movw	$0, idt_entries+6
	movl	$0, idt_entries+8
	movb	$0, idt_entries+5
	movb	$0, idt_entries+4
	movw	$0, idt_entries+2
	movq	$0, idt_handler_calls(,%rax,8)
	movw	$0, idt_entries
	movw	$0, idt_entries+6
	movl	$0, idt_entries+8
	movb	$0, idt_entries+5
	movb	$0, idt_entries+4
	movw	$0, idt_entries+2
	movq	$0, idt_handler_calls+8(,%rax,8)
	addq	$2, %rax
	cmpq	$256, %rax              # imm = 0x100
	jne	.LBB16_2
# BB#3:
	movq	$-256, %r14
	movq	$idt_entries+8, %rbx
	movq	$idt_handlers, %r15
	.align	16, 0x90
.LBB16_4:                               # %.preheader
                                        # =>This Inner Loop Header: Depth=1
	cmpq	$-248, %r14
	sete	%al
	leal	246(%r14), %ecx
	cmpl	$5, %ecx
	setb	%cl
	orb	%al, %cl
	xorb	$1, %cl
	leal	256(%r14), %eax
	movzbl	%cl, %edx
	movzbl	%al, %esi
	movq	%r15, %rdi
	callq	IDT_FillSWInterruptHandler
	movw	%r15w, -8(%rbx)
	movq	%r15, %rax
	shrq	$16, %rax
	movw	%ax, -2(%rbx)
	movq	%r15, %rax
	shrq	$32, %rax
	movl	%eax, (%rbx)
	movb	$-114, -3(%rbx)
	movb	$0, -4(%rbx)
	movw	$8, -6(%rbx)
	addq	$16, %rbx
	addq	$32, %r15
	incq	%r14
	jne	.LBB16_4
.LBB16_5:                               # %.loopexit
	addq	$8, %rsp
	popq	%rbx
	popq	%r14
	popq	%r15
	popq	%rbp
	retq
.Lfunc_end16:
	.size	IDT_Initialize, .Lfunc_end16-IDT_Initialize
	.cfi_endproc

	.globl	IDT_SetEntry
	.align	16, 0x90
	.type	IDT_SetEntry,@function
IDT_SetEntry:                           # @IDT_SetEntry
	.cfi_startproc
# BB#0:
	pushq	%rbp
.Ltmp79:
	.cfi_def_cfa_offset 16
.Ltmp80:
	.cfi_offset %rbp, -16
	movq	%rsp, %rbp
.Ltmp81:
	.cfi_def_cfa_register %rbp
	shlq	$4, %rdi
	movw	%si, idt_entries(%rdi)
	movq	%rsi, %rax
	shrq	$16, %rax
	movw	%ax, idt_entries+6(%rdi)
	shrq	$32, %rsi
	movl	%esi, idt_entries+8(%rdi)
	movb	%cl, idt_entries+5(%rdi)
	andb	$7, %r8b
	movb	%r8b, idt_entries+4(%rdi)
	movw	%dx, idt_entries+2(%rdi)
	popq	%rbp
	retq
.Lfunc_end17:
	.size	IDT_SetEntry, .Lfunc_end17-IDT_SetEntry
	.cfi_endproc

	.globl	IDT_FillSWInterruptHandler
	.align	16, 0x90
	.type	IDT_FillSWInterruptHandler,@function
IDT_FillSWInterruptHandler:             # @IDT_FillSWInterruptHandler
	.cfi_startproc
# BB#0:
	pushq	%rbp
.Ltmp82:
	.cfi_def_cfa_offset 16
.Ltmp83:
	.cfi_offset %rbp, -16
	movq	%rsp, %rbp
.Ltmp84:
	.cfi_def_cfa_register %rbp
	xorl	%eax, %eax
	testb	%dl, %dl
	je	.LBB18_2
# BB#1:
	movb	$106, (%rdi)
	movb	%dl, 1(%rdi)
	movl	$2, %eax
.LBB18_2:
	movl	%eax, %edx
	orl	$1, %edx
	movl	%eax, %ecx
	movb	$106, (%rdi,%rcx)
	movb	%sil, (%rdi,%rdx)
	movb	$80, 1(%rdi,%rdx)
	movb	$72, 2(%rdi,%rdx)
	movl	%eax, %ecx
	orl	$5, %ecx
	movb	$-72, 3(%rdi,%rdx)
	movq	$IDT_DefaultHandler, %rdx
	movb	%dl, (%rdi,%rcx)
	movb	%dh, 1(%rdi,%rcx)  # NOREX
	movq	$IDT_DefaultHandler, %rsi
	shrq	$16, %rsi
	movb	%sil, 2(%rdi,%rcx)
	movq	$IDT_DefaultHandler, %rsi
	shrq	$24, %rsi
	movb	%sil, 3(%rdi,%rcx)
	movq	$IDT_DefaultHandler, %rsi
	shrq	$32, %rsi
	movb	%sil, 4(%rdi,%rcx)
	movq	$IDT_DefaultHandler, %rsi
	shrq	$40, %rsi
	movb	%sil, 5(%rdi,%rcx)
	movq	$IDT_DefaultHandler, %rsi
	shrq	$48, %rsi
	movb	%sil, 6(%rdi,%rcx)
	orl	$13, %eax
	shrq	$56, %rdx
	movb	%dl, 7(%rdi,%rcx)
	movw	$-15536, (%rdi,%rax)    # imm = 0xFFFFFFFFFFFFC350
	popq	%rbp
	retq
.Lfunc_end18:
	.size	IDT_FillSWInterruptHandler, .Lfunc_end18-IDT_FillSWInterruptHandler
	.cfi_endproc

	.globl	IDT_ChangeEntry
	.align	16, 0x90
	.type	IDT_ChangeEntry,@function
IDT_ChangeEntry:                        # @IDT_ChangeEntry
	.cfi_startproc
# BB#0:
	pushq	%rbp
.Ltmp85:
	.cfi_def_cfa_offset 16
.Ltmp86:
	.cfi_offset %rbp, -16
	movq	%rsp, %rbp
.Ltmp87:
	.cfi_def_cfa_register %rbp
	shlq	$4, %rdi
	movb	%dl, idt_entries+5(%rdi)
	andb	$7, %cl
	movb	%cl, idt_entries+4(%rdi)
	movw	%si, idt_entries+2(%rdi)
	popq	%rbp
	retq
.Lfunc_end19:
	.size	IDT_ChangeEntry, .Lfunc_end19-IDT_ChangeEntry
	.cfi_endproc

	.globl	IDT_DefaultHandler
	.align	16, 0x90
	.type	IDT_DefaultHandler,@function
IDT_DefaultHandler:                     # @IDT_DefaultHandler
	.cfi_startproc
# BB#0:
	#APP
	pushq	%rbx
	pushq	%rcx
	pushq	%rdx
	pushq	%rbp
	pushq	%rsi
	pushq	%rdi
	pushq	%r8
	pushq	%r9
	pushq	%r10
	pushq	%r11
	pushq	%r12
	pushq	%r13
	pushq	%r14
	pushq	%r15
	movq	%rsp, %rdi
	pushq	%rdi
	movq	%rsp, %rdi
	callq	IDT_MainHandler
	popq	%rdi
	popq	%r15
	popq	%r14
	popq	%r13
	popq	%r12
	popq	%r11
	popq	%r10
	popq	%r9
	popq	%r8
	popq	%rdi
	popq	%rsi
	popq	%rbp
	popq	%rdx
	popq	%rcx
	popq	%rbx
	popq	%rax
	addq	$16, %rsp
	iretq

	#NO_APP
.Lfunc_end20:
	.size	IDT_DefaultHandler, .Lfunc_end20-IDT_DefaultHandler
	.cfi_endproc

	.globl	IDT_MainHandler
	.align	16, 0x90
	.type	IDT_MainHandler,@function
IDT_MainHandler:                        # @IDT_MainHandler
	.cfi_startproc
# BB#0:
	pushq	%rbp
.Ltmp88:
	.cfi_def_cfa_offset 16
.Ltmp89:
	.cfi_offset %rbp, -16
	movq	%rsp, %rbp
.Ltmp90:
	.cfi_def_cfa_register %rbp
	pushq	%rbx
.Ltmp91:
	.cfi_offset %rbx, -24
	movq	128(%rdi), %rax
	cmpq	$0, idt_handler_calls(,%rax,8)
	je	.LBB21_1
# BB#2:
	movq	idt_handler_calls(,%rax,8), %rax
	popq	%rbx
	popq	%rbp
	jmpq	*%rax                   # TAILCALL
.LBB21_1:
	movq	136(%rdi), %rbx
	movq	144(%rdi), %rcx
	#APP
	hlt
	#NO_APP
	popq	%rbx
	popq	%rbp
	retq
.Lfunc_end21:
	.size	IDT_MainHandler, .Lfunc_end21-IDT_MainHandler
	.cfi_endproc

	.globl	IDT_RegisterHandler
	.align	16, 0x90
	.type	IDT_RegisterHandler,@function
IDT_RegisterHandler:                    # @IDT_RegisterHandler
	.cfi_startproc
# BB#0:
	pushq	%rbp
.Ltmp92:
	.cfi_def_cfa_offset 16
.Ltmp93:
	.cfi_offset %rbp, -16
	movq	%rsp, %rbp
.Ltmp94:
	.cfi_def_cfa_register %rbp
	movq	%rsi, idt_handler_calls(,%rdi,8)
	popq	%rbp
	retq
.Lfunc_end22:
	.size	IDT_RegisterHandler, .Lfunc_end22-IDT_RegisterHandler
	.cfi_endproc

	.globl	IDT_RaiseInterrupt
	.align	16, 0x90
	.type	IDT_RaiseInterrupt,@function
IDT_RaiseInterrupt:                     # @IDT_RaiseInterrupt
	.cfi_startproc
# BB#0:
	pushq	%rbp
.Ltmp95:
	.cfi_def_cfa_offset 16
.Ltmp96:
	.cfi_offset %rbp, -16
	movq	%rsp, %rbp
.Ltmp97:
	.cfi_def_cfa_register %rbp
	cmpl	$255, %edi
	jbe	.LBB23_2
# BB#1:
	popq	%rbp
	retq
.LBB23_2:
	movb	$-51, int_insts
	movb	%dil, int_insts+1
	movb	$-61, int_insts+2
	popq	%rbp
	jmp	int_insts               # TAILCALL
.Lfunc_end23:
	.size	IDT_RaiseInterrupt, .Lfunc_end23-IDT_RaiseInterrupt
	.cfi_endproc

	.globl	CPUID_RequestInfo
	.align	16, 0x90
	.type	CPUID_RequestInfo,@function
CPUID_RequestInfo:                      # @CPUID_RequestInfo
	.cfi_startproc
# BB#0:
	pushq	%rbp
.Ltmp98:
	.cfi_def_cfa_offset 16
.Ltmp99:
	.cfi_offset %rbp, -16
	movq	%rsp, %rbp
.Ltmp100:
	.cfi_def_cfa_register %rbp
	pushq	%rbx
.Ltmp101:
	.cfi_offset %rbx, -24
	movl	%edi, %eax
	movl	%esi, %ecx
	#APP
	cpuid

	#NO_APP
	movl	%ebx, ebx
	movl	%edx, edx
	popq	%rbx
	popq	%rbp
	retq
.Lfunc_end24:
	.size	CPUID_RequestInfo, .Lfunc_end24-CPUID_RequestInfo
	.cfi_endproc

	.globl	CPUID_GetCacheLineSize
	.align	16, 0x90
	.type	CPUID_GetCacheLineSize,@function
CPUID_GetCacheLineSize:                 # @CPUID_GetCacheLineSize
	.cfi_startproc
# BB#0:
	pushq	%rbp
.Ltmp102:
	.cfi_def_cfa_offset 16
.Ltmp103:
	.cfi_offset %rbp, -16
	movq	%rsp, %rbp
.Ltmp104:
	.cfi_def_cfa_register %rbp
	pushq	%rbx
.Ltmp105:
	.cfi_offset %rbx, -24
	movl	$-2147483642, %eax      # imm = 0xFFFFFFFF80000006
	xorl	%ecx, %ecx
	#APP
	cpuid

	#NO_APP
	movl	%ebx, ebx
	movl	%edx, edx
	movl	$64, %eax
	popq	%rbx
	popq	%rbp
	retq
.Lfunc_end25:
	.size	CPUID_GetCacheLineSize, .Lfunc_end25-CPUID_GetCacheLineSize
	.cfi_endproc

	.globl	CPUID_FeatureIsAvailable
	.align	16, 0x90
	.type	CPUID_FeatureIsAvailable,@function
CPUID_FeatureIsAvailable:               # @CPUID_FeatureIsAvailable
	.cfi_startproc
# BB#0:
	pushq	%rbp
.Ltmp106:
	.cfi_def_cfa_offset 16
.Ltmp107:
	.cfi_offset %rbp, -16
	movq	%rsp, %rbp
.Ltmp108:
	.cfi_def_cfa_register %rbp
	movl	%edi, %eax
	cmpl	$3, %edi
	jbe	.LBB26_2
# BB#1:
	xorl	%eax, %eax
	jmp	.LBB26_8
.LBB26_2:
	jmpq	*.LJTI26_0(,%rax,8)
.LBB26_4:
	testl	%esi, %esi
	jmp	.LBB26_7
.LBB26_3:
	movl	ebx, %eax
	jmp	.LBB26_6
.LBB26_5:
	movl	edx, %eax
.LBB26_6:
	andl	%esi, %eax
	cmpl	%esi, %eax
.LBB26_7:
	sete	%al
.LBB26_8:
	movzbl	%al, %eax
	popq	%rbp
	retq
.Lfunc_end26:
	.size	CPUID_FeatureIsAvailable, .Lfunc_end26-CPUID_FeatureIsAvailable
	.cfi_endproc
	.section	.rodata,"a",@progbits
	.align	8
.LJTI26_0:
	.quad	.LBB26_4
	.quad	.LBB26_3
	.quad	.LBB26_4
	.quad	.LBB26_5

	.text
	.globl	CPUID_GetValue
	.align	16, 0x90
	.type	CPUID_GetValue,@function
CPUID_GetValue:                         # @CPUID_GetValue
	.cfi_startproc
# BB#0:
	pushq	%rbp
.Ltmp109:
	.cfi_def_cfa_offset 16
.Ltmp110:
	.cfi_offset %rbp, -16
	movq	%rsp, %rbp
.Ltmp111:
	.cfi_def_cfa_register %rbp
	cmpl	$3, %edi
	jne	.LBB27_1
# BB#3:
	movl	edx, %eax
	jmp	.LBB27_4
.LBB27_1:
	xorl	%eax, %eax
	cmpl	$1, %edi
	jne	.LBB27_4
# BB#2:
	movl	ebx, %eax
	popq	%rbp
	retq
.LBB27_4:
	popq	%rbp
	retq
.Lfunc_end27:
	.size	CPUID_GetValue, .Lfunc_end27-CPUID_GetValue
	.cfi_endproc

	.globl	FPU_Initialize
	.align	16, 0x90
	.type	FPU_Initialize,@function
FPU_Initialize:                         # @FPU_Initialize
	.cfi_startproc
# BB#0:
	pushq	%rbp
.Ltmp112:
	.cfi_def_cfa_offset 16
.Ltmp113:
	.cfi_offset %rbp, -16
	movq	%rsp, %rbp
.Ltmp114:
	.cfi_def_cfa_register %rbp
	pushq	%rbx
	pushq	%rax
.Ltmp115:
	.cfi_offset %rbx, -24
	movl	$1, %eax
	xorl	%ecx, %ecx
	#APP
	cpuid

	#NO_APP
	movl	%ebx, ebx
	movl	%edx, edx
	testb	$1, %dl
	je	.LBB28_4
# BB#1:
	testl	$33554432, %edx         # imm = 0x2000000
	je	.LBB28_4
# BB#2:
	testl	$16777216, %edx         # imm = 0x1000000
	je	.LBB28_4
# BB#3:
	#APP
	movq	%cr0, %rax
	#NO_APP
	andq	$-39, %rax
	orq	$34, %rax
	#APP
	movq	%rax, %cr0
	#NO_APP
	#APP
	movq	%cr4, %rax
	#NO_APP
	orq	$1536, %rax             # imm = 0x600
	movq	$FPU_X87Exception, intHandlers+128
	movq	$ShadowInterruptHandler, idt_handler_calls+128
	movq	$FPU_SIMDException, intHandlers+152
	movq	$ShadowInterruptHandler, idt_handler_calls+152
	#APP
	movq	%rax, %cr4
	#NO_APP
	#APP
	fninit
	#NO_APP
	movb	$1, state_area_size
	addq	$8, %rsp
	popq	%rbx
	popq	%rbp
	retq
.LBB28_4:
	movl	$255, %edi
	callq	bootstrap_kernel_panic
.Lfunc_end28:
	.size	FPU_Initialize, .Lfunc_end28-FPU_Initialize
	.cfi_endproc

	.globl	GetFPUStateSize
	.align	16, 0x90
	.type	GetFPUStateSize,@function
GetFPUStateSize:                        # @GetFPUStateSize
	.cfi_startproc
# BB#0:
	pushq	%rbp
.Ltmp116:
	.cfi_def_cfa_offset 16
.Ltmp117:
	.cfi_offset %rbp, -16
	movq	%rsp, %rbp
.Ltmp118:
	.cfi_def_cfa_register %rbp
	movzbl	state_area_size, %eax
	andl	$1, %eax
	shlq	$10, %rax
	popq	%rbp
	retq
.Lfunc_end29:
	.size	GetFPUStateSize, .Lfunc_end29-GetFPUStateSize
	.cfi_endproc

	.globl	SaveFPUState
	.align	16, 0x90
	.type	SaveFPUState,@function
SaveFPUState:                           # @SaveFPUState
	.cfi_startproc
# BB#0:
	pushq	%rbp
.Ltmp119:
	.cfi_def_cfa_offset 16
.Ltmp120:
	.cfi_offset %rbp, -16
	movq	%rsp, %rbp
.Ltmp121:
	.cfi_def_cfa_register %rbp
	#APP
	fxsave64	(%rdi)
	#NO_APP
	popq	%rbp
	retq
.Lfunc_end30:
	.size	SaveFPUState, .Lfunc_end30-SaveFPUState
	.cfi_endproc

	.globl	RestoreFPUState
	.align	16, 0x90
	.type	RestoreFPUState,@function
RestoreFPUState:                        # @RestoreFPUState
	.cfi_startproc
# BB#0:
	pushq	%rbp
.Ltmp122:
	.cfi_def_cfa_offset 16
.Ltmp123:
	.cfi_offset %rbp, -16
	movq	%rsp, %rbp
.Ltmp124:
	.cfi_def_cfa_register %rbp
	#APP
	fxrstor64	(%rdi)
	#NO_APP
	popq	%rbp
	retq
.Lfunc_end31:
	.size	RestoreFPUState, .Lfunc_end31-RestoreFPUState
	.cfi_endproc

	.align	16, 0x90
	.type	FPU_X87Exception,@function
FPU_X87Exception:                       # @FPU_X87Exception
	.cfi_startproc
# BB#0:
	pushq	%rbp
.Ltmp125:
	.cfi_def_cfa_offset 16
.Ltmp126:
	.cfi_offset %rbp, -16
	movq	%rsp, %rbp
.Ltmp127:
	.cfi_def_cfa_register %rbp
	cmpl	$16, %edi
	jne	.LBB32_2
# BB#1:
	movl	$721077, %eax           # imm = 0xB00B5
	#APP
	cli
	movq	%rax, %rax
	hlt
	#NO_APP
.LBB32_2:
	popq	%rbp
	retq
.Lfunc_end32:
	.size	FPU_X87Exception, .Lfunc_end32-FPU_X87Exception
	.cfi_endproc

	.align	16, 0x90
	.type	FPU_SIMDException,@function
FPU_SIMDException:                      # @FPU_SIMDException
	.cfi_startproc
# BB#0:
	pushq	%rbp
.Ltmp128:
	.cfi_def_cfa_offset 16
.Ltmp129:
	.cfi_offset %rbp, -16
	movq	%rsp, %rbp
.Ltmp130:
	.cfi_def_cfa_register %rbp
	cmpl	$19, %edi
	jne	.LBB33_2
# BB#1:
	movl	$184594917, %eax        # imm = 0xB00B1E5
	#APP
	cli
	movq	%rax, %rax
	hlt
	#NO_APP
.LBB33_2:
	popq	%rbp
	retq
.Lfunc_end33:
	.size	FPU_SIMDException, .Lfunc_end33-FPU_SIMDException
	.cfi_endproc

	.globl	RTC_Initialize
	.align	16, 0x90
	.type	RTC_Initialize,@function
RTC_Initialize:                         # @RTC_Initialize
	.cfi_startproc
# BB#0:
	pushq	%rbp
.Ltmp131:
	.cfi_def_cfa_offset 16
.Ltmp132:
	.cfi_offset %rbp, -16
	movq	%rsp, %rbp
.Ltmp133:
	.cfi_def_cfa_register %rbp
	movq	$.L.str, %rdi
	xorl	%esi, %esi
	callq	ACPITables_FindTable
	testq	%rax, %rax
	je	.LBB34_2
# BB#1:
	movzbl	108(%rax), %eax
	movl	%eax, century_register
.LBB34_2:
	popq	%rbp
	retq
.Lfunc_end34:
	.size	RTC_Initialize, .Lfunc_end34-RTC_Initialize
	.cfi_endproc

	.globl	RTC_SelectRegister
	.align	16, 0x90
	.type	RTC_SelectRegister,@function
RTC_SelectRegister:                     # @RTC_SelectRegister
	.cfi_startproc
# BB#0:
	pushq	%rbp
.Ltmp134:
	.cfi_def_cfa_offset 16
.Ltmp135:
	.cfi_offset %rbp, -16
	movq	%rsp, %rbp
.Ltmp136:
	.cfi_def_cfa_register %rbp
	shlb	$7, %dil
	orb	%sil, %dil
	movb	%dil, %al
	#APP
	outb	%al, $112
	#NO_APP
	popq	%rbp
	retq
.Lfunc_end35:
	.size	RTC_SelectRegister, .Lfunc_end35-RTC_SelectRegister
	.cfi_endproc

	.globl	RTC_SetRegister
	.align	16, 0x90
	.type	RTC_SetRegister,@function
RTC_SetRegister:                        # @RTC_SetRegister
	.cfi_startproc
# BB#0:
	pushq	%rbp
.Ltmp137:
	.cfi_def_cfa_offset 16
.Ltmp138:
	.cfi_offset %rbp, -16
	movq	%rsp, %rbp
.Ltmp139:
	.cfi_def_cfa_register %rbp
	shlb	$7, %sil
	orb	%dl, %sil
	movb	%sil, %al
	#APP
	outb	%al, $112
	#NO_APP
	movb	%dil, %al
	#APP
	outb	%al, $113
	#NO_APP
	popq	%rbp
	retq
.Lfunc_end36:
	.size	RTC_SetRegister, .Lfunc_end36-RTC_SetRegister
	.cfi_endproc

	.globl	RTC_GetRegister
	.align	16, 0x90
	.type	RTC_GetRegister,@function
RTC_GetRegister:                        # @RTC_GetRegister
	.cfi_startproc
# BB#0:
	pushq	%rbp
.Ltmp140:
	.cfi_def_cfa_offset 16
.Ltmp141:
	.cfi_offset %rbp, -16
	movq	%rsp, %rbp
.Ltmp142:
	.cfi_def_cfa_register %rbp
	shlb	$7, %dil
	orb	%sil, %dil
	movb	%dil, %al
	#APP
	outb	%al, $112
	#NO_APP
	#APP
	inb	$113, %al
	#NO_APP
	movzbl	%al, %eax
	popq	%rbp
	retq
.Lfunc_end37:
	.size	RTC_GetRegister, .Lfunc_end37-RTC_GetRegister
	.cfi_endproc

	.globl	RTC_UpdateInProgress
	.align	16, 0x90
	.type	RTC_UpdateInProgress,@function
RTC_UpdateInProgress:                   # @RTC_UpdateInProgress
	.cfi_startproc
# BB#0:
	pushq	%rbp
.Ltmp143:
	.cfi_def_cfa_offset 16
.Ltmp144:
	.cfi_offset %rbp, -16
	movq	%rsp, %rbp
.Ltmp145:
	.cfi_def_cfa_register %rbp
	movb	$-118, %al
	#APP
	outb	%al, $112
	#NO_APP
	#APP
	inb	$113, %al
	#NO_APP
	andb	$-128, %al
	movzbl	%al, %eax
	popq	%rbp
	retq
.Lfunc_end38:
	.size	RTC_UpdateInProgress, .Lfunc_end38-RTC_UpdateInProgress
	.cfi_endproc

	.globl	RTC_GetRTCTime
	.align	16, 0x90
	.type	RTC_GetRTCTime,@function
RTC_GetRTCTime:                         # @RTC_GetRTCTime
	.cfi_startproc
# BB#0:
	pushq	%rbp
.Ltmp146:
	.cfi_def_cfa_offset 16
.Ltmp147:
	.cfi_offset %rbp, -16
	movq	%rsp, %rbp
.Ltmp148:
	.cfi_def_cfa_register %rbp
	pushq	%r15
	pushq	%r14
	pushq	%r13
	pushq	%r12
	pushq	%rbx
	subq	$16, %rsp
.Ltmp149:
	.cfi_offset %rbx, -56
.Ltmp150:
	.cfi_offset %r12, -48
.Ltmp151:
	.cfi_offset %r13, -40
.Ltmp152:
	.cfi_offset %r14, -32
.Ltmp153:
	.cfi_offset %r15, -24
	.align	16, 0x90
.LBB39_1:                               # =>This Inner Loop Header: Depth=1
	movb	$-118, %al
	#APP
	outb	%al, $112
	#NO_APP
	#APP
	inb	$113, %al
	#NO_APP
	testb	%al, %al
	js	.LBB39_1
# BB#2:
	movb	$-128, %al
	#APP
	outb	%al, $112
	#NO_APP
	#APP
	inb	$113, %al
	#NO_APP
	movb	%al, %r14b
	movb	$-126, %al
	#APP
	outb	%al, $112
	#NO_APP
	#APP
	inb	$113, %al
	#NO_APP
	movb	%al, %r15b
	movb	$-124, %al
	#APP
	outb	%al, $112
	#NO_APP
	#APP
	inb	$113, %al
	#NO_APP
	movb	%al, %bl
	movb	$-121, %al
	#APP
	outb	%al, $112
	#NO_APP
	#APP
	inb	$113, %al
	#NO_APP
	movb	%al, %dl
	movb	$-120, %al
	#APP
	outb	%al, $112
	#NO_APP
	#APP
	inb	$113, %al
	#NO_APP
	movb	%al, %cl
	movb	$-119, %al
	#APP
	outb	%al, $112
	#NO_APP
	#APP
	inb	$113, %al
	#NO_APP
	movb	%al, %r12b
	movl	century_register, %eax
	testl	%eax, %eax
	je	.LBB39_3
# BB#4:
	movq	%rdi, -56(%rbp)         # 8-byte Spill
	orb	$-128, %al
	#APP
	outb	%al, $112
	#NO_APP
	#APP
	inb	$113, %al
	#NO_APP
	jmp	.LBB39_5
.LBB39_3:
	movq	%rdi, -56(%rbp)         # 8-byte Spill
	xorl	%eax, %eax
	.align	16, 0x90
.LBB39_5:                               # %.critedge
                                        # =>This Loop Header: Depth=1
                                        #     Child Loop BB39_6 Depth 2
	movb	%r14b, %r10b
	movb	%r15b, -41(%rbp)        # 1-byte Spill
	movb	%bl, %r13b
	movb	%dl, -42(%rbp)          # 1-byte Spill
	movb	%cl, -43(%rbp)          # 1-byte Spill
	movb	%r12b, %r9b
	movb	%al, %r11b
	.align	16, 0x90
.LBB39_6:                               #   Parent Loop BB39_5 Depth=1
                                        # =>  This Inner Loop Header: Depth=2
	movb	$-118, %al
	#APP
	outb	%al, $112
	#NO_APP
	#APP
	inb	$113, %al
	#NO_APP
	testb	%al, %al
	js	.LBB39_6
# BB#7:                                 #   in Loop: Header=BB39_5 Depth=1
	movb	$-128, %al
	#APP
	outb	%al, $112
	#NO_APP
	#APP
	inb	$113, %al
	#NO_APP
	movb	%al, %r14b
	movb	$-126, %al
	#APP
	outb	%al, $112
	#NO_APP
	#APP
	inb	$113, %al
	#NO_APP
	movb	%al, %r15b
	movb	$-124, %al
	#APP
	outb	%al, $112
	#NO_APP
	#APP
	inb	$113, %al
	#NO_APP
	movb	%al, %bl
	movb	$-121, %al
	#APP
	outb	%al, $112
	#NO_APP
	#APP
	inb	$113, %al
	#NO_APP
	movb	%al, %dl
	movb	$-120, %al
	#APP
	outb	%al, $112
	#NO_APP
	#APP
	inb	$113, %al
	#NO_APP
	movb	%al, %cl
	movb	$-119, %al
	#APP
	outb	%al, $112
	#NO_APP
	#APP
	inb	$113, %al
	#NO_APP
	movb	%al, %r12b
	movl	century_register, %esi
	testl	%esi, %esi
	movb	%r11b, %al
	je	.LBB39_9
# BB#8:                                 #   in Loop: Header=BB39_5 Depth=1
	orb	$-128, %sil
	movb	%sil, %al
	#APP
	outb	%al, $112
	#NO_APP
	#APP
	inb	$113, %al
	#NO_APP
.LBB39_9:                               #   in Loop: Header=BB39_5 Depth=1
	movzbl	%r14b, %esi
	movzbl	%r10b, %r8d
	cmpl	%esi, %r8d
	jne	.LBB39_5
# BB#10:                                #   in Loop: Header=BB39_5 Depth=1
	movzbl	%r15b, %esi
	movzbl	-41(%rbp), %edi         # 1-byte Folded Reload
	cmpl	%esi, %edi
	jne	.LBB39_5
# BB#11:                                #   in Loop: Header=BB39_5 Depth=1
	movzbl	%bl, %esi
	movzbl	%r13b, %edi
	cmpl	%esi, %edi
	jne	.LBB39_5
# BB#12:                                #   in Loop: Header=BB39_5 Depth=1
	movzbl	%dl, %esi
	movzbl	-42(%rbp), %edi         # 1-byte Folded Reload
	cmpl	%esi, %edi
	jne	.LBB39_5
# BB#13:                                #   in Loop: Header=BB39_5 Depth=1
	movzbl	%cl, %esi
	movzbl	-43(%rbp), %edi         # 1-byte Folded Reload
	cmpl	%esi, %edi
	jne	.LBB39_5
# BB#14:                                #   in Loop: Header=BB39_5 Depth=1
	movzbl	%r12b, %edi
	movzbl	%r9b, %r8d
	cmpl	%edi, %r8d
	jne	.LBB39_5
# BB#15:                                #   in Loop: Header=BB39_5 Depth=1
	movzbl	%al, %edi
	movzbl	%r11b, %esi
	cmpl	%edi, %esi
	jne	.LBB39_5
# BB#16:
	movb	$-117, %al
	#APP
	outb	%al, $112
	#NO_APP
	#APP
	inb	$113, %al
	#NO_APP
	movb	%al, %cl
	testb	$4, %cl
	jne	.LBB39_19
# BB#17:
	movb	%r10b, %bl
	andb	$15, %bl
	shrb	$4, %r10b
	movb	$10, %dl
	movb	%r10b, %al
	mulb	%dl
	movb	%al, %r10b
	addb	%bl, %r10b
	movb	-41(%rbp), %al          # 1-byte Reload
	movb	%al, %bl
	andb	$15, %bl
	shrb	$4, %al
	mulb	%dl
	addb	%bl, %al
	movb	%al, -41(%rbp)          # 1-byte Spill
	movb	%r13b, %bl
	andb	$15, %bl
	movb	%r13b, %al
	shrb	$4, %al
	andb	$7, %al
	mulb	%dl
	addb	%bl, %al
	andb	$-128, %r13b
	orb	%al, %r13b
	movb	-42(%rbp), %al          # 1-byte Reload
	movb	%al, %bl
	andb	$15, %bl
	shrb	$4, %al
	mulb	%dl
	addb	%bl, %al
	movb	%al, -42(%rbp)          # 1-byte Spill
	movb	-43(%rbp), %al          # 1-byte Reload
	movb	%al, %bl
	andb	$15, %bl
	shrb	$4, %al
	mulb	%dl
	addb	%bl, %al
	movb	%al, -43(%rbp)          # 1-byte Spill
	andl	$65295, %r8d            # imm = 0xFF0F
	shrb	$4, %r9b
	movzbl	%r9b, %eax
	leal	(%rax,%rax,4), %eax
	leal	(%r8,%rax,2), %r8d
	cmpl	$0, century_register
	je	.LBB39_19
# BB#18:
	movb	%r11b, %bl
	andb	$15, %bl
	shrb	$4, %r11b
	movb	%r11b, %al
	mulb	%dl
	movb	%al, %r11b
	addb	%bl, %r11b
.LBB39_19:
	movq	-56(%rbp), %rdx         # 8-byte Reload
	testb	$2, %cl
	jne	.LBB39_22
# BB#20:
	testb	%r13b, %r13b
	jns	.LBB39_22
# BB#21:
	andb	$127, %r13b
	addb	$12, %r13b
	movzbl	%r13b, %r13d
	imull	$171, %r13d, %eax
	andl	$61440, %eax            # imm = 0xF000
	shrl	$12, %eax
	movb	$24, %cl
	mulb	%cl
	subb	%al, %r13b
.LBB39_22:
	cmpl	$0, century_register
	je	.LBB39_24
# BB#23:
	movzbl	%r11b, %eax
	imull	$100, %eax, %eax
	addl	%eax, %r8d
	jmp	.LBB39_25
.LBB39_24:
	leal	2000(%r8), %eax
	movzwl	%ax, %eax
	addl	$2100, %r8d             # imm = 0x834
	cmpl	$2016, %eax             # imm = 0x7E0
	cmovbw	%r8w, %ax
	movw	%ax, %r8w
.LBB39_25:
	movb	%r10b, (%rdx)
	movb	-41(%rbp), %al          # 1-byte Reload
	movb	%al, 1(%rdx)
	movb	%r13b, 2(%rdx)
	movb	-42(%rbp), %al          # 1-byte Reload
	movb	%al, 3(%rdx)
	movb	-43(%rbp), %al          # 1-byte Reload
	movb	%al, 4(%rdx)
	movw	%r8w, 6(%rdx)
	movb	%r11b, 8(%rdx)
	addq	$16, %rsp
	popq	%rbx
	popq	%r12
	popq	%r13
	popq	%r14
	popq	%r15
	popq	%rbp
	retq
.Lfunc_end39:
	.size	RTC_GetRTCTime, .Lfunc_end39-RTC_GetRTCTime
	.cfi_endproc

	.globl	debug_gfx_writeLine
	.align	16, 0x90
	.type	debug_gfx_writeLine,@function
debug_gfx_writeLine:                    # @debug_gfx_writeLine
	.cfi_startproc
# BB#0:                                 # %memset.exit
	pushq	%rbp
.Ltmp154:
	.cfi_def_cfa_offset 16
.Ltmp155:
	.cfi_offset %rbp, -16
	movq	%rsp, %rbp
.Ltmp156:
	.cfi_def_cfa_register %rbp
	pushq	%r15
	pushq	%r14
	pushq	%rbx
	subq	$344, %rsp              # imm = 0x158
.Ltmp157:
	.cfi_offset %rbx, -40
.Ltmp158:
	.cfi_offset %r14, -32
.Ltmp159:
	.cfi_offset %r15, -24
	movq	%rdi, %r14
	movq	%r9, -328(%rbp)
	movq	%r8, -336(%rbp)
	movq	%rcx, -344(%rbp)
	movq	%rdx, -352(%rbp)
	movq	%rsi, -360(%rbp)
	leaq	-288(%rbp), %r15
	xorl	%esi, %esi
	movl	$256, %edx              # imm = 0x100
	movq	%r15, %rdi
	callq	memset
	leaq	-368(%rbp), %rax
	movq	%rax, -304(%rbp)
	leaq	16(%rbp), %rax
	movq	%rax, -312(%rbp)
	movl	$48, -316(%rbp)
	movl	$8, -320(%rbp)
	leaq	-320(%rbp), %rdx
	movq	%r15, %rdi
	movq	%r14, %rsi
	callq	vsnprintf
	movl	yPos, %r8d
	cmpb	$0, -288(%rbp)
	je	.LBB40_7
# BB#1:                                 # %.preheader2.lr.ph
	movq	bootInfo+72, %rdx
	movl	bootInfo+80, %esi
	leal	8(%r8), %r9d
	xorl	%r10d, %r10d
	.align	16, 0x90
.LBB40_2:                               # %.preheader2
                                        # =>This Loop Header: Depth=1
                                        #     Child Loop BB40_3 Depth 2
                                        #       Child Loop BB40_4 Depth 3
	movl	%r9d, %r11d
	xorl	%ecx, %ecx
	.align	16, 0x90
.LBB40_3:                               # %.preheader
                                        #   Parent Loop BB40_2 Depth=1
                                        # =>  This Loop Header: Depth=2
                                        #       Child Loop BB40_4 Depth 3
	movq	$-403, %rax             # imm = 0xFFFFFFFFFFFFFE6D
	movl	%r11d, %edi
	.align	16, 0x90
.LBB40_4:                               #   Parent Loop BB40_2 Depth=1
                                        #     Parent Loop BB40_3 Depth=2
                                        # =>    This Inner Loop Header: Depth=3
	movsbq	(%r15), %rbx
	imulq	$13, %rbx, %rbx
	movzbl	letters(%rbx,%rax), %ebx
	shrl	%cl, %ebx
	andl	$1, %ebx
	negl	%ebx
	andl	$-572662307, %ebx       # imm = 0xFFFFFFFFDDDDDDDD
	movslq	%edi, %rdi
	movl	%ebx, (%rdx,%rdi,4)
	decq	%rax
	addl	%esi, %edi
	cmpq	$-416, %rax             # imm = 0xFFFFFFFFFFFFFE60
	jne	.LBB40_4
# BB#5:                                 #   in Loop: Header=BB40_3 Depth=2
	incl	%ecx
	addl	$7, %r11d
	cmpl	$8, %ecx
	jne	.LBB40_3
# BB#6:                                 #   in Loop: Header=BB40_2 Depth=1
	addl	$64, %r8d
	leaq	-287(%rbp,%r10), %r15
	addl	$64, %r9d
	cmpb	$0, -287(%rbp,%r10)
	leaq	1(%r10), %r10
	jne	.LBB40_2
.LBB40_7:                               # %._crit_edge
	movl	%r8d, yPos
	addq	$344, %rsp              # imm = 0x158
	popq	%rbx
	popq	%r14
	popq	%r15
	popq	%rbp
	retq
.Lfunc_end40:
	.size	debug_gfx_writeLine, .Lfunc_end40-debug_gfx_writeLine
	.cfi_endproc

	.globl	MemoryHAL_Initialize
	.align	16, 0x90
	.type	MemoryHAL_Initialize,@function
MemoryHAL_Initialize:                   # @MemoryHAL_Initialize
	.cfi_startproc
# BB#0:
	pushq	%rbp
.Ltmp160:
	.cfi_def_cfa_offset 16
.Ltmp161:
	.cfi_offset %rbp, -16
	movq	%rsp, %rbp
.Ltmp162:
	.cfi_def_cfa_register %rbp
	pushq	%rbx
.Ltmp163:
	.cfi_offset %rbx, -24
	movl	$-2147483642, %eax      # imm = 0xFFFFFFFF80000006
	xorl	%ecx, %ecx
	#APP
	cpuid

	#NO_APP
	movl	%ebx, ebx
	movl	%edx, edx
	movl	pos, %eax
	movq	%rax, %rcx
	addq	$64, %rcx
	cmpq	$5242881, %rcx          # imm = 0x500001
	jb	.LBB41_2
# BB#1:
	#APP
	cli
	hlt
	#NO_APP
	movl	pos, %eax
.LBB41_2:                               # %CreateBootstrapSpinlock.exit
	movl	%eax, %esi
	leaq	mem_pool(%rsi), %rdi
	addl	$64, %eax
	movl	%eax, pos
	movq	$0, mem_pool+56(%rsi)
	movq	$0, mem_pool+48(%rsi)
	movq	$0, mem_pool+40(%rsi)
	movq	$0, mem_pool+32(%rsi)
	movq	$0, mem_pool+24(%rsi)
	movq	$0, mem_pool+16(%rsi)
	movq	$0, mem_pool+8(%rsi)
	movq	$0, mem_pool(%rsi)
	movl	$-2147483642, %eax      # imm = 0xFFFFFFFF80000006
	xorl	%ecx, %ecx
	#APP
	cpuid

	#NO_APP
	movl	%ebx, ebx
	movl	%edx, edx
	movq	$0, mem_pool+56(%rsi)
	movq	$0, mem_pool+48(%rsi)
	movq	$0, mem_pool+40(%rsi)
	movq	$0, mem_pool+32(%rsi)
	movq	$0, mem_pool+24(%rsi)
	movq	$0, mem_pool+16(%rsi)
	movq	$0, mem_pool+8(%rsi)
	movq	$0, mem_pool(%rsi)
	movq	%rdi, vmem_lock
	movq	$VirtMemMan_HandlePageFault, intHandlers+112
	movq	$ShadowInterruptHandler, idt_handler_calls+112
	movq	vmem_lock, %rax
	testq	%rax, %rax
	je	.LBB41_4
# BB#3:
	xorl	%ecx, %ecx
	#APP
	mfence
	pushfq
	cli
	popq	%rcx
	shlq	$16, %rcx
	movw	$1, %cx
	lock
	xaddw	%cx, 2(%rax)
	cmpw	%cx, (%rax)
	je	.Ltmp164
.Ltmp165:
	btq	$25, %rcx
	jae	.Ltmp166
.Ltmp166:
	pause
	cmpw	%cx, (%rax)
	jne	.Ltmp165
.Ltmp164:
	btq	$25, %rcx
	jae	.Ltmp167
	orw	$1, 4(%rax)
.Ltmp167:
	cli

	#NO_APP
.LBB41_4:                               # %LockSpinlock.exit
	movq	coreLocalSpace, %rcx
	xorl	%eax, %eax
	cmpq	$8, %rcx
	jb	.LBB41_6
# BB#5:
	movl	$8192, %eax             # imm = 0x2000
	subq	%rcx, %rax
	addq	virtMemData, %rax
	addq	$-8, %rcx
	movq	%rcx, coreLocalSpace
.LBB41_6:                               # %VirtMemMan_AllocCoreLocalData.exit
	movq	vmem_lock, %rcx
	testq	%rcx, %rcx
	je	.LBB41_8
# BB#7:
	#APP
	mfence
	lock
	incw	(%rcx)
	btw	$0, 4(%rcx)
	jae	.Ltmp168
	sti
	movw	$0, 4(%rcx)
.Ltmp168:

	#NO_APP
.LBB41_8:                               # %UnlockSpinlock.exit
	movq	%rax, curPageTable
	popq	%rbx
	popq	%rbp
	retq
.Lfunc_end41:
	.size	MemoryHAL_Initialize, .Lfunc_end41-MemoryHAL_Initialize
	.cfi_endproc

	.globl	AllocateAPLSMemory
	.align	16, 0x90
	.type	AllocateAPLSMemory,@function
AllocateAPLSMemory:                     # @AllocateAPLSMemory
	.cfi_startproc
# BB#0:
	pushq	%rbp
.Ltmp169:
	.cfi_def_cfa_offset 16
.Ltmp170:
	.cfi_offset %rbp, -16
	movq	%rsp, %rbp
.Ltmp171:
	.cfi_def_cfa_register %rbp
	movq	vmem_lock, %rax
	testq	%rax, %rax
	je	.LBB42_2
# BB#1:
	xorl	%ecx, %ecx
	#APP
	mfence
	pushfq
	cli
	popq	%rcx
	shlq	$16, %rcx
	movw	$1, %cx
	lock
	xaddw	%cx, 2(%rax)
	cmpw	%cx, (%rax)
	je	.Ltmp172
.Ltmp173:
	btq	$25, %rcx
	jae	.Ltmp174
.Ltmp174:
	pause
	cmpw	%cx, (%rax)
	jne	.Ltmp173
.Ltmp172:
	btq	$25, %rcx
	jae	.Ltmp175
	orw	$1, 4(%rax)
.Ltmp175:
	cli

	#NO_APP
.LBB42_2:                               # %LockSpinlock.exit
	movq	coreLocalSpace, %rcx
	xorl	%eax, %eax
	movq	%rcx, %rdx
	subq	%rdi, %rdx
	jb	.LBB42_5
# BB#3:                                 # %LockSpinlock.exit
	testq	%rcx, %rcx
	je	.LBB42_5
# BB#4:
	movl	$8192, %eax             # imm = 0x2000
	subq	%rcx, %rax
	addq	virtMemData, %rax
	movq	%rdx, coreLocalSpace
.LBB42_5:                               # %VirtMemMan_AllocCoreLocalData.exit
	movq	vmem_lock, %rcx
	testq	%rcx, %rcx
	je	.LBB42_7
# BB#6:
	#APP
	mfence
	lock
	incw	(%rcx)
	btw	$0, 4(%rcx)
	jae	.Ltmp176
	sti
	movw	$0, 4(%rcx)
.Ltmp176:

	#NO_APP
.LBB42_7:                               # %UnlockSpinlock.exit
	popq	%rbp
	retq
.Lfunc_end42:
	.size	AllocateAPLSMemory, .Lfunc_end42-AllocateAPLSMemory
	.cfi_endproc

	.globl	GetVirtualAddress
	.align	16, 0x90
	.type	GetVirtualAddress,@function
GetVirtualAddress:                      # @GetVirtualAddress
	.cfi_startproc
# BB#0:
	pushq	%rbp
.Ltmp177:
	.cfi_def_cfa_offset 16
.Ltmp178:
	.cfi_offset %rbp, -16
	movq	%rsp, %rbp
.Ltmp179:
	.cfi_def_cfa_register %rbp
	movabsq	$-17179869184, %rcx     # imm = 0xFFFFFFFC00000000
	movabsq	$4294967296, %rdx       # imm = 0x100000000
	xorl	%eax, %eax
	cmpl	$2, %edi
	je	.LBB43_4
# BB#1:
	cmpl	$1, %edi
	jne	.LBB43_2
# BB#6:
	xorl	%eax, %eax
	cmpq	%rdx, %rsi
	jae	.LBB43_9
# BB#7:
	movabsq	$-21474836480, %rax     # imm = 0xFFFFFFFB00000000
	addq	%rax, %rsi
	jmp	.LBB43_8
.LBB43_4:
	xorl	%eax, %eax
	cmpq	%rdx, %rsi
	jae	.LBB43_9
# BB#5:
	addq	%rcx, %rsi
.LBB43_8:                               # %VirtMemMan_GetVirtualAddress.exit
	movq	%rsi, %rax
	jmp	.LBB43_9
.LBB43_2:
	testl	%edi, %edi
	jne	.LBB43_9
# BB#3:
	cmpq	%rdx, %rsi
	leaq	(%rcx,%rsi), %rcx
	sbbq	%rax, %rax
	andl	$1, %eax
	shlq	$33, %rax
	addq	%rcx, %rax
	popq	%rbp
	retq
.LBB43_9:                               # %VirtMemMan_GetVirtualAddress.exit
	popq	%rbp
	retq
.Lfunc_end43:
	.size	GetVirtualAddress, .Lfunc_end43-GetVirtualAddress
	.cfi_endproc

	.globl	GetPhysicalAddress
	.align	16, 0x90
	.type	GetPhysicalAddress,@function
GetPhysicalAddress:                     # @GetPhysicalAddress
	.cfi_startproc
# BB#0:
	pushq	%rbp
.Ltmp180:
	.cfi_def_cfa_offset 16
.Ltmp181:
	.cfi_offset %rbp, -16
	movq	%rsp, %rbp
.Ltmp182:
	.cfi_def_cfa_register %rbp
	movq	%rdi, %rax
	movq	virtMemData, %rcx
	movq	8(%rcx), %rcx
	movq	curPageTable, %rcx
	movq	(%rcx), %rcx
	movq	(%rcx), %rdi
	movq	%rax, %rsi
	popq	%rbp
	jmp	VirtMemMan_GetPhysicalAddress # TAILCALL
.Lfunc_end44:
	.size	GetPhysicalAddress, .Lfunc_end44-GetPhysicalAddress
	.cfi_endproc

	.globl	GetPhysicalAddressPageTable
	.align	16, 0x90
	.type	GetPhysicalAddressPageTable,@function
GetPhysicalAddressPageTable:            # @GetPhysicalAddressPageTable
	.cfi_startproc
# BB#0:
	pushq	%rbp
.Ltmp183:
	.cfi_def_cfa_offset 16
.Ltmp184:
	.cfi_offset %rbp, -16
	movq	%rsp, %rbp
.Ltmp185:
	.cfi_def_cfa_register %rbp
	movq	(%rdi), %rdi
	popq	%rbp
	jmp	VirtMemMan_GetPhysicalAddress # TAILCALL
.Lfunc_end45:
	.size	GetPhysicalAddressPageTable, .Lfunc_end45-GetPhysicalAddressPageTable
	.cfi_endproc

	.globl	GetActiveVirtualMemoryInstance
	.align	16, 0x90
	.type	GetActiveVirtualMemoryInstance,@function
GetActiveVirtualMemoryInstance:         # @GetActiveVirtualMemoryInstance
	.cfi_startproc
# BB#0:
	pushq	%rbp
.Ltmp186:
	.cfi_def_cfa_offset 16
.Ltmp187:
	.cfi_offset %rbp, -16
	movq	%rsp, %rbp
.Ltmp188:
	.cfi_def_cfa_register %rbp
	movq	virtMemData, %rax
	movq	8(%rax), %rax
	movq	curPageTable, %rax
	movq	(%rax), %rax
	popq	%rbp
	retq
.Lfunc_end46:
	.size	GetActiveVirtualMemoryInstance, .Lfunc_end46-GetActiveVirtualMemoryInstance
	.cfi_endproc

	.globl	CreateVirtualMemoryInstance
	.align	16, 0x90
	.type	CreateVirtualMemoryInstance,@function
CreateVirtualMemoryInstance:            # @CreateVirtualMemoryInstance
	.cfi_startproc
# BB#0:
	pushq	%rbp
.Ltmp189:
	.cfi_def_cfa_offset 16
.Ltmp190:
	.cfi_offset %rbp, -16
	movq	%rsp, %rbp
.Ltmp191:
	.cfi_def_cfa_register %rbp
	pushq	%r15
	pushq	%r14
	pushq	%r12
	pushq	%rbx
.Ltmp192:
	.cfi_offset %rbx, -48
.Ltmp193:
	.cfi_offset %r12, -40
.Ltmp194:
	.cfi_offset %r14, -32
.Ltmp195:
	.cfi_offset %r15, -24
	movq	%rdi, %r14
	movl	$64, %r12d
	testq	%r14, %r14
	je	.LBB47_5
# BB#1:
	movq	vmem_lock, %rax
	testq	%rax, %rax
	je	.LBB47_3
# BB#2:
	xorl	%ecx, %ecx
	#APP
	mfence
	pushfq
	cli
	popq	%rcx
	shlq	$16, %rcx
	movw	$1, %cx
	lock
	xaddw	%cx, 2(%rax)
	cmpw	%cx, (%rax)
	je	.Ltmp196
.Ltmp197:
	btq	$25, %rcx
	jae	.Ltmp198
.Ltmp198:
	pause
	cmpw	%cx, (%rax)
	jne	.Ltmp197
.Ltmp196:
	btq	$25, %rcx
	jae	.Ltmp199
	orw	$1, 4(%rax)
.Ltmp199:
	cli

	#NO_APP
.LBB47_3:                               # %LockSpinlock.exit
	callq	MemMan_Alloc
	movq	%rax, %rcx
	shrq	$32, %rcx
	sete	%cl
	movzbl	%cl, %ebx
	shlq	$33, %rbx
	addq	%rax, %rbx
	movabsq	$-17179869184, %rax     # imm = 0xFFFFFFFC00000000
	leaq	(%rax,%rbx), %r15
	xorl	%r12d, %r12d
	xorl	%esi, %esi
	movl	$4088, %edx             # imm = 0xFF8
	movq	%r15, %rdi
	callq	memset
	movq	kernel_pdpt_paddr, %rax
	orq	$3, %rax
	movabsq	$-17179865096, %rcx     # imm = 0xFFFFFFFC00000FF8
	movq	%rax, (%rcx,%rbx)
	movq	%r15, (%r14)
	movq	vmem_lock, %rax
	testq	%rax, %rax
	je	.LBB47_5
# BB#4:
	#APP
	mfence
	lock
	incw	(%rax)
	btw	$0, 4(%rax)
	jae	.Ltmp200
	sti
	movw	$0, 4(%rax)
.Ltmp200:

	#NO_APP
.LBB47_5:                               # %UnlockSpinlock.exit
	movl	%r12d, %eax
	popq	%rbx
	popq	%r12
	popq	%r14
	popq	%r15
	popq	%rbp
	retq
.Lfunc_end47:
	.size	CreateVirtualMemoryInstance, .Lfunc_end47-CreateVirtualMemoryInstance
	.cfi_endproc

	.globl	FreeVirtualMemoryInstance
	.align	16, 0x90
	.type	FreeVirtualMemoryInstance,@function
FreeVirtualMemoryInstance:              # @FreeVirtualMemoryInstance
	.cfi_startproc
# BB#0:
	pushq	%rbp
.Ltmp201:
	.cfi_def_cfa_offset 16
.Ltmp202:
	.cfi_offset %rbp, -16
	movq	%rsp, %rbp
.Ltmp203:
	.cfi_def_cfa_register %rbp
	pushq	%rbx
	pushq	%rax
.Ltmp204:
	.cfi_offset %rbx, -24
	testq	%rdi, %rdi
	je	.LBB48_6
# BB#1:
	movq	(%rdi), %rax
	movl	%eax, %ecx
	andl	$4095, %ecx             # imm = 0xFFF
	testq	%rax, %rax
	je	.LBB48_6
# BB#2:
	testq	%rcx, %rcx
	jne	.LBB48_6
# BB#3:
	movq	vmem_lock, %rcx
	testq	%rcx, %rcx
	je	.LBB48_7
# BB#4:                                 # %LockSpinlock.exit
	xorl	%eax, %eax
	#APP
	mfence
	pushfq
	cli
	popq	%rax
	shlq	$16, %rax
	movw	$1, %ax
	lock
	xaddw	%ax, 2(%rcx)
	cmpw	%ax, (%rcx)
	je	.Ltmp205
.Ltmp206:
	btq	$25, %rax
	jae	.Ltmp207
.Ltmp207:
	pause
	cmpw	%ax, (%rcx)
	jne	.Ltmp206
.Ltmp205:
	btq	$25, %rax
	jae	.Ltmp208
	orw	$1, 4(%rcx)
.Ltmp208:
	cli

	#NO_APP
	movq	(%rdi), %rdi
	movq	vmem_lock, %rbx
	callq	VirtMemMan_FreePageTable
	testq	%rbx, %rbx
	je	.LBB48_6
# BB#5:
	#APP
	mfence
	lock
	incw	(%rbx)
	btw	$0, 4(%rbx)
	jae	.Ltmp209
	sti
	movw	$0, 4(%rbx)
.Ltmp209:

	#NO_APP
.LBB48_6:                               # %UnlockSpinlock.exit
	addq	$8, %rsp
	popq	%rbx
	popq	%rbp
	retq
.LBB48_7:                               # %LockSpinlock.exit.thread
	movq	%rax, %rdi
	addq	$8, %rsp
	popq	%rbx
	popq	%rbp
	jmp	VirtMemMan_FreePageTable # TAILCALL
.Lfunc_end48:
	.size	FreeVirtualMemoryInstance, .Lfunc_end48-FreeVirtualMemoryInstance
	.cfi_endproc

	.globl	SetActiveVirtualMemoryInstance
	.align	16, 0x90
	.type	SetActiveVirtualMemoryInstance,@function
SetActiveVirtualMemoryInstance:         # @SetActiveVirtualMemoryInstance
	.cfi_startproc
# BB#0:
	pushq	%rbp
.Ltmp210:
	.cfi_def_cfa_offset 16
.Ltmp211:
	.cfi_offset %rbp, -16
	movq	%rsp, %rbp
.Ltmp212:
	.cfi_def_cfa_register %rbp
	pushq	%rbx
	pushq	%rax
.Ltmp213:
	.cfi_offset %rbx, -24
	movq	curPageTable, %rax
	movq	%rdi, (%rax)
	movq	vmem_lock, %rax
	testq	%rax, %rax
	je	.LBB49_2
# BB#1:
	xorl	%ecx, %ecx
	#APP
	mfence
	pushfq
	cli
	popq	%rcx
	shlq	$16, %rcx
	movw	$1, %cx
	lock
	xaddw	%cx, 2(%rax)
	cmpw	%cx, (%rax)
	je	.Ltmp214
.Ltmp215:
	btq	$25, %rcx
	jae	.Ltmp216
.Ltmp216:
	pause
	cmpw	%cx, (%rax)
	jne	.Ltmp215
.Ltmp214:
	btq	$25, %rcx
	jae	.Ltmp217
	orw	$1, 4(%rax)
.Ltmp217:
	cli

	#NO_APP
.LBB49_2:                               # %LockSpinlock.exit
	movq	(%rdi), %rbx
	movq	virtMemData, %rax
	movq	8(%rax), %r8
	testq	%rbx, %rbx
	jne	.LBB49_4
# BB#3:
	#APP
	cli
	hlt
	#NO_APP
	movq	virtMemData, %rax
.LBB49_4:                               # %.preheader.i
	movabsq	$-8589930496, %rdx      # imm = 0xFFFFFFFE00001000
	cmpq	%rdx, %r8
	sete	%sil
	cmpq	%rbx, %r8
	sete	%dl
	orb	%sil, %dl
	xorl	%esi, %esi
	.align	16, 0x90
.LBB49_5:                               # =>This Inner Loop Header: Depth=1
	cmpl	$510, %esi              # imm = 0x1FE
	je	.LBB49_9
# BB#6:                                 #   in Loop: Header=BB49_5 Depth=1
	testb	%dl, %dl
	jne	.LBB49_8
# BB#7:                                 #   in Loop: Header=BB49_5 Depth=1
	movq	(%rax), %rdi
	movq	(%rdi,%rsi,8), %rdi
	movq	%rdi, (%r8,%rsi,8)
.LBB49_8:                               #   in Loop: Header=BB49_5 Depth=1
	movq	(%rbx,%rsi,8), %rdi
	movq	(%rax), %rcx
	movq	%rdi, (%rcx,%rsi,8)
.LBB49_9:                               #   in Loop: Header=BB49_5 Depth=1
	incq	%rsi
	cmpq	$512, %rsi              # imm = 0x200
	jne	.LBB49_5
# BB#10:                                # %VirtMemMan_SetCurrent.exit
	movq	8(%rax), %rdi
	movq	(%rax), %rsi
	callq	VirtMemMan_GetPhysicalAddress
	#APP
	movq	%rax, %cr3
	#NO_APP
	movq	virtMemData, %rax
	movq	%rbx, 8(%rax)
	movq	vmem_lock, %rax
	testq	%rax, %rax
	je	.LBB49_12
# BB#11:
	#APP
	mfence
	lock
	incw	(%rax)
	btw	$0, 4(%rax)
	jae	.Ltmp218
	sti
	movw	$0, 4(%rax)
.Ltmp218:

	#NO_APP
.LBB49_12:                              # %UnlockSpinlock.exit
	movq	curPageTable, %rax
	movq	(%rax), %rax
	addq	$8, %rsp
	popq	%rbx
	popq	%rbp
	retq
.Lfunc_end49:
	.size	SetActiveVirtualMemoryInstance, .Lfunc_end49-SetActiveVirtualMemoryInstance
	.cfi_endproc

	.globl	MapPage
	.align	16, 0x90
	.type	MapPage,@function
MapPage:                                # @MapPage
	.cfi_startproc
# BB#0:
	pushq	%rbp
.Ltmp219:
	.cfi_def_cfa_offset 16
.Ltmp220:
	.cfi_offset %rbp, -16
	movq	%rsp, %rbp
.Ltmp221:
	.cfi_def_cfa_register %rbp
	pushq	%r15
	pushq	%r14
	pushq	%r13
	pushq	%r12
	pushq	%rbx
	subq	$56, %rsp
.Ltmp222:
	.cfi_offset %rbx, -56
.Ltmp223:
	.cfi_offset %r12, -48
.Ltmp224:
	.cfi_offset %r13, -40
.Ltmp225:
	.cfi_offset %r14, -32
.Ltmp226:
	.cfi_offset %r15, -24
	movq	%rdx, %rbx
	movl	$64, %r15d
	testq	%rbx, %rbx
	je	.LBB50_10
# BB#1:
	movl	$8, %r15d
	cmpl	$2, %r8d
	ja	.LBB50_10
# BB#2:                                 # %switch.lookup
	movl	%r9d, -60(%rbp)         # 4-byte Spill
	movq	%rdi, -56(%rbp)         # 8-byte Spill
	movq	%rsi, -72(%rbp)         # 8-byte Spill
	movq	%rcx, -48(%rbp)         # 8-byte Spill
	movl	16(%rbp), %r15d
	movslq	%r8d, %rax
	movl	%r8d, -76(%rbp)         # 4-byte Spill
	movq	vmem_lock, %rcx
	testq	%rcx, %rcx
	je	.LBB50_4
# BB#3:
	xorl	%edx, %edx
	#APP
	mfence
	pushfq
	cli
	popq	%rdx
	shlq	$16, %rdx
	movw	$1, %dx
	lock
	xaddw	%dx, 2(%rcx)
	cmpw	%dx, (%rcx)
	je	.Ltmp227
.Ltmp228:
	btq	$25, %rdx
	jae	.Ltmp229
.Ltmp229:
	pause
	cmpw	%dx, (%rcx)
	jne	.Ltmp228
.Ltmp227:
	btq	$25, %rdx
	jae	.Ltmp230
	orw	$1, 4(%rcx)
.Ltmp230:
	cli

	#NO_APP
.LBB50_4:                               # %LockSpinlock.exit
	movl	.Lswitch.table.1(,%rax,4), %eax
	movl	%eax, -80(%rbp)         # 4-byte Spill
	movl	%r15d, %r12d
	shrl	%r12d
	movl	%r12d, %r13d
	andl	$1, %r13d
	andl	$2, %r12d
	movl	%r15d, %r14d
	shrl	$3, %r14d
	andl	$1, %r14d
	movl	$56, %edi
	callq	kmalloc
	movl	-80(%rbp), %r9d         # 4-byte Reload
	testq	%rax, %rax
	jne	.LBB50_8
# BB#5:
	movl	%r9d, %esi
	movl	pos, %ecx
	movq	%rcx, %rax
	addq	$56, %rax
	cmpq	$5242881, %rax          # imm = 0x500001
	jb	.LBB50_7
# BB#6:
	#APP
	cli
	hlt
	#NO_APP
	movl	pos, %ecx
.LBB50_7:                               # %bootstrap_malloc.exit.loopexit
	movl	%ecx, %edx
	leaq	mem_pool(%rdx), %rax
	addl	$56, %ecx
	movl	%ecx, pos
	movq	$0, mem_pool+48(%rdx)
	movq	$0, mem_pool+40(%rdx)
	movq	$0, mem_pool+32(%rdx)
	movq	$0, mem_pool+24(%rdx)
	movq	$0, mem_pool+16(%rdx)
	movq	$0, mem_pool+8(%rdx)
	movq	$0, mem_pool(%rdx)
	movl	%esi, %r9d
.LBB50_8:                               # %bootstrap_malloc.exit
	movl	-76(%rbp), %ecx         # 4-byte Reload
	movl	%ecx, (%rax)
	movq	%rbx, 8(%rax)
	movq	-72(%rbp), %rdx         # 8-byte Reload
	movq	%rdx, 16(%rax)
	movq	-48(%rbp), %rcx         # 8-byte Reload
	movq	%rcx, 24(%rax)
	movl	%r15d, 32(%rax)
	movq	%rbx, %rsi
	movl	-60(%rbp), %ebx         # 4-byte Reload
	movl	%ebx, 36(%rax)
	movq	$0, 40(%rax)
	movq	-56(%rbp), %r8          # 8-byte Reload
	movq	8(%r8), %rdi
	movq	%rdi, 48(%rax)
	xorl	%r15d, %r15d
	testb	$4, %bl
	cmovnel	%r15d, %r12d
	orl	%r13d, %r12d
	movq	(%r8), %rdi
	movl	%r14d, 8(%rsp)
	movl	%r12d, (%rsp)
	movl	$1, %r8d
	callq	VirtMemMan_Map
	movq	vmem_lock, %rax
	testq	%rax, %rax
	je	.LBB50_10
# BB#9:
	#APP
	mfence
	lock
	incw	(%rax)
	btw	$0, 4(%rax)
	jae	.Ltmp231
	sti
	movw	$0, 4(%rax)
.Ltmp231:

	#NO_APP
.LBB50_10:                              # %UnlockSpinlock.exit
	movl	%r15d, %eax
	addq	$56, %rsp
	popq	%rbx
	popq	%r12
	popq	%r13
	popq	%r14
	popq	%r15
	popq	%rbp
	retq
.Lfunc_end50:
	.size	MapPage, .Lfunc_end50-MapPage
	.cfi_endproc

	.globl	UnmapPage
	.align	16, 0x90
	.type	UnmapPage,@function
UnmapPage:                              # @UnmapPage
	.cfi_startproc
# BB#0:
	pushq	%rbp
.Ltmp232:
	.cfi_def_cfa_offset 16
.Ltmp233:
	.cfi_offset %rbp, -16
	movq	%rsp, %rbp
.Ltmp234:
	.cfi_def_cfa_register %rbp
	movq	vmem_lock, %rax
	testq	%rax, %rax
	je	.LBB51_2
# BB#1:
	xorl	%ecx, %ecx
	#APP
	mfence
	pushfq
	cli
	popq	%rcx
	shlq	$16, %rcx
	movw	$1, %cx
	lock
	xaddw	%cx, 2(%rax)
	cmpw	%cx, (%rax)
	je	.Ltmp235
.Ltmp236:
	btq	$25, %rcx
	jae	.Ltmp237
.Ltmp237:
	pause
	cmpw	%cx, (%rax)
	jne	.Ltmp236
.Ltmp235:
	btq	$25, %rcx
	jae	.Ltmp238
	orw	$1, 4(%rax)
.Ltmp238:
	cli

	#NO_APP
.LBB51_2:                               # %LockSpinlock.exit
	movq	(%rdi), %rdi
	callq	VirtMemMan_Unmap
	movq	vmem_lock, %rax
	testq	%rax, %rax
	je	.LBB51_4
# BB#3:
	#APP
	mfence
	lock
	incw	(%rax)
	btw	$0, 4(%rax)
	jae	.Ltmp239
	sti
	movw	$0, 4(%rax)
.Ltmp239:

	#NO_APP
.LBB51_4:                               # %UnlockSpinlock.exit
	xorl	%eax, %eax
	popq	%rbp
	retq
.Lfunc_end51:
	.size	UnmapPage, .Lfunc_end51-UnmapPage
	.cfi_endproc

	.globl	GetMemoryAllocationTypeTop
	.align	16, 0x90
	.type	GetMemoryAllocationTypeTop,@function
GetMemoryAllocationTypeTop:             # @GetMemoryAllocationTypeTop
	.cfi_startproc
# BB#0:
	pushq	%rbp
.Ltmp240:
	.cfi_def_cfa_offset 16
.Ltmp241:
	.cfi_offset %rbp, -16
	movq	%rsp, %rbp
.Ltmp242:
	.cfi_def_cfa_register %rbp
	movabsq	$549755813888, %rcx     # imm = 0x8000000000
	testl	%edi, %edi
	movabsq	$280925220896768, %rdx  # imm = 0xFF8000000000
	movabsq	$140737488355328, %rax  # imm = 0x800000000000
	cmoveq	%rdx, %rax
	testb	$8, %sil
	je	.LBB52_11
# BB#1:
	cmpl	$1, %edi
	jle	.LBB52_2
# BB#5:
	cmpl	$2, %edi
	je	.LBB52_9
# BB#6:
	cmpl	$256, %edi              # imm = 0x100
	je	.LBB52_10
# BB#7:
	cmpl	$64, %edi
	jne	.LBB52_10
# BB#8:
	movabsq	$10995116277760, %rax   # imm = 0xA0000000000
	jmp	.LBB52_11
.LBB52_2:
	testl	%edi, %edi
	movq	%rcx, %rax
	je	.LBB52_11
# BB#3:
	cmpl	$1, %edi
	jne	.LBB52_10
# BB#4:
	movabsq	$1099511627776, %rax    # imm = 0x10000000000
	jmp	.LBB52_11
.LBB52_10:
	xorl	%eax, %eax
	jmp	.LBB52_11
.LBB52_9:
	movabsq	$1649267441664, %rax    # imm = 0x18000000000
.LBB52_11:                              # %VirtMemMan_GetAllocTypeTop.exit
	addq	%rcx, %rax
	popq	%rbp
	retq
.Lfunc_end52:
	.size	GetMemoryAllocationTypeTop, .Lfunc_end52-GetMemoryAllocationTypeTop
	.cfi_endproc

	.globl	GetMemoryAllocationTypeBase
	.align	16, 0x90
	.type	GetMemoryAllocationTypeBase,@function
GetMemoryAllocationTypeBase:            # @GetMemoryAllocationTypeBase
	.cfi_startproc
# BB#0:
	pushq	%rbp
.Ltmp243:
	.cfi_def_cfa_offset 16
.Ltmp244:
	.cfi_offset %rbp, -16
	movq	%rsp, %rbp
.Ltmp245:
	.cfi_def_cfa_register %rbp
	testl	%edi, %edi
	movabsq	$280925220896768, %rcx  # imm = 0xFF8000000000
	movabsq	$140737488355328, %rax  # imm = 0x800000000000
	cmoveq	%rcx, %rax
	testb	$8, %sil
	je	.LBB53_12
# BB#1:
	cmpl	$1, %edi
	jle	.LBB53_2
# BB#4:
	cmpl	$2, %edi
	je	.LBB53_10
# BB#5:
	cmpl	$256, %edi              # imm = 0x100
	je	.LBB53_11
# BB#6:
	cmpl	$64, %edi
	jne	.LBB53_11
# BB#7:
	movabsq	$10995116277760, %rax   # imm = 0xA0000000000
	popq	%rbp
	retq
.LBB53_2:
	testl	%edi, %edi
	jne	.LBB53_8
# BB#3:
	movabsq	$549755813888, %rax     # imm = 0x8000000000
	popq	%rbp
	retq
.LBB53_10:
	movabsq	$1649267441664, %rax    # imm = 0x18000000000
	popq	%rbp
	retq
.LBB53_8:
	cmpl	$1, %edi
	jne	.LBB53_11
# BB#9:
	movabsq	$1099511627776, %rax    # imm = 0x10000000000
	popq	%rbp
	retq
.LBB53_11:
	xorl	%eax, %eax
.LBB53_12:                              # %VirtMemMan_GetAllocTypeBase.exit
	popq	%rbp
	retq
.Lfunc_end53:
	.size	GetMemoryAllocationTypeBase, .Lfunc_end53-GetMemoryAllocationTypeBase
	.cfi_endproc

	.globl	FindFreeVirtualAddress
	.align	16, 0x90
	.type	FindFreeVirtualAddress,@function
FindFreeVirtualAddress:                 # @FindFreeVirtualAddress
	.cfi_startproc
# BB#0:
	pushq	%rbp
.Ltmp246:
	.cfi_def_cfa_offset 16
.Ltmp247:
	.cfi_offset %rbp, -16
	movq	%rsp, %rbp
.Ltmp248:
	.cfi_def_cfa_register %rbp
	pushq	%rbx
	pushq	%rax
.Ltmp249:
	.cfi_offset %rbx, -24
	movq	%rsi, %rbx
	movl	$64, %eax
	testq	%rbx, %rbx
	je	.LBB54_7
# BB#1:
	movq	vmem_lock, %rax
	testq	%rax, %rax
	je	.LBB54_3
# BB#2:
	xorl	%esi, %esi
	#APP
	mfence
	pushfq
	cli
	popq	%rsi
	shlq	$16, %rsi
	movw	$1, %si
	lock
	xaddw	%si, 2(%rax)
	cmpw	%si, (%rax)
	je	.Ltmp250
.Ltmp251:
	btq	$25, %rsi
	jae	.Ltmp252
.Ltmp252:
	pause
	cmpw	%si, (%rax)
	jne	.Ltmp251
.Ltmp250:
	btq	$25, %rsi
	jae	.Ltmp253
	orw	$1, 4(%rax)
.Ltmp253:
	cli

	#NO_APP
.LBB54_3:                               # %LockSpinlock.exit
	shrl	$3, %r8d
	andl	$1, %r8d
	movq	(%rdi), %rdi
	movq	%rdx, %rsi
	movl	%ecx, %edx
	movl	%r8d, %ecx
	callq	VirtMemMan_FindFreeAddress
	testq	%rax, %rax
	je	.LBB54_5
# BB#4:
	movq	%rax, (%rbx)
.LBB54_5:
	movq	vmem_lock, %rcx
	xorl	%eax, %eax
	testq	%rcx, %rcx
	je	.LBB54_7
# BB#6:
	#APP
	mfence
	lock
	incw	(%rcx)
	btw	$0, 4(%rcx)
	jae	.Ltmp254
	sti
	movw	$0, 4(%rcx)
.Ltmp254:

	#NO_APP
.LBB54_7:                               # %UnlockSpinlock.exit
	addq	$8, %rsp
	popq	%rbx
	popq	%rbp
	retq
.Lfunc_end54:
	.size	FindFreeVirtualAddress, .Lfunc_end54-FindFreeVirtualAddress
	.cfi_endproc

	.globl	ForkTable
	.align	16, 0x90
	.type	ForkTable,@function
ForkTable:                              # @ForkTable
	.cfi_startproc
# BB#0:
	pushq	%rbp
.Ltmp255:
	.cfi_def_cfa_offset 16
.Ltmp256:
	.cfi_offset %rbp, -16
	movq	%rsp, %rbp
.Ltmp257:
	.cfi_def_cfa_register %rbp
	pushq	%r15
	pushq	%r14
	pushq	%r13
	pushq	%r12
	pushq	%rbx
	pushq	%rax
.Ltmp258:
	.cfi_offset %rbx, -56
.Ltmp259:
	.cfi_offset %r12, -48
.Ltmp260:
	.cfi_offset %r13, -40
.Ltmp261:
	.cfi_offset %r14, -32
.Ltmp262:
	.cfi_offset %r15, -24
	movq	%rsi, %r14
	movq	%rdi, %r12
	movl	$64, %r15d
	testq	%r14, %r14
	je	.LBB55_9
# BB#1:                                 # %CreateVirtualMemoryInstance.exit
	movq	vmem_lock, %rax
	testq	%rax, %rax
	je	.LBB55_3
# BB#2:
	xorl	%ecx, %ecx
	#APP
	mfence
	pushfq
	cli
	popq	%rcx
	shlq	$16, %rcx
	movw	$1, %cx
	lock
	xaddw	%cx, 2(%rax)
	cmpw	%cx, (%rax)
	je	.Ltmp263
.Ltmp264:
	btq	$25, %rcx
	jae	.Ltmp265
.Ltmp265:
	pause
	cmpw	%cx, (%rax)
	jne	.Ltmp264
.Ltmp263:
	btq	$25, %rcx
	jae	.Ltmp266
	orw	$1, 4(%rax)
.Ltmp266:
	cli

	#NO_APP
.LBB55_3:                               # %LockSpinlock.exit
	callq	MemMan_Alloc
	movq	%rax, %rcx
	shrq	$32, %rcx
	sete	%cl
	movzbl	%cl, %ebx
	shlq	$33, %rbx
	addq	%rax, %rbx
	movabsq	$-17179869184, %rax     # imm = 0xFFFFFFFC00000000
	leaq	(%rax,%rbx), %r13
	xorl	%esi, %esi
	movl	$4088, %edx             # imm = 0xFF8
	movq	%r13, %rdi
	callq	memset
	movq	kernel_pdpt_paddr, %rax
	orq	$3, %rax
	movabsq	$-17179865096, %rcx     # imm = 0xFFFFFFFC00000FF8
	movq	%rax, (%rcx,%rbx)
	movq	%r13, (%r14)
	movq	vmem_lock, %rax
	testq	%rax, %rax
	je	.LBB55_5
# BB#4:
	#APP
	mfence
	lock
	incw	(%rax)
	btw	$0, 4(%rax)
	jae	.Ltmp267
	sti
	movw	$0, 4(%rax)
.Ltmp267:

	#NO_APP
.LBB55_5:                               # %UnlockSpinlock.exit
	testq	%r12, %r12
	je	.LBB55_9
# BB#6:
	movq	8(%r12), %r13
	xorl	%r15d, %r15d
	testq	%r13, %r13
	jne	.LBB55_7
.LBB55_9:                               # %.loopexit
	movl	%r15d, %eax
	addq	$8, %rsp
	popq	%rbx
	popq	%r12
	popq	%r13
	popq	%r14
	popq	%r15
	popq	%rbp
	retq
	.align	16, 0x90
.LBB55_8:                               #   in Loop: Header=BB55_7 Depth=1
	movq	8(%r13), %r15
	movq	(%r12), %rdi
	movq	%r15, %rsi
	callq	VirtMemMan_GetPhysicalAddress
	movq	24(%r13), %rcx
	movl	(%r13), %r8d
	orl	$4, %ebx
	movl	32(%r13), %edx
	movl	%edx, (%rsp)
	movq	%r14, %rdi
	movq	%rax, %rsi
	movq	%r15, %rdx
	movl	%ebx, %r9d
	callq	MapPage
.LBB55_7:                               # %.backedge
                                        # =>This Inner Loop Header: Depth=1
	movl	36(%r13), %ebx
	testb	$1, %bl
	jne	.LBB55_7
	jmp	.LBB55_8
.Lfunc_end55:
	.size	ForkTable, .Lfunc_end55-ForkTable
	.cfi_endproc

	.globl	AllocatePhysicalPage
	.align	16, 0x90
	.type	AllocatePhysicalPage,@function
AllocatePhysicalPage:                   # @AllocatePhysicalPage
	.cfi_startproc
# BB#0:
	pushq	%rbp
.Ltmp268:
	.cfi_def_cfa_offset 16
.Ltmp269:
	.cfi_offset %rbp, -16
	movq	%rsp, %rbp
.Ltmp270:
	.cfi_def_cfa_register %rbp
	pushq	%rbx
	pushq	%rax
.Ltmp271:
	.cfi_offset %rbx, -24
	movq	vmem_lock, %rax
	testq	%rax, %rax
	je	.LBB56_4
# BB#1:                                 # %LockSpinlock.exit
	xorl	%ecx, %ecx
	#APP
	mfence
	pushfq
	cli
	popq	%rcx
	shlq	$16, %rcx
	movw	$1, %cx
	lock
	xaddw	%cx, 2(%rax)
	cmpw	%cx, (%rax)
	je	.Ltmp272
.Ltmp273:
	btq	$25, %rcx
	jae	.Ltmp274
.Ltmp274:
	pause
	cmpw	%cx, (%rax)
	jne	.Ltmp273
.Ltmp272:
	btq	$25, %rcx
	jae	.Ltmp275
	orw	$1, 4(%rax)
.Ltmp275:
	cli

	#NO_APP
	movq	vmem_lock, %rbx
	callq	MemMan_Alloc
	testq	%rbx, %rbx
	je	.LBB56_3
# BB#2:
	#APP
	mfence
	lock
	incw	(%rbx)
	btw	$0, 4(%rbx)
	jae	.Ltmp276
	sti
	movw	$0, 4(%rbx)
.Ltmp276:

	#NO_APP
.LBB56_3:                               # %UnlockSpinlock.exit
	addq	$8, %rsp
	popq	%rbx
	popq	%rbp
	retq
.LBB56_4:                               # %LockSpinlock.exit.thread
	addq	$8, %rsp
	popq	%rbx
	popq	%rbp
	jmp	MemMan_Alloc            # TAILCALL
.Lfunc_end56:
	.size	AllocatePhysicalPage, .Lfunc_end56-AllocatePhysicalPage
	.cfi_endproc

	.globl	FreePhysicalPage
	.align	16, 0x90
	.type	FreePhysicalPage,@function
FreePhysicalPage:                       # @FreePhysicalPage
	.cfi_startproc
# BB#0:
	pushq	%rbp
.Ltmp277:
	.cfi_def_cfa_offset 16
.Ltmp278:
	.cfi_offset %rbp, -16
	movq	%rsp, %rbp
.Ltmp279:
	.cfi_def_cfa_register %rbp
	movq	vmem_lock, %rcx
	xorl	%eax, %eax
	testq	%rcx, %rcx
	je	.LBB57_2
# BB#1:
	xorl	%eax, %eax
	#APP
	mfence
	pushfq
	cli
	popq	%rax
	shlq	$16, %rax
	movw	$1, %ax
	lock
	xaddw	%ax, 2(%rcx)
	cmpw	%ax, (%rcx)
	je	.Ltmp280
.Ltmp281:
	btq	$25, %rax
	jae	.Ltmp282
.Ltmp282:
	pause
	cmpw	%ax, (%rcx)
	jne	.Ltmp281
.Ltmp280:
	btq	$25, %rax
	jae	.Ltmp283
	orw	$1, 4(%rcx)
.Ltmp283:
	cli

	#NO_APP
	movq	vmem_lock, %rax
.LBB57_2:                               # %LockSpinlock.exit
	movq	%rdi, %rcx
	shrq	$12, %rcx
	movl	$-2, %edx
	roll	%cl, %edx
	shrq	$17, %rdi
	movq	KB4_Blocks_Bitmap, %rcx
	andl	%edx, (%rcx,%rdi,4)
	incq	freePageCount
	movq	%rdi, lastNonFullPage
	testq	%rax, %rax
	je	.LBB57_4
# BB#3:
	#APP
	mfence
	lock
	incw	(%rax)
	btw	$0, 4(%rax)
	jae	.Ltmp284
	sti
	movw	$0, 4(%rax)
.Ltmp284:

	#NO_APP
.LBB57_4:                               # %UnlockSpinlock.exit
	popq	%rbp
	retq
.Lfunc_end57:
	.size	FreePhysicalPage, .Lfunc_end57-FreePhysicalPage
	.cfi_endproc

	.globl	AllocatePhysicalPageCont
	.align	16, 0x90
	.type	AllocatePhysicalPageCont,@function
AllocatePhysicalPageCont:               # @AllocatePhysicalPageCont
	.cfi_startproc
# BB#0:
	pushq	%rbp
.Ltmp285:
	.cfi_def_cfa_offset 16
.Ltmp286:
	.cfi_offset %rbp, -16
	movq	%rsp, %rbp
.Ltmp287:
	.cfi_def_cfa_register %rbp
	pushq	%rbx
	pushq	%rax
.Ltmp288:
	.cfi_offset %rbx, -24
	movq	vmem_lock, %rax
	testq	%rax, %rax
	je	.LBB58_4
# BB#1:                                 # %LockSpinlock.exit
	xorl	%ecx, %ecx
	#APP
	mfence
	pushfq
	cli
	popq	%rcx
	shlq	$16, %rcx
	movw	$1, %cx
	lock
	xaddw	%cx, 2(%rax)
	cmpw	%cx, (%rax)
	je	.Ltmp289
.Ltmp290:
	btq	$25, %rcx
	jae	.Ltmp291
.Ltmp291:
	pause
	cmpw	%cx, (%rax)
	jne	.Ltmp290
.Ltmp289:
	btq	$25, %rcx
	jae	.Ltmp292
	orw	$1, 4(%rax)
.Ltmp292:
	cli

	#NO_APP
	movq	vmem_lock, %rbx
	callq	MemMan_Alloc4KiBPageCont
	testq	%rbx, %rbx
	je	.LBB58_3
# BB#2:
	#APP
	mfence
	lock
	incw	(%rbx)
	btw	$0, 4(%rbx)
	jae	.Ltmp293
	sti
	movw	$0, 4(%rbx)
.Ltmp293:

	#NO_APP
.LBB58_3:                               # %UnlockSpinlock.exit
	addq	$8, %rsp
	popq	%rbx
	popq	%rbp
	retq
.LBB58_4:                               # %LockSpinlock.exit.thread
	addq	$8, %rsp
	popq	%rbx
	popq	%rbp
	jmp	MemMan_Alloc4KiBPageCont # TAILCALL
.Lfunc_end58:
	.size	AllocatePhysicalPageCont, .Lfunc_end58-AllocatePhysicalPageCont
	.cfi_endproc

	.globl	FreePhysicalPageCont
	.align	16, 0x90
	.type	FreePhysicalPageCont,@function
FreePhysicalPageCont:                   # @FreePhysicalPageCont
	.cfi_startproc
# BB#0:
	pushq	%rbp
.Ltmp294:
	.cfi_def_cfa_offset 16
.Ltmp295:
	.cfi_offset %rbp, -16
	movq	%rsp, %rbp
.Ltmp296:
	.cfi_def_cfa_register %rbp
	pushq	%rbx
	pushq	%rax
.Ltmp297:
	.cfi_offset %rbx, -24
	movq	vmem_lock, %rax
	testq	%rax, %rax
	je	.LBB59_4
# BB#1:                                 # %LockSpinlock.exit
	xorl	%ecx, %ecx
	#APP
	mfence
	pushfq
	cli
	popq	%rcx
	shlq	$16, %rcx
	movw	$1, %cx
	lock
	xaddw	%cx, 2(%rax)
	cmpw	%cx, (%rax)
	je	.Ltmp298
.Ltmp299:
	btq	$25, %rcx
	jae	.Ltmp300
.Ltmp300:
	pause
	cmpw	%cx, (%rax)
	jne	.Ltmp299
.Ltmp298:
	btq	$25, %rcx
	jae	.Ltmp301
	orw	$1, 4(%rax)
.Ltmp301:
	cli

	#NO_APP
	movq	vmem_lock, %rbx
	callq	MemMan_FreeCont
	testq	%rbx, %rbx
	je	.LBB59_3
# BB#2:
	#APP
	mfence
	lock
	incw	(%rbx)
	btw	$0, 4(%rbx)
	jae	.Ltmp302
	sti
	movw	$0, 4(%rbx)
.Ltmp302:

	#NO_APP
.LBB59_3:                               # %UnlockSpinlock.exit
	addq	$8, %rsp
	popq	%rbx
	popq	%rbp
	retq
.LBB59_4:                               # %LockSpinlock.exit.thread
	addq	$8, %rsp
	popq	%rbx
	popq	%rbp
	jmp	MemMan_FreeCont         # TAILCALL
.Lfunc_end59:
	.size	FreePhysicalPageCont, .Lfunc_end59-FreePhysicalPageCont
	.cfi_endproc

	.globl	GetCoreCount
	.align	16, 0x90
	.type	GetCoreCount,@function
GetCoreCount:                           # @GetCoreCount
	.cfi_startproc
# BB#0:
	pushq	%rbp
.Ltmp303:
	.cfi_def_cfa_offset 16
.Ltmp304:
	.cfi_offset %rbp, -16
	movq	%rsp, %rbp
.Ltmp305:
	.cfi_def_cfa_register %rbp
	movl	smp_coreCount, %eax
	popq	%rbp
	retq
.Lfunc_end60:
	.size	GetCoreCount, .Lfunc_end60-GetCoreCount
	.cfi_endproc

	.globl	HandlePageFault
	.align	16, 0x90
	.type	HandlePageFault,@function
HandlePageFault:                        # @HandlePageFault
	.cfi_startproc
# BB#0:
	pushq	%rbp
.Ltmp306:
	.cfi_def_cfa_offset 16
.Ltmp307:
	.cfi_offset %rbp, -16
	movq	%rsp, %rbp
.Ltmp308:
	.cfi_def_cfa_register %rbp
	pushq	%r14
	pushq	%rbx
	subq	$16, %rsp
.Ltmp309:
	.cfi_offset %rbx, -32
.Ltmp310:
	.cfi_offset %r14, -24
	movq	%rsi, %r14
	movq	%rdi, %rbx
	cmpq	$0, root
	je	.LBB61_1
# BB#2:
	movq	$0, -24(%rbp)
	movq	coreState, %rax
	movq	(%rax), %rcx
	movq	152(%rcx), %rax
	testq	%rax, %rax
	je	.LBB61_3
# BB#4:                                 # %LockSpinlock.exit.i
	xorl	%edx, %edx
	#APP
	mfence
	pushfq
	cli
	popq	%rdx
	shlq	$16, %rdx
	movw	$1, %dx
	lock
	xaddw	%dx, 2(%rax)
	cmpw	%dx, (%rax)
	je	.Ltmp311
.Ltmp312:
	btq	$25, %rdx
	jae	.Ltmp313
.Ltmp313:
	pause
	cmpw	%dx, (%rax)
	jne	.Ltmp312
.Ltmp311:
	btq	$25, %rdx
	jae	.Ltmp314
	orw	$1, 4(%rax)
.Ltmp314:
	cli

	#NO_APP
	movq	8(%rcx), %rax
	movq	152(%rcx), %rcx
	testq	%rcx, %rcx
	je	.LBB61_6
# BB#5:
	#APP
	mfence
	lock
	incw	(%rcx)
	btw	$0, 4(%rcx)
	jae	.Ltmp315
	sti
	movw	$0, 4(%rcx)
.Ltmp315:

	#NO_APP
	jmp	.LBB61_6
	.align	16, 0x90
.LBB61_1:                               # %.preheader
                                        # =>This Inner Loop Header: Depth=1
	movq	$.L.str.29, %rdi
	xorl	%eax, %eax
	callq	debug_gfx_writeLine
	jmp	.LBB61_1
.LBB61_3:                               # %LockSpinlock.exit.i.thread
	movq	8(%rcx), %rax
.LBB61_6:                               # %GetCurrentProcessUID.exit
	movq	(%rax), %rdi
	leaq	-24(%rbp), %rsi
	callq	GetProcessReference
	movq	-24(%rbp), %rcx
	testq	%rcx, %rcx
	sete	%sil
	movq	272(%rcx), %rax
	movq	8(%rax), %rax
	testq	%rax, %rax
	sete	%dl
	orb	%sil, %dl
	movzbl	%dl, %edx
	cmpl	$1, %edx
	jne	.LBB61_8
# BB#7:
	movq	%r14, %rax
	#APP
	cli
	hlt
	#NO_APP
	movq	272(%rcx), %rax
	movq	8(%rax), %rax
	.align	16, 0x90
.LBB61_8:                               # %.preheader6
                                        # =>This Inner Loop Header: Depth=1
	movq	8(%rax), %rcx
	cmpq	%rbx, %rcx
	ja	.LBB61_14
# BB#9:                                 #   in Loop: Header=BB61_8 Depth=1
	addq	24(%rax), %rcx
	cmpq	%rbx, %rcx
	jae	.LBB61_10
.LBB61_14:                              #   in Loop: Header=BB61_8 Depth=1
	movq	48(%rax), %rax
	testq	%rax, %rax
	jne	.LBB61_8
	jmp	.LBB61_15
.LBB61_10:
	movl	36(%rax), %eax
	testb	$-128, %al
	jne	.LBB61_11
# BB#12:
	testb	$64, %al
	je	.LBB61_15
# BB#13:
	#APP
	cli
	hlt
	#NO_APP
	jmp	.LBB61_15
.LBB61_11:
	xorl	%edi, %edi
	callq	TaskSwitch
.LBB61_15:                              # %.loopexit
	addq	$16, %rsp
	popq	%rbx
	popq	%r14
	popq	%rbp
	retq
.Lfunc_end61:
	.size	HandlePageFault, .Lfunc_end61-HandlePageFault
	.cfi_endproc

	.globl	CheckAddressPermissions
	.align	16, 0x90
	.type	CheckAddressPermissions,@function
CheckAddressPermissions:                # @CheckAddressPermissions
	.cfi_startproc
# BB#0:
	pushq	%rbp
.Ltmp316:
	.cfi_def_cfa_offset 16
.Ltmp317:
	.cfi_offset %rbp, -16
	movq	%rsp, %rbp
.Ltmp318:
	.cfi_def_cfa_register %rbp
	pushq	%r15
	pushq	%r14
	pushq	%rbx
	subq	$24, %rsp
.Ltmp319:
	.cfi_offset %rbx, -40
.Ltmp320:
	.cfi_offset %r14, -32
.Ltmp321:
	.cfi_offset %r15, -24
	movq	%rcx, %r14
	movq	%rdx, %r15
	movl	$0, -28(%rbp)
	movl	$0, -32(%rbp)
	movl	$0, -36(%rbp)
	movq	vmem_lock, %rax
	testq	%rax, %rax
	je	.LBB62_1
# BB#2:                                 # %LockSpinlock.exit
	xorl	%ecx, %ecx
	#APP
	mfence
	pushfq
	cli
	popq	%rcx
	shlq	$16, %rcx
	movw	$1, %cx
	lock
	xaddw	%cx, 2(%rax)
	cmpw	%cx, (%rax)
	je	.Ltmp322
.Ltmp323:
	btq	$25, %rcx
	jae	.Ltmp324
.Ltmp324:
	pause
	cmpw	%cx, (%rax)
	jne	.Ltmp323
.Ltmp322:
	btq	$25, %rcx
	jae	.Ltmp325
	orw	$1, 4(%rax)
.Ltmp325:
	cli

	#NO_APP
	movq	vmem_lock, %rbx
	movq	(%rdi), %rdi
	leaq	-28(%rbp), %rdx
	leaq	-32(%rbp), %rcx
	leaq	-36(%rbp), %r8
	callq	VirtMemMan_CheckAddressPermissions
	testq	%rbx, %rbx
	je	.LBB62_4
# BB#3:
	#APP
	mfence
	lock
	incw	(%rbx)
	btw	$0, 4(%rbx)
	jae	.Ltmp326
	sti
	movw	$0, 4(%rbx)
.Ltmp326:

	#NO_APP
	jmp	.LBB62_4
.LBB62_1:                               # %LockSpinlock.exit.thread
	movq	(%rdi), %rdi
	leaq	-28(%rbp), %rdx
	leaq	-32(%rbp), %rcx
	leaq	-36(%rbp), %r8
	callq	VirtMemMan_CheckAddressPermissions
.LBB62_4:                               # %UnlockSpinlock.exit
	movslq	-28(%rbp), %rdx
	movl	-32(%rbp), %eax
	movl	%eax, %esi
	orl	%edx, %esi
	movl	-36(%rbp), %ecx
	orl	%ecx, %esi
	je	.LBB62_5
# BB#9:
	xorl	%esi, %esi
	cmpl	$2, %edx
	ja	.LBB62_11
# BB#10:                                # %switch.lookup
	movl	.Lswitch.table.1(,%rdx,4), %esi
.LBB62_11:
	testq	%r15, %r15
	je	.LBB62_13
# BB#12:
	movl	%esi, (%r15)
.LBB62_13:
	testq	%r14, %r14
	je	.LBB62_15
# BB#14:
	leal	(%rax,%rax), %edx
	andl	$1, %eax
	shll	$3, %ecx
	andl	$4, %edx
	incl	%eax
	andl	$8, %ecx
	orl	%edx, %eax
	orl	%ecx, %eax
	movl	%eax, (%r14)
	jmp	.LBB62_15
.LBB62_5:
	testq	%r15, %r15
	je	.LBB62_7
# BB#6:
	movl	$0, (%r15)
.LBB62_7:
	testq	%r14, %r14
	je	.LBB62_15
# BB#8:
	movl	$0, (%r14)
.LBB62_15:
	addq	$24, %rsp
	popq	%rbx
	popq	%r14
	popq	%r15
	popq	%rbp
	retq
.Lfunc_end62:
	.size	CheckAddressPermissions, .Lfunc_end62-CheckAddressPermissions
	.cfi_endproc

	.globl	CreateSpinlock
	.align	16, 0x90
	.type	CreateSpinlock,@function
CreateSpinlock:                         # @CreateSpinlock
	.cfi_startproc
# BB#0:                                 # %memset.exit
	pushq	%rbp
.Ltmp327:
	.cfi_def_cfa_offset 16
.Ltmp328:
	.cfi_offset %rbp, -16
	movq	%rsp, %rbp
.Ltmp329:
	.cfi_def_cfa_register %rbp
	pushq	%rbx
	pushq	%rax
.Ltmp330:
	.cfi_offset %rbx, -24
	movl	$-2147483642, %eax      # imm = 0xFFFFFFFF80000006
	xorl	%ecx, %ecx
	#APP
	cpuid

	#NO_APP
	movl	%ebx, ebx
	movl	%edx, edx
	movl	$64, %edi
	callq	kmalloc
	movq	%rax, %rsi
	movl	$-2147483642, %eax      # imm = 0xFFFFFFFF80000006
	xorl	%ecx, %ecx
	#APP
	cpuid

	#NO_APP
	movl	%ebx, ebx
	movl	%edx, edx
	movq	$0, 56(%rsi)
	movq	$0, 48(%rsi)
	movq	$0, 40(%rsi)
	movq	$0, 32(%rsi)
	movq	$0, 24(%rsi)
	movq	$0, 16(%rsi)
	movq	$0, 8(%rsi)
	movq	$0, (%rsi)
	movq	%rsi, %rax
	addq	$8, %rsp
	popq	%rbx
	popq	%rbp
	retq
.Lfunc_end63:
	.size	CreateSpinlock, .Lfunc_end63-CreateSpinlock
	.cfi_endproc

	.globl	CreateBootstrapSpinlock
	.align	16, 0x90
	.type	CreateBootstrapSpinlock,@function
CreateBootstrapSpinlock:                # @CreateBootstrapSpinlock
	.cfi_startproc
# BB#0:
	pushq	%rbp
.Ltmp331:
	.cfi_def_cfa_offset 16
.Ltmp332:
	.cfi_offset %rbp, -16
	movq	%rsp, %rbp
.Ltmp333:
	.cfi_def_cfa_register %rbp
	pushq	%rbx
.Ltmp334:
	.cfi_offset %rbx, -24
	movl	$-2147483642, %eax      # imm = 0xFFFFFFFF80000006
	xorl	%ecx, %ecx
	#APP
	cpuid

	#NO_APP
	movl	%ebx, ebx
	movl	%edx, edx
	movl	pos, %eax
	movq	%rax, %rcx
	addq	$64, %rcx
	cmpq	$5242881, %rcx          # imm = 0x500001
	jb	.LBB64_2
# BB#1:
	#APP
	cli
	hlt
	#NO_APP
	movl	pos, %eax
.LBB64_2:                               # %bootstrap_malloc.exit
	movl	%eax, %edi
	leaq	mem_pool(%rdi), %rsi
	addl	$64, %eax
	movl	%eax, pos
	movq	$0, mem_pool+56(%rdi)
	movq	$0, mem_pool+48(%rdi)
	movq	$0, mem_pool+40(%rdi)
	movq	$0, mem_pool+32(%rdi)
	movq	$0, mem_pool+24(%rdi)
	movq	$0, mem_pool+16(%rdi)
	movq	$0, mem_pool+8(%rdi)
	movq	$0, mem_pool(%rdi)
	movl	$-2147483642, %eax      # imm = 0xFFFFFFFF80000006
	xorl	%ecx, %ecx
	#APP
	cpuid

	#NO_APP
	movl	%ebx, ebx
	movl	%edx, edx
	movq	$0, mem_pool+56(%rdi)
	movq	$0, mem_pool+48(%rdi)
	movq	$0, mem_pool+40(%rdi)
	movq	$0, mem_pool+32(%rdi)
	movq	$0, mem_pool+24(%rdi)
	movq	$0, mem_pool+16(%rdi)
	movq	$0, mem_pool+8(%rdi)
	movq	$0, mem_pool(%rdi)
	movq	%rsi, %rax
	popq	%rbx
	popq	%rbp
	retq
.Lfunc_end64:
	.size	CreateBootstrapSpinlock, .Lfunc_end64-CreateBootstrapSpinlock
	.cfi_endproc

	.globl	LockSpinlock
	.align	16, 0x90
	.type	LockSpinlock,@function
LockSpinlock:                           # @LockSpinlock
	.cfi_startproc
# BB#0:
	pushq	%rbp
.Ltmp335:
	.cfi_def_cfa_offset 16
.Ltmp336:
	.cfi_offset %rbp, -16
	movq	%rsp, %rbp
.Ltmp337:
	.cfi_def_cfa_register %rbp
	testq	%rdi, %rdi
	je	.LBB65_1
# BB#2:
	xorl	%eax, %eax
	#APP
	mfence
	pushfq
	cli
	popq	%rax
	shlq	$16, %rax
	movw	$1, %ax
	lock
	xaddw	%ax, 2(%rdi)
	cmpw	%ax, (%rdi)
	je	.Ltmp338
.Ltmp339:
	btq	$25, %rax
	jae	.Ltmp340
.Ltmp340:
	pause
	cmpw	%ax, (%rdi)
	jne	.Ltmp339
.Ltmp338:
	btq	$25, %rax
	jae	.Ltmp341
	orw	$1, 4(%rdi)
.Ltmp341:
	cli

	#NO_APP
	movb	$1, %al
	jmp	.LBB65_3
.LBB65_1:
	xorl	%eax, %eax
.LBB65_3:
	movzbl	%al, %eax
	popq	%rbp
	retq
.Lfunc_end65:
	.size	LockSpinlock, .Lfunc_end65-LockSpinlock
	.cfi_endproc

	.globl	GetSpinlockContenderCount
	.align	16, 0x90
	.type	GetSpinlockContenderCount,@function
GetSpinlockContenderCount:              # @GetSpinlockContenderCount
	.cfi_startproc
# BB#0:
	pushq	%rbp
.Ltmp342:
	.cfi_def_cfa_offset 16
.Ltmp343:
	.cfi_offset %rbp, -16
	movq	%rsp, %rbp
.Ltmp344:
	.cfi_def_cfa_register %rbp
	#APP
	movq	(%rdi), %rax

	#NO_APP
	movzwl	%ax, %ecx
	shrq	$16, %rax
	movzwl	%ax, %eax
	subq	%rcx, %rax
	popq	%rbp
	retq
.Lfunc_end66:
	.size	GetSpinlockContenderCount, .Lfunc_end66-GetSpinlockContenderCount
	.cfi_endproc

	.globl	UnlockSpinlock
	.align	16, 0x90
	.type	UnlockSpinlock,@function
UnlockSpinlock:                         # @UnlockSpinlock
	.cfi_startproc
# BB#0:
	pushq	%rbp
.Ltmp345:
	.cfi_def_cfa_offset 16
.Ltmp346:
	.cfi_offset %rbp, -16
	movq	%rsp, %rbp
.Ltmp347:
	.cfi_def_cfa_register %rbp
	testq	%rdi, %rdi
	je	.LBB67_1
# BB#2:
	#APP
	mfence
	lock
	incw	(%rdi)
	btw	$0, 4(%rdi)
	jae	.Ltmp348
	sti
	movw	$0, 4(%rdi)
.Ltmp348:

	#NO_APP
	movb	$1, %al
	jmp	.LBB67_3
.LBB67_1:
	xorl	%eax, %eax
.LBB67_3:
	movzbl	%al, %eax
	popq	%rbp
	retq
.Lfunc_end67:
	.size	UnlockSpinlock, .Lfunc_end67-UnlockSpinlock
	.cfi_endproc

	.globl	FreeSpinlock
	.align	16, 0x90
	.type	FreeSpinlock,@function
FreeSpinlock:                           # @FreeSpinlock
	.cfi_startproc
# BB#0:
	pushq	%rbp
.Ltmp349:
	.cfi_def_cfa_offset 16
.Ltmp350:
	.cfi_offset %rbp, -16
	movq	%rsp, %rbp
.Ltmp351:
	.cfi_def_cfa_register %rbp
	testq	%rdi, %rdi
	je	.LBB68_12
# BB#1:
	movq	alloc_sync, %rax
	testq	%rax, %rax
	je	.LBB68_3
# BB#2:
	xorl	%ecx, %ecx
	#APP
	mfence
	pushfq
	cli
	popq	%rcx
	shlq	$16, %rcx
	movw	$1, %cx
	lock
	xaddw	%cx, 2(%rax)
	cmpw	%cx, (%rax)
	je	.Ltmp352
.Ltmp353:
	btq	$25, %rcx
	jae	.Ltmp354
.Ltmp354:
	pause
	cmpw	%cx, (%rax)
	jne	.Ltmp353
.Ltmp352:
	btq	$25, %rcx
	jae	.Ltmp355
	orw	$1, 4(%rax)
.Ltmp355:
	cli

	#NO_APP
.LBB68_3:                               # %LockSpinlock.exit.i
	movabsq	$-2401053089206453570, %rax # imm = 0xDEADBEEFCAFEBABE
	cmpq	%rax, -24(%rdi)
	je	.LBB68_5
# BB#4:
	movq	%rdi, %rax
	#APP
	addq	$40, %rsp
	popq	%rbx
	cli
	hlt
	#NO_APP
.LBB68_5:                               # %.preheader.i
	movq	allocation_info, %rdx
	.align	16, 0x90
.LBB68_6:                               # =>This Inner Loop Header: Depth=1
	movq	%rdx, %rax
	movq	(%rax), %rcx
	movq	16(%rax), %rdx
	testq	%rdx, %rdx
	je	.LBB68_10
# BB#7:                                 #   in Loop: Header=BB68_6 Depth=1
	movl	%ecx, %esi
	andl	$1, %esi
	cmpq	%rdi, %rcx
	jne	.LBB68_6
# BB#8:                                 #   in Loop: Header=BB68_6 Depth=1
	testq	%rsi, %rsi
	je	.LBB68_6
# BB#9:
	movq	%rdi, %rcx
.LBB68_10:                              # %.loopexit.i
	andq	$-2, %rcx
	movq	%rcx, (%rax)
	movq	alloc_sync, %rax
	testq	%rax, %rax
	je	.LBB68_12
# BB#11:
	#APP
	mfence
	lock
	incw	(%rax)
	btw	$0, 4(%rax)
	jae	.Ltmp356
	sti
	movw	$0, 4(%rax)
.Ltmp356:

	#NO_APP
.LBB68_12:                              # %kfree.exit
	popq	%rbp
	retq
.Lfunc_end68:
	.size	FreeSpinlock, .Lfunc_end68-FreeSpinlock
	.cfi_endproc

	.globl	SwitchAndInitializeThread
	.align	16, 0x90
	.type	SwitchAndInitializeThread,@function
SwitchAndInitializeThread:              # @SwitchAndInitializeThread
	.cfi_startproc
# BB#0:
	pushq	%rbp
.Ltmp357:
	.cfi_def_cfa_offset 16
.Ltmp358:
	.cfi_offset %rbp, -16
	movq	%rsp, %rbp
.Ltmp359:
	.cfi_def_cfa_register %rbp
	pushq	%rbx
.Ltmp360:
	.cfi_offset %rbx, -24
	movq	16(%rdi), %rax
	movq	64(%rdi), %rbx
	#APP
	movq	%rbx, %rsp
	pushq	%rax
	movq	$0, %rax
	movq	$0, %rbx
	movq	$0, %rcx
	movq	$0, %rdx
	movq	$0, %rsi
	movq	$0, %rdi
	movq	$0, %r8
	movq	$0, %r9
	movq	$0, %r10
	movq	$0, %r11
	movq	$0, %r12
	movq	$0, %r13
	movq	$0, %r14
	movq	$0, %r15
	sti
	retq
	#NO_APP
	popq	%rbx
	popq	%rbp
	retq
.Lfunc_end69:
	.size	SwitchAndInitializeThread, .Lfunc_end69-SwitchAndInitializeThread
	.cfi_endproc

	.globl	SavePreviousThread
	.align	16, 0x90
	.type	SavePreviousThread,@function
SavePreviousThread:                     # @SavePreviousThread
	.cfi_startproc
# BB#0:
	pushq	%rbp
.Ltmp361:
	.cfi_def_cfa_offset 16
.Ltmp362:
	.cfi_offset %rbp, -16
	movq	%rsp, %rbp
.Ltmp363:
	.cfi_def_cfa_register %rbp
	testq	%rdi, %rdi
	je	.LBB70_5
# BB#1:
	movq	regs_saved, %rax
	movq	152(%rdi), %rcx
	testq	%rcx, %rcx
	je	.LBB70_2
# BB#3:                                 # %LockSpinlock.exit
	xorl	%edx, %edx
	#APP
	mfence
	pushfq
	cli
	popq	%rdx
	shlq	$16, %rdx
	movw	$1, %dx
	lock
	xaddw	%dx, 2(%rcx)
	cmpw	%dx, (%rcx)
	je	.Ltmp364
.Ltmp365:
	btq	$25, %rdx
	jae	.Ltmp366
.Ltmp366:
	pause
	cmpw	%dx, (%rcx)
	jne	.Ltmp365
.Ltmp364:
	btq	$25, %rdx
	jae	.Ltmp367
	orw	$1, 4(%rcx)
.Ltmp367:
	cli

	#NO_APP
	movq	152(%rdi), %rcx
	movq	(%rax), %rax
	movq	%rax, 80(%rdi)
	testq	%rcx, %rcx
	je	.LBB70_5
# BB#4:
	#APP
	mfence
	lock
	incw	(%rcx)
	btw	$0, 4(%rcx)
	jae	.Ltmp368
	sti
	movw	$0, 4(%rcx)
.Ltmp368:

	#NO_APP
.LBB70_5:                               # %UnlockSpinlock.exit
	popq	%rbp
	retq
.LBB70_2:                               # %LockSpinlock.exit.thread
	movq	(%rax), %rax
	movq	%rax, 80(%rdi)
	popq	%rbp
	retq
.Lfunc_end70:
	.size	SavePreviousThread, .Lfunc_end70-SavePreviousThread
	.cfi_endproc

	.globl	SwitchToThread
	.align	16, 0x90
	.type	SwitchToThread,@function
SwitchToThread:                         # @SwitchToThread
	.cfi_startproc
# BB#0:
	pushq	%rbp
.Ltmp369:
	.cfi_def_cfa_offset 16
.Ltmp370:
	.cfi_offset %rbp, -16
	movq	%rsp, %rbp
.Ltmp371:
	.cfi_def_cfa_register %rbp
	movq	152(%rdi), %rax
	testq	%rax, %rax
	je	.LBB71_1
# BB#2:                                 # %LockSpinlock.exit
	xorl	%ecx, %ecx
	#APP
	mfence
	pushfq
	cli
	popq	%rcx
	shlq	$16, %rcx
	movw	$1, %cx
	lock
	xaddw	%cx, 2(%rax)
	cmpw	%cx, (%rax)
	je	.Ltmp372
.Ltmp373:
	btq	$25, %rcx
	jae	.Ltmp374
.Ltmp374:
	pause
	cmpw	%cx, (%rax)
	jne	.Ltmp373
.Ltmp372:
	btq	$25, %rcx
	jae	.Ltmp375
	orw	$1, 4(%rax)
.Ltmp375:
	cli

	#NO_APP
	movq	80(%rdi), %rax
	movq	152(%rdi), %rcx
	testq	%rcx, %rcx
	je	.LBB71_4
# BB#3:
	#APP
	mfence
	lock
	incw	(%rcx)
	btw	$0, 4(%rcx)
	jae	.Ltmp376
	sti
	movw	$0, 4(%rcx)
.Ltmp376:

	#NO_APP
	jmp	.LBB71_4
.LBB71_1:                               # %LockSpinlock.exit.thread
	movq	80(%rdi), %rax
.LBB71_4:                               # %UnlockSpinlock.exit
	#APP
	movq	%rax, %rsp
	popq	%r15
	popq	%r14
	popq	%r13
	popq	%r12
	popq	%r11
	popq	%r10
	popq	%r9
	popq	%r8
	popq	%rdi
	popq	%rsi
	popq	%rbp
	popq	%rdx
	popq	%rcx
	popq	%rbx
	popq	%rax
	addq	$16, %rsp
	iretq

	#NO_APP
	popq	%rbp
	retq
.Lfunc_end71:
	.size	SwitchToThread, .Lfunc_end71-SwitchToThread
	.cfi_endproc

	.globl	SetFSBase
	.align	16, 0x90
	.type	SetFSBase,@function
SetFSBase:                              # @SetFSBase
	.cfi_startproc
# BB#0:
	pushq	%rbp
.Ltmp377:
	.cfi_def_cfa_offset 16
.Ltmp378:
	.cfi_offset %rbp, -16
	movq	%rsp, %rbp
.Ltmp379:
	.cfi_def_cfa_register %rbp
	movq	%rdi, %rdx
	shrq	$32, %rdx
	movl	$-1073741568, %ecx      # imm = 0xFFFFFFFFC0000100
	movl	%edi, %eax
	#APP
	wrmsr
	#NO_APP
	popq	%rbp
	retq
.Lfunc_end72:
	.size	SetFSBase, .Lfunc_end72-SetFSBase
	.cfi_endproc

	.globl	SetGSBase
	.align	16, 0x90
	.type	SetGSBase,@function
SetGSBase:                              # @SetGSBase
	.cfi_startproc
# BB#0:
	pushq	%rbp
.Ltmp380:
	.cfi_def_cfa_offset 16
.Ltmp381:
	.cfi_offset %rbp, -16
	movq	%rsp, %rbp
.Ltmp382:
	.cfi_def_cfa_register %rbp
	movq	%rdi, %rdx
	shrq	$32, %rdx
	movl	$-1073741567, %ecx      # imm = 0xFFFFFFFFC0000101
	movl	%edi, %eax
	#APP
	wrmsr
	#NO_APP
	popq	%rbp
	retq
.Lfunc_end73:
	.size	SetGSBase, .Lfunc_end73-SetGSBase
	.cfi_endproc

	.globl	GetFSBase
	.align	16, 0x90
	.type	GetFSBase,@function
GetFSBase:                              # @GetFSBase
	.cfi_startproc
# BB#0:
	pushq	%rbp
.Ltmp383:
	.cfi_def_cfa_offset 16
.Ltmp384:
	.cfi_offset %rbp, -16
	movq	%rsp, %rbp
.Ltmp385:
	.cfi_def_cfa_register %rbp
	movl	$-1073741568, %ecx      # imm = 0xFFFFFFFFC0000100
	#APP
	rdmsr
	#NO_APP
	shlq	$32, %rdx
	movl	%eax, %eax
	leaq	(%rax,%rdx), %rax
	popq	%rbp
	retq
.Lfunc_end74:
	.size	GetFSBase, .Lfunc_end74-GetFSBase
	.cfi_endproc

	.globl	GetGSBase
	.align	16, 0x90
	.type	GetGSBase,@function
GetGSBase:                              # @GetGSBase
	.cfi_startproc
# BB#0:
	pushq	%rbp
.Ltmp386:
	.cfi_def_cfa_offset 16
.Ltmp387:
	.cfi_offset %rbp, -16
	movq	%rsp, %rbp
.Ltmp388:
	.cfi_def_cfa_register %rbp
	movl	$-1073741567, %ecx      # imm = 0xFFFFFFFFC0000101
	#APP
	rdmsr
	#NO_APP
	shlq	$32, %rdx
	movl	%eax, %eax
	leaq	(%rax,%rdx), %rax
	popq	%rbp
	retq
.Lfunc_end75:
	.size	GetGSBase, .Lfunc_end75-GetGSBase
	.cfi_endproc

	.globl	PerformArchSpecificTaskSave
	.align	16, 0x90
	.type	PerformArchSpecificTaskSave,@function
PerformArchSpecificTaskSave:            # @PerformArchSpecificTaskSave
	.cfi_startproc
# BB#0:
	pushq	%rbp
.Ltmp389:
	.cfi_def_cfa_offset 16
.Ltmp390:
	.cfi_offset %rbp, -16
	movq	%rsp, %rbp
.Ltmp391:
	.cfi_def_cfa_register %rbp
	movq	136(%rdi), %rsi
	movl	$-1073741568, %ecx      # imm = 0xFFFFFFFFC0000100
	#APP
	rdmsr
	#NO_APP
	shlq	$32, %rdx
	movl	%eax, %eax
	orq	%rdx, %rax
	movq	%rax, (%rsi)
	movl	$-1073741567, %ecx      # imm = 0xFFFFFFFFC0000101
	#APP
	rdmsr
	#NO_APP
	shlq	$32, %rdx
	movl	%eax, %eax
	orq	%rdx, %rax
	movq	%rax, 8(%rsi)
	popq	%rbp
	retq
.Lfunc_end76:
	.size	PerformArchSpecificTaskSave, .Lfunc_end76-PerformArchSpecificTaskSave
	.cfi_endproc

	.globl	PerformArchSpecificTaskSwitch
	.align	16, 0x90
	.type	PerformArchSpecificTaskSwitch,@function
PerformArchSpecificTaskSwitch:          # @PerformArchSpecificTaskSwitch
	.cfi_startproc
# BB#0:
	pushq	%rbp
.Ltmp392:
	.cfi_def_cfa_offset 16
.Ltmp393:
	.cfi_offset %rbp, -16
	movq	%rsp, %rbp
.Ltmp394:
	.cfi_def_cfa_register %rbp
	movq	136(%rdi), %rsi
	movq	(%rsi), %rax
	movq	%rax, %rdx
	shrq	$32, %rdx
	movl	$-1073741568, %ecx      # imm = 0xFFFFFFFFC0000100
	#APP
	wrmsr
	#NO_APP
	movq	8(%rsi), %rax
	movq	%rax, %rdx
	shrq	$32, %rdx
	movl	$-1073741567, %ecx      # imm = 0xFFFFFFFFC0000101
	#APP
	wrmsr
	#NO_APP
	popq	%rbp
	retq
.Lfunc_end77:
	.size	PerformArchSpecificTaskSwitch, .Lfunc_end77-PerformArchSpecificTaskSwitch
	.cfi_endproc

	.globl	RequestInterruptVectorBlock
	.align	16, 0x90
	.type	RequestInterruptVectorBlock,@function
RequestInterruptVectorBlock:            # @RequestInterruptVectorBlock
	.cfi_startproc
# BB#0:
	pushq	%rbp
.Ltmp395:
	.cfi_def_cfa_offset 16
.Ltmp396:
	.cfi_offset %rbp, -16
	movq	%rsp, %rbp
.Ltmp397:
	.cfi_def_cfa_register %rbp
	xorl	%ecx, %ecx
	movq	$-8, %rax
	xorl	%edx, %edx
	.align	16, 0x90
.LBB78_1:                               # =>This Inner Loop Header: Depth=1
	testq	%rcx, %rcx
	jle	.LBB78_4
# BB#2:                                 #   in Loop: Header=BB78_1 Depth=1
	cmpq	$0, intHandlers(%rax,%rcx,8)
	je	.LBB78_4
# BB#3:                                 # %select.mid
                                        #   in Loop: Header=BB78_1 Depth=1
	xorl	%edx, %edx
.LBB78_4:                               #   in Loop: Header=BB78_1 Depth=1
	cmpq	$1, intHandlers(,%rcx,8)
	adcl	$0, %edx
	cmpl	%edi, %edx
	je	.LBB78_6
# BB#5:                                 #   in Loop: Header=BB78_1 Depth=1
	incq	%rcx
	cmpq	$256, %rcx              # imm = 0x100
	jl	.LBB78_1
.LBB78_6:
	leal	(%rdi,%rcx), %eax
	cmpl	$255, %eax
	movl	$-1, %eax
	cmovbel	%ecx, %eax
	popq	%rbp
	retq
.Lfunc_end78:
	.size	RequestInterruptVectorBlock, .Lfunc_end78-RequestInterruptVectorBlock
	.cfi_endproc

	.globl	ShadowInterruptHandler
	.align	16, 0x90
	.type	ShadowInterruptHandler,@function
ShadowInterruptHandler:                 # @ShadowInterruptHandler
	.cfi_startproc
# BB#0:
	pushq	%rbp
.Ltmp398:
	.cfi_def_cfa_offset 16
.Ltmp399:
	.cfi_offset %rbp, -16
	movq	%rsp, %rbp
.Ltmp400:
	.cfi_def_cfa_register %rbp
	pushq	%rbx
	pushq	%rax
.Ltmp401:
	.cfi_offset %rbx, -24
	movq	%rdi, %rbx
	movq	regs_saved, %rdi
	testq	%rdi, %rdi
	jne	.LBB79_8
# BB#1:
	movq	vmem_lock, %rax
	testq	%rax, %rax
	je	.LBB79_3
# BB#2:
	xorl	%ecx, %ecx
	#APP
	mfence
	pushfq
	cli
	popq	%rcx
	shlq	$16, %rcx
	movw	$1, %cx
	lock
	xaddw	%cx, 2(%rax)
	cmpw	%cx, (%rax)
	je	.Ltmp402
.Ltmp403:
	btq	$25, %rcx
	jae	.Ltmp404
.Ltmp404:
	pause
	cmpw	%cx, (%rax)
	jne	.Ltmp403
.Ltmp402:
	btq	$25, %rcx
	jae	.Ltmp405
	orw	$1, 4(%rax)
.Ltmp405:
	cli

	#NO_APP
.LBB79_3:                               # %LockSpinlock.exit.i
	movq	coreLocalSpace, %rax
	xorl	%edi, %edi
	cmpq	$184, %rax
	jb	.LBB79_5
# BB#4:
	movl	$8192, %edi             # imm = 0x2000
	subq	%rax, %rdi
	addq	virtMemData, %rdi
	addq	$-184, %rax
	movq	%rax, coreLocalSpace
.LBB79_5:                               # %VirtMemMan_AllocCoreLocalData.exit.i
	movq	vmem_lock, %rax
	testq	%rax, %rax
	je	.LBB79_7
# BB#6:
	#APP
	mfence
	lock
	incw	(%rax)
	btw	$0, 4(%rax)
	jae	.Ltmp406
	sti
	movw	$0, 4(%rax)
.Ltmp406:

	#NO_APP
.LBB79_7:                               # %AllocateAPLSMemory.exit
	movq	%rdi, regs_saved
.LBB79_8:
	xorl	%eax, %eax
	.align	16, 0x90
.LBB79_9:                               # %.lr.ph.i
                                        # =>This Inner Loop Header: Depth=1
	movb	(%rbx,%rax), %cl
	movb	%cl, (%rdi,%rax)
	movb	1(%rbx,%rax), %cl
	movb	%cl, 1(%rdi,%rax)
	movb	2(%rbx,%rax), %cl
	movb	%cl, 2(%rdi,%rax)
	movb	3(%rbx,%rax), %cl
	movb	%cl, 3(%rdi,%rax)
	movb	4(%rbx,%rax), %cl
	movb	%cl, 4(%rdi,%rax)
	movb	5(%rbx,%rax), %cl
	movb	%cl, 5(%rdi,%rax)
	movb	6(%rbx,%rax), %cl
	movb	%cl, 6(%rdi,%rax)
	movb	7(%rbx,%rax), %cl
	movb	%cl, 7(%rdi,%rax)
	addq	$8, %rax
	cmpq	$184, %rax
	jne	.LBB79_9
# BB#10:                                # %memcpy.exit
	movq	128(%rbx), %rax
	cmpq	$0, intHandlers(,%rax,8)
	je	.LBB79_12
# BB#11:
	movq	intHandlers(,%rax,8), %rcx
	movl	136(%rbx), %esi
	movl	%eax, %edi
	callq	*%rcx
	movq	regs_saved, %rdi
.LBB79_12:                              # %.lr.ph.split.split.i.preheader
	xorl	%esi, %esi
	movl	$184, %edx
	callq	memset
	movq	128(%rbx), %rcx
	cmpq	$32, %rcx
	jb	.LBB79_15
# BB#13:
	movq	%rcx, %rdx
	shrq	$3, %rdx
	andl	$28, %edx
	movq	apic_data, %rax
	movq	(%rax), %rsi
	andl	$31, %ecx
	movl	$1, %edi
	shll	%cl, %edi
	andl	256(%rsi,%rdx,4), %edi
	shrl	%cl, %edi
	testl	%edi, %edi
	je	.LBB79_15
# BB#14:
	movq	(%rax), %rax
	movl	$0, 176(%rax)
.LBB79_15:                              # %APIC_SendEOI.exit
	addq	$8, %rsp
	popq	%rbx
	popq	%rbp
	retq
.Lfunc_end79:
	.size	ShadowInterruptHandler, .Lfunc_end79-ShadowInterruptHandler
	.cfi_endproc

	.globl	HandleInterruptNoReturn
	.align	16, 0x90
	.type	HandleInterruptNoReturn,@function
HandleInterruptNoReturn:                # @HandleInterruptNoReturn
	.cfi_startproc
# BB#0:                                 # %memset.exit
	pushq	%rbp
.Ltmp407:
	.cfi_def_cfa_offset 16
.Ltmp408:
	.cfi_offset %rbp, -16
	movq	%rsp, %rbp
.Ltmp409:
	.cfi_def_cfa_register %rbp
	pushq	%rbx
	pushq	%rax
.Ltmp410:
	.cfi_offset %rbx, -24
	movl	%edi, %ebx
	movq	regs_saved, %rdi
	xorl	%esi, %esi
	movl	$184, %edx
	callq	memset
	cmpl	$32, %ebx
	jb	.LBB80_3
# BB#1:
	movl	%ebx, %edx
	shrl	$3, %edx
	andl	$28, %edx
	movq	apic_data, %rax
	movq	(%rax), %rsi
	andl	$31, %ebx
	movl	$1, %edi
	movb	%bl, %cl
	shll	%cl, %edi
	andl	256(%rsi,%rdx,4), %edi
	movb	%bl, %cl
	shrl	%cl, %edi
	testl	%edi, %edi
	je	.LBB80_3
# BB#2:
	movq	(%rax), %rax
	movl	$0, 176(%rax)
.LBB80_3:                               # %APIC_SendEOI.exit
	addq	$8, %rsp
	popq	%rbx
	popq	%rbp
	retq
.Lfunc_end80:
	.size	HandleInterruptNoReturn, .Lfunc_end80-HandleInterruptNoReturn
	.cfi_endproc

	.globl	RegisterInterruptHandler
	.align	16, 0x90
	.type	RegisterInterruptHandler,@function
RegisterInterruptHandler:               # @RegisterInterruptHandler
	.cfi_startproc
# BB#0:
	pushq	%rbp
.Ltmp411:
	.cfi_def_cfa_offset 16
.Ltmp412:
	.cfi_offset %rbp, -16
	movq	%rsp, %rbp
.Ltmp413:
	.cfi_def_cfa_register %rbp
	movl	$-1, %eax
	cmpl	$255, %edi
	ja	.LBB81_2
# BB#1:
	movl	%edi, %eax
	movq	%rsi, intHandlers(,%rax,8)
	movzbl	%al, %eax
	movq	$ShadowInterruptHandler, idt_handler_calls(,%rax,8)
	xorl	%eax, %eax
.LBB81_2:
	popq	%rbp
	retq
.Lfunc_end81:
	.size	RegisterInterruptHandler, .Lfunc_end81-RegisterInterruptHandler
	.cfi_endproc

	.globl	GetInterruptHandler
	.align	16, 0x90
	.type	GetInterruptHandler,@function
GetInterruptHandler:                    # @GetInterruptHandler
	.cfi_startproc
# BB#0:
	pushq	%rbp
.Ltmp414:
	.cfi_def_cfa_offset 16
.Ltmp415:
	.cfi_offset %rbp, -16
	movq	%rsp, %rbp
.Ltmp416:
	.cfi_def_cfa_register %rbp
	movl	$-1, %eax
	cmpl	$255, %edi
	ja	.LBB82_3
# BB#1:
	xorl	%eax, %eax
	testq	%rsi, %rsi
	je	.LBB82_3
# BB#2:
	movl	%edi, %ecx
	movq	intHandlers(,%rcx,8), %rcx
	movq	%rcx, (%rsi)
.LBB82_3:
	popq	%rbp
	retq
.Lfunc_end82:
	.size	GetInterruptHandler, .Lfunc_end82-GetInterruptHandler
	.cfi_endproc

	.globl	RemoveInterruptHandler
	.align	16, 0x90
	.type	RemoveInterruptHandler,@function
RemoveInterruptHandler:                 # @RemoveInterruptHandler
	.cfi_startproc
# BB#0:
	pushq	%rbp
.Ltmp417:
	.cfi_def_cfa_offset 16
.Ltmp418:
	.cfi_offset %rbp, -16
	movq	%rsp, %rbp
.Ltmp419:
	.cfi_def_cfa_register %rbp
	leal	-32(%rdi), %eax
	cmpl	$223, %eax
	ja	.LBB83_2
# BB#1:
	movl	%edi, %eax
	movq	$0, intHandlers(,%rax,8)
.LBB83_2:
	popq	%rbp
	retq
.Lfunc_end83:
	.size	RemoveInterruptHandler, .Lfunc_end83-RemoveInterruptHandler
	.cfi_endproc

	.globl	SetInterruptEnableMode
	.align	16, 0x90
	.type	SetInterruptEnableMode,@function
SetInterruptEnableMode:                 # @SetInterruptEnableMode
	.cfi_startproc
# BB#0:
	pushq	%rbp
.Ltmp420:
	.cfi_def_cfa_offset 16
.Ltmp421:
	.cfi_offset %rbp, -16
	movq	%rsp, %rbp
.Ltmp422:
	.cfi_def_cfa_register %rbp
	movzbl	%dil, %eax
	movl	ioapic_interruptMap(,%rax,8), %ecx
	cmpl	$-1, %ecx
	je	.LBB84_2
# BB#1:
	movl	ioapic_interruptMap+4(,%rax,8), %ecx
	leal	16(%rcx,%rcx), %ecx
	movl	ioapic_interruptMap(,%rax,8), %eax
	leaq	(%rax,%rax,2), %rax
	movq	ioapics(,%rax,8), %rax
	movl	%ecx, (%rax)
	movl	16(%rax), %edx
	movzbl	%sil, %esi
	orl	$131070, %esi           # imm = 0x1FFFE
	incl	%esi
	xorl	%edx, %esi
	andl	$65536, %esi            # imm = 0x10000
	xorl	%edx, %esi
	movl	%ecx, (%rax)
	movl	%esi, 16(%rax)
.LBB84_2:                               # %IOAPIC_SetEnableMode.exit
	popq	%rbp
	retq
.Lfunc_end84:
	.size	SetInterruptEnableMode, .Lfunc_end84-SetInterruptEnableMode
	.cfi_endproc

	.globl	RaiseInterrupt
	.align	16, 0x90
	.type	RaiseInterrupt,@function
RaiseInterrupt:                         # @RaiseInterrupt
	.cfi_startproc
# BB#0:
	pushq	%rbp
.Ltmp423:
	.cfi_def_cfa_offset 16
.Ltmp424:
	.cfi_offset %rbp, -16
	movq	%rsp, %rbp
.Ltmp425:
	.cfi_def_cfa_register %rbp
	cmpl	$255, %edi
	jbe	.LBB85_2
# BB#1:                                 # %IDT_RaiseInterrupt.exit
	popq	%rbp
	retq
.LBB85_2:
	movb	$-51, int_insts
	movb	%dil, int_insts+1
	movb	$-61, int_insts+2
	popq	%rbp
	jmp	int_insts               # TAILCALL
.Lfunc_end85:
	.size	RaiseInterrupt, .Lfunc_end85-RaiseInterrupt
	.cfi_endproc

	.globl	GetSavedInterruptState
	.align	16, 0x90
	.type	GetSavedInterruptState,@function
GetSavedInterruptState:                 # @GetSavedInterruptState
	.cfi_startproc
# BB#0:
	pushq	%rbp
.Ltmp426:
	.cfi_def_cfa_offset 16
.Ltmp427:
	.cfi_offset %rbp, -16
	movq	%rsp, %rbp
.Ltmp428:
	.cfi_def_cfa_register %rbp
	movq	regs_saved, %rax
	popq	%rbp
	retq
.Lfunc_end86:
	.size	GetSavedInterruptState, .Lfunc_end86-GetSavedInterruptState
	.cfi_endproc

	.globl	InitializeTimer
	.align	16, 0x90
	.type	InitializeTimer,@function
InitializeTimer:                        # @InitializeTimer
	.cfi_startproc
# BB#0:
	pushq	%rbp
.Ltmp429:
	.cfi_def_cfa_offset 16
.Ltmp430:
	.cfi_offset %rbp, -16
	movq	%rsp, %rbp
.Ltmp431:
	.cfi_def_cfa_register %rbp
	movq	$.L.str.50, %rdi
	xorl	%esi, %esi
	callq	ACPITables_FindTable
	testq	%rax, %rax
	je	.LBB87_1
# BB#2:
	movq	44(%rax), %rax
	movabsq	$-21474836480, %rcx     # imm = 0xFFFFFFFB00000000
	addq	%rax, %rcx
	shrq	$32, %rax
	xorl	%edx, %edx
	testq	%rax, %rax
	cmoveq	%rcx, %rdx
	movq	%rdx, hpet_regs
	andb	$-2, 16(%rdx)
	movq	$0, 48(%rdx)
	popq	%rbp
	retq
.LBB87_1:
	#APP
	cli
	hlt
	#NO_APP
	popq	%rbp
	retq
.Lfunc_end87:
	.size	InitializeTimer, .Lfunc_end87-InitializeTimer
	.cfi_endproc

	.globl	GetTimerValue
	.align	16, 0x90
	.type	GetTimerValue,@function
GetTimerValue:                          # @GetTimerValue
	.cfi_startproc
# BB#0:
	pushq	%rbp
.Ltmp432:
	.cfi_def_cfa_offset 16
.Ltmp433:
	.cfi_offset %rbp, -16
	movq	%rsp, %rbp
.Ltmp434:
	.cfi_def_cfa_register %rbp
	movq	hpet_regs, %rax
	movq	48(%rax), %rax
	popq	%rbp
	retq
.Lfunc_end88:
	.size	GetTimerValue, .Lfunc_end88-GetTimerValue
	.cfi_endproc

	.globl	SetTimerValue
	.align	16, 0x90
	.type	SetTimerValue,@function
SetTimerValue:                          # @SetTimerValue
	.cfi_startproc
# BB#0:
	pushq	%rbp
.Ltmp435:
	.cfi_def_cfa_offset 16
.Ltmp436:
	.cfi_offset %rbp, -16
	movq	%rsp, %rbp
.Ltmp437:
	.cfi_def_cfa_register %rbp
	movq	hpet_regs, %rax
	movq	%rdi, 48(%rax)
	popq	%rbp
	retq
.Lfunc_end89:
	.size	SetTimerValue, .Lfunc_end89-SetTimerValue
	.cfi_endproc

	.globl	SetTimerEnableMode
	.align	16, 0x90
	.type	SetTimerEnableMode,@function
SetTimerEnableMode:                     # @SetTimerEnableMode
	.cfi_startproc
# BB#0:
	pushq	%rbp
.Ltmp438:
	.cfi_def_cfa_offset 16
.Ltmp439:
	.cfi_offset %rbp, -16
	movq	%rsp, %rbp
.Ltmp440:
	.cfi_def_cfa_register %rbp
	movq	hpet_regs, %rax
	movq	16(%rax), %rcx
	andl	$1, %edi
	andq	$-2, %rcx
	orq	%rdi, %rcx
	movq	%rcx, 16(%rax)
	popq	%rbp
	retq
.Lfunc_end90:
	.size	SetTimerEnableMode, .Lfunc_end90-SetTimerEnableMode
	.cfi_endproc

	.globl	GetTimerInterval_NS
	.align	16, 0x90
	.type	GetTimerInterval_NS,@function
GetTimerInterval_NS:                    # @GetTimerInterval_NS
	.cfi_startproc
# BB#0:
	pushq	%rbp
.Ltmp441:
	.cfi_def_cfa_offset 16
.Ltmp442:
	.cfi_offset %rbp, -16
	movq	%rsp, %rbp
.Ltmp443:
	.cfi_def_cfa_register %rbp
	movq	hpet_regs, %rax
	movl	4(%rax), %eax
	imulq	%rdi, %rax
	movabsq	$4835703278458516699, %rcx # imm = 0x431BDE82D7B634DB
	mulq	%rcx
	shrq	$18, %rdx
	movq	%rdx, %rax
	popq	%rbp
	retq
.Lfunc_end91:
	.size	GetTimerInterval_NS, .Lfunc_end91-GetTimerInterval_NS
	.cfi_endproc

	.globl	Syscall_Handler
	.align	16, 0x90
	.type	Syscall_Handler,@function
Syscall_Handler:                        # @Syscall_Handler
	.cfi_startproc
# BB#0:
	#APP
	pushq	%rax
	movq	%rsp, %rax
	movq	k_stack_info, %rsp
	movq	%r11, 8(%rsp)
	movq	(%rsp), %rsp
	pushq	%rax
	pushq	%rcx
	pushq	%rdi
	xchgq	%rcx, %rdi
	callq	SyscallReceived
	movq	%rax, %rsi
	popq	%rdi
	popq	%rcx
	popq	%rax
	movq	%rax, %rsp
	popq	%rax
	movq	k_stack_info, %r11
	movq	8(%r11), %r11
	sysretq

	#NO_APP
.Lfunc_end92:
	.size	Syscall_Handler, .Lfunc_end92-Syscall_Handler
	.cfi_endproc

	.globl	SwitchToUserMode
	.align	16, 0x90
	.type	SwitchToUserMode,@function
SwitchToUserMode:                       # @SwitchToUserMode
	.cfi_startproc
# BB#0:
	pushq	%rbp
.Ltmp444:
	.cfi_def_cfa_offset 16
.Ltmp445:
	.cfi_offset %rbp, -16
	movq	%rsp, %rbp
.Ltmp446:
	.cfi_def_cfa_register %rbp
	movq	%rdi, %rcx
	#APP
	cli
	pushfq
	popq	%r11
	orq	$512, %r11              # imm = 0x200
	movq	%rsi, %rsp
	movq	%rsp, %rbp
	sysretq

	#NO_APP
	popq	%rbp
	retq
.Lfunc_end93:
	.size	SwitchToUserMode, .Lfunc_end93-SwitchToUserMode
	.cfi_endproc

	.globl	SetKernelStack
	.align	16, 0x90
	.type	SetKernelStack,@function
SetKernelStack:                         # @SetKernelStack
	.cfi_startproc
# BB#0:
	pushq	%rbp
.Ltmp447:
	.cfi_def_cfa_offset 16
.Ltmp448:
	.cfi_offset %rbp, -16
	movq	%rsp, %rbp
.Ltmp449:
	.cfi_def_cfa_register %rbp
	movq	k_stack_info, %rax
	testq	%rax, %rax
	jne	.LBB94_8
# BB#1:
	movq	vmem_lock, %rax
	testq	%rax, %rax
	je	.LBB94_3
# BB#2:
	xorl	%ecx, %ecx
	#APP
	mfence
	pushfq
	cli
	popq	%rcx
	shlq	$16, %rcx
	movw	$1, %cx
	lock
	xaddw	%cx, 2(%rax)
	cmpw	%cx, (%rax)
	je	.Ltmp450
.Ltmp451:
	btq	$25, %rcx
	jae	.Ltmp452
.Ltmp452:
	pause
	cmpw	%cx, (%rax)
	jne	.Ltmp451
.Ltmp450:
	btq	$25, %rcx
	jae	.Ltmp453
	orw	$1, 4(%rax)
.Ltmp453:
	cli

	#NO_APP
.LBB94_3:                               # %LockSpinlock.exit.i
	movq	coreLocalSpace, %rcx
	xorl	%eax, %eax
	cmpq	$8, %rcx
	jb	.LBB94_5
# BB#4:
	movl	$8192, %eax             # imm = 0x2000
	subq	%rcx, %rax
	addq	virtMemData, %rax
	addq	$-8, %rcx
	movq	%rcx, coreLocalSpace
.LBB94_5:                               # %VirtMemMan_AllocCoreLocalData.exit.i
	movq	vmem_lock, %rcx
	testq	%rcx, %rcx
	je	.LBB94_7
# BB#6:
	#APP
	mfence
	lock
	incw	(%rcx)
	btw	$0, 4(%rcx)
	jae	.Ltmp454
	sti
	movw	$0, 4(%rcx)
.Ltmp454:

	#NO_APP
.LBB94_7:                               # %AllocateAPLSMemory.exit
	movq	%rax, k_stack_info
.LBB94_8:
	movq	%rdi, (%rax)
	popq	%rbp
	retq
.Lfunc_end94:
	.size	SetKernelStack, .Lfunc_end94-SetKernelStack
	.cfi_endproc

	.globl	GetRFLAGS
	.align	16, 0x90
	.type	GetRFLAGS,@function
GetRFLAGS:                              # @GetRFLAGS
	.cfi_startproc
# BB#0:
	pushq	%rbp
.Ltmp455:
	.cfi_def_cfa_offset 16
.Ltmp456:
	.cfi_offset %rbp, -16
	movq	%rsp, %rbp
.Ltmp457:
	.cfi_def_cfa_register %rbp
	movq	k_stack_info, %rax
	movq	8(%rax), %rax
	popq	%rbp
	retq
.Lfunc_end95:
	.size	GetRFLAGS, .Lfunc_end95-GetRFLAGS
	.cfi_endproc

	.globl	SetRFLAGS
	.align	16, 0x90
	.type	SetRFLAGS,@function
SetRFLAGS:                              # @SetRFLAGS
	.cfi_startproc
# BB#0:
	pushq	%rbp
.Ltmp458:
	.cfi_def_cfa_offset 16
.Ltmp459:
	.cfi_offset %rbp, -16
	movq	%rsp, %rbp
.Ltmp460:
	.cfi_def_cfa_register %rbp
	movq	k_stack_info, %rax
	movq	%rdi, 8(%rax)
	popq	%rbp
	retq
.Lfunc_end96:
	.size	SetRFLAGS, .Lfunc_end96-SetRFLAGS
	.cfi_endproc

	.globl	Syscall_Initialize
	.align	16, 0x90
	.type	Syscall_Initialize,@function
Syscall_Initialize:                     # @Syscall_Initialize
	.cfi_startproc
# BB#0:
	pushq	%rbp
.Ltmp461:
	.cfi_def_cfa_offset 16
.Ltmp462:
	.cfi_offset %rbp, -16
	movq	%rsp, %rbp
.Ltmp463:
	.cfi_def_cfa_register %rbp
	movl	$-1073741696, %ecx      # imm = 0xFFFFFFFFC0000080
	#APP
	rdmsr
	#NO_APP
	orl	$1, %eax
	movl	$-1073741696, %ecx      # imm = 0xFFFFFFFFC0000080
	#APP
	wrmsr
	#NO_APP
	xorl	%eax, %eax
	movl	$1572872, %edx          # imm = 0x180008
	movl	$-1073741695, %ecx      # imm = 0xFFFFFFFFC0000081
	#APP
	wrmsr
	#NO_APP
	movq	$Syscall_Handler, %rdx
	shrq	$32, %rdx
	movq	$Syscall_Handler, %rax
	movl	$-1073741694, %ecx      # imm = 0xFFFFFFFFC0000082
	#APP
	wrmsr
	#NO_APP
	xorl	%eax, %eax
	xorl	%edx, %edx
	movl	$-1073741693, %ecx      # imm = 0xFFFFFFFFC0000083
	#APP
	wrmsr
	#NO_APP
	movl	$512, %eax              # imm = 0x200
	xorl	%edx, %edx
	movl	$-1073741692, %ecx      # imm = 0xFFFFFFFFC0000084
	#APP
	wrmsr
	#NO_APP
	popq	%rbp
	retq
.Lfunc_end97:
	.size	Syscall_Initialize, .Lfunc_end97-Syscall_Initialize
	.cfi_endproc

	.globl	LoadAndStartApplication
	.align	16, 0x90
	.type	LoadAndStartApplication,@function
LoadAndStartApplication:                # @LoadAndStartApplication
	.cfi_startproc
# BB#0:
	pushq	%rbp
.Ltmp464:
	.cfi_def_cfa_offset 16
.Ltmp465:
	.cfi_offset %rbp, -16
	movq	%rsp, %rbp
.Ltmp466:
	.cfi_def_cfa_register %rbp
	pushq	%r15
	pushq	%r14
	pushq	%r13
	pushq	%r12
	pushq	%rbx
	subq	$456, %rsp              # imm = 0x1C8
.Ltmp467:
	.cfi_offset %rbx, -56
.Ltmp468:
	.cfi_offset %r12, -48
.Ltmp469:
	.cfi_offset %r13, -40
.Ltmp470:
	.cfi_offset %r14, -32
.Ltmp471:
	.cfi_offset %r15, -24
	movq	%r8, %r14
	movl	%ecx, %r15d
	movq	%rdx, %r12
	movq	%rsi, %r13
	movq	%rdi, %rbx
	movq	coreState, %rax
	movq	(%rax), %rcx
	movq	152(%rcx), %rax
	testq	%rax, %rax
	je	.LBB98_1
# BB#2:                                 # %LockSpinlock.exit.i
	xorl	%edx, %edx
	#APP
	mfence
	pushfq
	cli
	popq	%rdx
	shlq	$16, %rdx
	movw	$1, %dx
	lock
	xaddw	%dx, 2(%rax)
	cmpw	%dx, (%rax)
	je	.Ltmp472
.Ltmp473:
	btq	$25, %rdx
	jae	.Ltmp474
.Ltmp474:
	pause
	cmpw	%dx, (%rax)
	jne	.Ltmp473
.Ltmp472:
	btq	$25, %rdx
	jae	.Ltmp475
	orw	$1, 4(%rax)
.Ltmp475:
	cli

	#NO_APP
	movq	8(%rcx), %rax
	movq	152(%rcx), %rcx
	testq	%rcx, %rcx
	je	.LBB98_4
# BB#3:
	#APP
	mfence
	lock
	incw	(%rcx)
	btw	$0, 4(%rcx)
	jae	.Ltmp476
	sti
	movw	$0, 4(%rcx)
.Ltmp476:

	#NO_APP
	jmp	.LBB98_4
.LBB98_1:                               # %LockSpinlock.exit.i.thread
	movq	8(%rcx), %rax
.LBB98_4:                               # %GetCurrentProcessUID.exit
	movq	(%rax), %rdi
	leaq	-336(%rbp), %rsi
	callq	GetProcessInformation
	movq	virtMemData, %rax
	movq	8(%rax), %rax
	cmpq	$24, %r13
	jb	.LBB98_19
# BB#5:
	movzbl	(%rbx), %eax
	cmpl	$127, %eax
	jne	.LBB98_19
# BB#6:
	movzbl	1(%rbx), %eax
	cmpl	$69, %eax
	jne	.LBB98_19
# BB#7:
	movzbl	2(%rbx), %eax
	cmpl	$76, %eax
	jne	.LBB98_19
# BB#8:
	movzbl	3(%rbx), %eax
	cmpl	$70, %eax
	jne	.LBB98_19
# BB#9:
	movzbl	4(%rbx), %eax
	cmpl	$1, %eax
	je	.LBB98_19
# BB#10:
	movzbl	5(%rbx), %ecx
	cmpl	$2, %ecx
	je	.LBB98_19
# BB#11:
	cmpw	$0, 16(%rbx)
	je	.LBB98_19
# BB#12:
	cmpw	$0, 18(%rbx)
	je	.LBB98_19
# BB#13:
	cmpl	$1, 20(%rbx)
	jne	.LBB98_19
# BB#14:
	movq	curPageTable, %rcx
	movq	(%rcx), %rcx
	movzbl	7(%rbx), %edx
	cmpl	$3, %edx
	je	.LBB98_16
# BB#15:
	testb	%dl, %dl
	jne	.LBB98_19
.LBB98_16:
	movzbl	%al, %eax
	cmpl	$2, %eax
	jne	.LBB98_17
# BB#18:                                # %LoadElf.exit
	leaq	-368(%rbp), %r8
	movq	%rbx, %rdi
	movq	%r13, %rsi
	callq	LoadElf64
	testl	%eax, %eax
	jne	.LBB98_19
	jmp	.LBB98_20
.LBB98_17:
	cmpq	$52, %r13
	jae	.LBB98_20
.LBB98_19:                              # %LoadElf.exit.thread
	#APP
	cli
	hlt
	#NO_APP
.LBB98_20:                              # %LoadElf.exit.thread20
	movl	$6, -480(%rbp)
	movq	$4096, -472(%rbp)       # imm = 0x1000
	movl	$11, -464(%rbp)
	movq	coreState, %rax
	movq	(%rax), %rcx
	movq	152(%rcx), %rax
	testq	%rax, %rax
	je	.LBB98_21
# BB#22:                                # %LockSpinlock.exit.i.2
	xorl	%edx, %edx
	#APP
	mfence
	pushfq
	cli
	popq	%rdx
	shlq	$16, %rdx
	movw	$1, %dx
	lock
	xaddw	%dx, 2(%rax)
	cmpw	%dx, (%rax)
	je	.Ltmp477
.Ltmp478:
	btq	$25, %rdx
	jae	.Ltmp479
.Ltmp479:
	pause
	cmpw	%dx, (%rax)
	jne	.Ltmp478
.Ltmp477:
	btq	$25, %rdx
	jae	.Ltmp480
	orw	$1, 4(%rax)
.Ltmp480:
	cli

	#NO_APP
	movq	(%rcx), %rax
	movq	152(%rcx), %rcx
	testq	%rcx, %rcx
	je	.LBB98_24
# BB#23:
	#APP
	mfence
	lock
	incw	(%rcx)
	btw	$0, 4(%rcx)
	jae	.Ltmp481
	sti
	movw	$0, 4(%rcx)
.Ltmp481:

	#NO_APP
	jmp	.LBB98_24
.LBB98_21:                              # %LockSpinlock.exit.i.2.thread
	movq	(%rcx), %rax
.LBB98_24:                              # %GetCurrentThreadUID.exit
	movq	%rax, -456(%rbp)
	movl	$12, -448(%rbp)
	movq	coreState, %rax
	movq	(%rax), %rcx
	movq	152(%rcx), %rax
	testq	%rax, %rax
	je	.LBB98_25
# BB#26:                                # %LockSpinlock.exit.i.5
	xorl	%edx, %edx
	#APP
	mfence
	pushfq
	cli
	popq	%rdx
	shlq	$16, %rdx
	movw	$1, %dx
	lock
	xaddw	%dx, 2(%rax)
	cmpw	%dx, (%rax)
	je	.Ltmp482
.Ltmp483:
	btq	$25, %rdx
	jae	.Ltmp484
.Ltmp484:
	pause
	cmpw	%dx, (%rax)
	jne	.Ltmp483
.Ltmp482:
	btq	$25, %rdx
	jae	.Ltmp485
	orw	$1, 4(%rax)
.Ltmp485:
	cli

	#NO_APP
	movq	(%rcx), %rax
	movq	152(%rcx), %rcx
	testq	%rcx, %rcx
	je	.LBB98_28
# BB#27:
	#APP
	mfence
	lock
	incw	(%rcx)
	btw	$0, 4(%rcx)
	jae	.Ltmp486
	sti
	movw	$0, 4(%rcx)
.Ltmp486:

	#NO_APP
	jmp	.LBB98_28
.LBB98_25:                              # %LockSpinlock.exit.i.5.thread
	movq	(%rcx), %rax
.LBB98_28:                              # %GetCurrentThreadUID.exit7
	movq	%rax, -440(%rbp)
	movl	$13, -432(%rbp)
	movq	coreState, %rax
	movq	(%rax), %rcx
	movq	152(%rcx), %rax
	testq	%rax, %rax
	je	.LBB98_29
# BB#30:                                # %LockSpinlock.exit.i.9
	xorl	%edx, %edx
	#APP
	mfence
	pushfq
	cli
	popq	%rdx
	shlq	$16, %rdx
	movw	$1, %dx
	lock
	xaddw	%dx, 2(%rax)
	cmpw	%dx, (%rax)
	je	.Ltmp487
.Ltmp488:
	btq	$25, %rdx
	jae	.Ltmp489
.Ltmp489:
	pause
	cmpw	%dx, (%rax)
	jne	.Ltmp488
.Ltmp487:
	btq	$25, %rdx
	jae	.Ltmp490
	orw	$1, 4(%rax)
.Ltmp490:
	cli

	#NO_APP
	movq	8(%rcx), %rax
	movq	152(%rcx), %rcx
	testq	%rcx, %rcx
	je	.LBB98_32
# BB#31:
	#APP
	mfence
	lock
	incw	(%rcx)
	btw	$0, 4(%rcx)
	jae	.Ltmp491
	sti
	movw	$0, 4(%rcx)
.Ltmp491:

	#NO_APP
	jmp	.LBB98_32
.LBB98_29:                              # %LockSpinlock.exit.i.9.thread
	movq	8(%rcx), %rax
.LBB98_32:                              # %GetCurrentProcessUID.exit11
	movq	(%rax), %rax
	movq	%rax, -424(%rbp)
	movl	$14, -416(%rbp)
	movq	coreState, %rax
	movq	(%rax), %rcx
	movq	152(%rcx), %rax
	testq	%rax, %rax
	je	.LBB98_33
# BB#34:                                # %LockSpinlock.exit.i.13
	xorl	%edx, %edx
	#APP
	mfence
	pushfq
	cli
	popq	%rdx
	shlq	$16, %rdx
	movw	$1, %dx
	lock
	xaddw	%dx, 2(%rax)
	cmpw	%dx, (%rax)
	je	.Ltmp492
.Ltmp493:
	btq	$25, %rdx
	jae	.Ltmp494
.Ltmp494:
	pause
	cmpw	%dx, (%rax)
	jne	.Ltmp493
.Ltmp492:
	btq	$25, %rdx
	jae	.Ltmp495
	orw	$1, 4(%rax)
.Ltmp495:
	cli

	#NO_APP
	movq	8(%rcx), %rax
	movq	152(%rcx), %rcx
	testq	%rcx, %rcx
	je	.LBB98_36
# BB#35:
	#APP
	mfence
	lock
	incw	(%rcx)
	btw	$0, 4(%rcx)
	jae	.Ltmp496
	sti
	movw	$0, 4(%rcx)
.Ltmp496:

	#NO_APP
	jmp	.LBB98_36
.LBB98_33:                              # %LockSpinlock.exit.i.13.thread
	movq	8(%rcx), %rax
.LBB98_36:                              # %GetCurrentProcessUID.exit15
	movq	(%rax), %rax
	movq	%rax, -408(%rbp)
	movl	$25, -400(%rbp)
	movq	-368(%rbp), %rbx
	movq	%rbx, -392(%rbp)
	movl	$16, -384(%rbp)
	movl	$3219913727, %eax       # imm = 0xBFEBFBFF
	movq	%rax, -376(%rbp)
	movq	coreState, %rax
	movq	(%rax), %rax
	movq	152(%rax), %rcx
	testq	%rcx, %rcx
	je	.LBB98_37
# BB#38:                                # %LockSpinlock.exit.i.17
	xorl	%edx, %edx
	#APP
	mfence
	pushfq
	cli
	popq	%rdx
	shlq	$16, %rdx
	movw	$1, %dx
	lock
	xaddw	%dx, 2(%rcx)
	cmpw	%dx, (%rcx)
	je	.Ltmp497
.Ltmp498:
	btq	$25, %rdx
	jae	.Ltmp499
.Ltmp499:
	pause
	cmpw	%dx, (%rcx)
	jne	.Ltmp498
.Ltmp497:
	btq	$25, %rdx
	jae	.Ltmp500
	orw	$1, 4(%rcx)
.Ltmp500:
	cli

	#NO_APP
	movq	(%rax), %rdi
	movq	152(%rax), %rax
	testq	%rax, %rax
	je	.LBB98_40
# BB#39:
	#APP
	mfence
	lock
	incw	(%rax)
	btw	$0, 4(%rax)
	jae	.Ltmp501
	sti
	movw	$0, 4(%rax)
.Ltmp501:

	#NO_APP
	jmp	.LBB98_40
.LBB98_37:                              # %LockSpinlock.exit.i.17.thread
	movq	(%rax), %rdi
.LBB98_40:                              # %GetCurrentThreadUID.exit19
	callq	GetThreadUserStack
	leaq	-368(%rbp), %rcx
	movq	%rcx, (%rsp)
	leaq	-480(%rbp), %r8
	movl	$7, %r9d
	movq	%rax, %rdi
	movl	%r15d, %esi
	movq	%r12, %rdx
	movq	%r14, %rcx
	callq	SetupApplicationStack
	movq	%rbx, %rcx
	#APP
	cli
	pushfq
	popq	%r11
	orq	$512, %r11              # imm = 0x200
	movq	%rax, %rsp
	movq	%rsp, %rbp
	sysretq

	#NO_APP
	addq	$456, %rsp              # imm = 0x1C8
	popq	%rbx
	popq	%r12
	popq	%r13
	popq	%r14
	popq	%r15
	popq	%rbp
	retq
.Lfunc_end98:
	.size	LoadAndStartApplication, .Lfunc_end98-LoadAndStartApplication
	.cfi_endproc

	.globl	SetupApplicationStack
	.align	16, 0x90
	.type	SetupApplicationStack,@function
SetupApplicationStack:                  # @SetupApplicationStack
	.cfi_startproc
# BB#0:
	pushq	%rbp
.Ltmp502:
	.cfi_def_cfa_offset 16
.Ltmp503:
	.cfi_offset %rbp, -16
	movq	%rsp, %rbp
.Ltmp504:
	.cfi_def_cfa_register %rbp
	pushq	%r15
	pushq	%r14
	pushq	%r13
	pushq	%r12
	pushq	%rbx
	subq	$72, %rsp
.Ltmp505:
	.cfi_offset %rbx, -56
.Ltmp506:
	.cfi_offset %r12, -48
.Ltmp507:
	.cfi_offset %r13, -40
.Ltmp508:
	.cfi_offset %r14, -32
.Ltmp509:
	.cfi_offset %r15, -24
	movq	%r8, -96(%rbp)          # 8-byte Spill
	movq	%rdx, %r13
	movq	%rdi, %r14
	xorl	%eax, %eax
	testq	%rcx, %rcx
	je	.LBB99_3
# BB#1:
	movq	$-1, %rax
	.align	16, 0x90
.LBB99_2:                               # %.preheader3
                                        # =>This Inner Loop Header: Depth=1
	cmpq	$0, 8(%rcx,%rax,8)
	leaq	1(%rax), %rax
	jne	.LBB99_2
.LBB99_3:                               # %.loopexit4
	movq	%rcx, -80(%rbp)         # 8-byte Spill
	leal	2(%rsi), %edx
	movq	%rdx, -88(%rbp)         # 8-byte Spill
	movq	%rsi, -56(%rbp)         # 8-byte Spill
	leal	5(%r9), %ecx
	movq	%r9, -72(%rbp)          # 8-byte Spill
	leaq	(%rdx,%rcx,2), %rbx
	addq	%rax, %rbx
	movq	virtMemData, %rax
	movq	8(%rax), %rax
	movq	curPageTable, %rax
	movq	(%rax), %rax
	movq	vmem_lock, %rcx
	xorl	%r15d, %r15d
	testq	%rcx, %rcx
	je	.LBB99_5
# BB#4:
	xorl	%edx, %edx
	#APP
	mfence
	pushfq
	cli
	popq	%rdx
	shlq	$16, %rdx
	movw	$1, %dx
	lock
	xaddw	%dx, 2(%rcx)
	cmpw	%dx, (%rcx)
	je	.Ltmp510
.Ltmp511:
	btq	$25, %rdx
	jae	.Ltmp512
.Ltmp512:
	pause
	cmpw	%dx, (%rcx)
	jne	.Ltmp511
.Ltmp510:
	btq	$25, %rdx
	jae	.Ltmp513
	orw	$1, 4(%rcx)
.Ltmp513:
	cli

	#NO_APP
	movq	vmem_lock, %r15
.LBB99_5:                               # %LockSpinlock.exit.i
	shlq	$3, %rbx
	movq	(%rax), %rdi
	movl	$4096, %esi             # imm = 0x1000
	movl	$2, %edx
	movl	$1, %ecx
	callq	VirtMemMan_FindFreeAddress
	movq	%rax, %r12
	testq	%r15, %r15
	je	.LBB99_7
# BB#6:                                 # %FindFreeVirtualAddress.exit
	#APP
	mfence
	lock
	incw	(%r15)
	btw	$0, 4(%r15)
	jae	.Ltmp514
	sti
	movw	$0, 4(%r15)
.Ltmp514:

	#NO_APP
	movq	vmem_lock, %rax
	testq	%rax, %rax
	je	.LBB99_7
# BB#8:                                 # %LockSpinlock.exit.i.7
	xorl	%ecx, %ecx
	#APP
	mfence
	pushfq
	cli
	popq	%rcx
	shlq	$16, %rcx
	movw	$1, %cx
	lock
	xaddw	%cx, 2(%rax)
	cmpw	%cx, (%rax)
	je	.Ltmp515
.Ltmp516:
	btq	$25, %rcx
	jae	.Ltmp517
.Ltmp517:
	pause
	cmpw	%cx, (%rax)
	jne	.Ltmp516
.Ltmp515:
	btq	$25, %rcx
	jae	.Ltmp518
	orw	$1, 4(%rax)
.Ltmp518:
	cli

	#NO_APP
	movq	vmem_lock, %r15
	callq	MemMan_Alloc
	testq	%r15, %r15
	je	.LBB99_10
# BB#9:
	#APP
	mfence
	lock
	incw	(%r15)
	btw	$0, 4(%r15)
	jae	.Ltmp519
	sti
	movw	$0, 4(%r15)
.Ltmp519:

	#NO_APP
	jmp	.LBB99_10
.LBB99_7:                               # %LockSpinlock.exit.i.7.thread
	callq	MemMan_Alloc
.LBB99_10:                              # %AllocatePhysicalPage.exit
	movq	%r13, %r15
	movq	%r14, -64(%rbp)         # 8-byte Spill
	subq	%rbx, %r14
	movq	%rbx, -104(%rbp)        # 8-byte Spill
	movq	virtMemData, %rcx
	movq	8(%rcx), %rcx
	movq	curPageTable, %rcx
	movq	(%rcx), %rdi
	movl	$12, (%rsp)
	xorl	%r13d, %r13d
	movl	$4096, %ecx             # imm = 0x1000
	xorl	%r8d, %r8d
	movl	$2, %r9d
	movq	%rax, %rsi
	movq	%r12, %rdx
	callq	MapPage
	movq	-56(%rbp), %r9          # 8-byte Reload
	testl	%r9d, %r9d
	je	.LBB99_11
# BB#28:
	xorl	%r11d, %r11d
	.align	16, 0x90
.LBB99_29:                              # %.lr.ph14
                                        # =>This Loop Header: Depth=1
                                        #     Child Loop BB99_30 Depth 2
                                        #     Child Loop BB99_34 Depth 2
                                        #     Child Loop BB99_37 Depth 2
                                        #     Child Loop BB99_39 Depth 2
	leaq	(%r12,%r11), %rsi
	leaq	1(%r13), %r10
	movq	%rsi, 8(%r14,%r13,8)
	movq	(%r15,%r13,8), %rax
	movq	$-1, %rdi
	.align	16, 0x90
.LBB99_30:                              #   Parent Loop BB99_29 Depth=1
                                        # =>  This Inner Loop Header: Depth=2
	cmpb	$0, 1(%rax,%rdi)
	leaq	1(%rdi), %rdi
	jne	.LBB99_30
# BB#31:                                # %strlen.exit.i
                                        #   in Loop: Header=BB99_29 Depth=1
	testq	%rdi, %rdi
	je	.LBB99_38
# BB#32:                                # %.lr.ph.i.preheader.i
                                        #   in Loop: Header=BB99_29 Depth=1
	leaq	-1(%rdi), %r8
	movq	%rdi, %rbx
	andq	$7, %rbx
	je	.LBB99_36
# BB#33:                                # %.lr.ph.i.prol.i.preheader
                                        #   in Loop: Header=BB99_29 Depth=1
	movq	%r15, -48(%rbp)         # 8-byte Spill
	movq	%r14, %r15
	leaq	(%rbx,%r11), %r9
	movl	%edi, %ecx
	andl	$7, %ecx
	negq	%rcx
	movq	%rax, %rdx
	.align	16, 0x90
.LBB99_34:                              # %.lr.ph.i.prol.i
                                        #   Parent Loop BB99_29 Depth=1
                                        # =>  This Inner Loop Header: Depth=2
	movb	(%rdx), %r14b
	incq	%rdx
	movb	%r14b, (%rsi)
	incq	%rsi
	incq	%rcx
	jne	.LBB99_34
# BB#35:                                # %.lr.ph.i.preheader.split.i.loopexit
                                        #   in Loop: Header=BB99_29 Depth=1
	addq	%rbx, %rax
	leaq	(%r9,%r12), %rsi
	subq	%rbx, %rdi
	movq	%r15, %r14
	movq	-56(%rbp), %r9          # 8-byte Reload
	movq	-48(%rbp), %r15         # 8-byte Reload
.LBB99_36:                              # %.lr.ph.i.preheader.split.i
                                        #   in Loop: Header=BB99_29 Depth=1
	cmpq	$7, %r8
	jb	.LBB99_38
	.align	16, 0x90
.LBB99_37:                              # %.lr.ph.i.i
                                        #   Parent Loop BB99_29 Depth=1
                                        # =>  This Inner Loop Header: Depth=2
	movb	(%rax), %cl
	movb	%cl, (%rsi)
	movb	1(%rax), %cl
	movb	%cl, 1(%rsi)
	movb	2(%rax), %cl
	movb	%cl, 2(%rsi)
	movb	3(%rax), %cl
	movb	%cl, 3(%rsi)
	movb	4(%rax), %cl
	movb	%cl, 4(%rsi)
	movb	5(%rax), %cl
	movb	%cl, 5(%rsi)
	movb	6(%rax), %cl
	movb	%cl, 6(%rsi)
	addq	$-8, %rdi
	movb	7(%rax), %cl
	leaq	8(%rax), %rax
	movb	%cl, 7(%rsi)
	leaq	8(%rsi), %rsi
	jne	.LBB99_37
.LBB99_38:                              # %strcpy.exit
                                        #   in Loop: Header=BB99_29 Depth=1
	movq	(%r15,%r13,8), %rax
	movq	$-1, %rdx
	.align	16, 0x90
.LBB99_39:                              #   Parent Loop BB99_29 Depth=1
                                        # =>  This Inner Loop Header: Depth=2
	cmpb	$0, 1(%rax,%rdx)
	leaq	1(%rdx), %rdx
	jne	.LBB99_39
# BB#40:                                # %strlen.exit
                                        #   in Loop: Header=BB99_29 Depth=1
	addq	%r11, %rdx
	cmpl	%r9d, %r10d
	movq	%r10, %r13
	movq	%rdx, %r11
	jne	.LBB99_29
	jmp	.LBB99_12
.LBB99_11:
	xorl	%edx, %edx
.LBB99_12:                              # %._crit_edge.15
	movl	%r9d, %eax
	movq	%rax, (%r14)
	leal	1(%r9), %eax
	movq	$0, (%r14,%rax,8)
	movq	-80(%rbp), %rbx         # 8-byte Reload
	testq	%rbx, %rbx
	je	.LBB99_13
# BB#14:                                # %.preheader
	movq	(%rbx), %rax
	testq	%rax, %rax
	movq	-72(%rbp), %rdi         # 8-byte Reload
	movq	-88(%rbp), %rcx         # 8-byte Reload
	je	.LBB99_18
# BB#15:
	movl	$1, %esi
	.align	16, 0x90
.LBB99_16:                              # %.lr.ph9
                                        # =>This Inner Loop Header: Depth=1
	movl	%esi, %ecx
	leal	1(%r9,%rcx), %esi
	movq	%rax, (%r14,%rsi,8)
	movl	%ecx, %eax
	movq	(%rbx,%rax,8), %rax
	movl	%ecx, %esi
	incl	%esi
	testq	%rax, %rax
	jne	.LBB99_16
# BB#17:
	leal	2(%r9,%rcx), %ecx
	jmp	.LBB99_18
.LBB99_13:
	movq	-72(%rbp), %rdi         # 8-byte Reload
	movq	-88(%rbp), %rcx         # 8-byte Reload
.LBB99_18:                              # %.loopexit
	movq	16(%rbp), %r8
	movl	%ecx, %eax
	incl	%ecx
	movq	$0, (%r14,%rax,8)
	leaq	(%r14,%rcx,8), %r13
	testl	%edi, %edi
	je	.LBB99_25
# BB#19:                                # %.lr.ph
	leal	-1(%rdi), %eax
	shlq	$4, %rax
	addq	$16, %rax
	subq	-104(%rbp), %rax        # 8-byte Folded Reload
	leaq	(%rax,%rcx,8), %rsi
	xorl	%eax, %eax
	testb	$1, %dil
	je	.LBB99_21
# BB#20:
	movq	-96(%rbp), %rax         # 8-byte Reload
	movq	%rax, %rcx
	movl	(%rcx), %eax
	movl	%eax, (%r13)
	movq	8(%rcx), %rax
	movq	%rax, 8(%r13)
	addq	$16, %r13
	movl	$1, %eax
.LBB99_21:                              # %.lr.ph.split
	addq	%rsi, -64(%rbp)         # 8-byte Folded Spill
	cmpl	$1, %edi
	je	.LBB99_24
# BB#22:                                # %.lr.ph.split.split.preheader
	subl	%eax, %edi
	shlq	$4, %rax
	movq	-96(%rbp), %rcx         # 8-byte Reload
	leaq	24(%rax,%rcx), %rax
	.align	16, 0x90
.LBB99_23:                              # %.lr.ph.split.split
                                        # =>This Inner Loop Header: Depth=1
	movl	-24(%rax), %ecx
	movl	%ecx, (%r13)
	movq	-16(%rax), %rcx
	movq	%rcx, 8(%r13)
	movl	-8(%rax), %ecx
	movl	%ecx, 16(%r13)
	movq	(%rax), %rcx
	movq	%rcx, 24(%r13)
	addq	$32, %rax
	addq	$32, %r13
	addl	$-2, %edi
	jne	.LBB99_23
.LBB99_24:                              # %._crit_edge
	movq	-64(%rbp), %r13         # 8-byte Reload
.LBB99_25:
	leaq	(%r12,%rdx), %r10
	movq	16(%r8), %rbx
	movq	24(%r8), %rdi
	movq	%rdi, %rsi
	imulq	%rbx, %rsi
	testq	%rsi, %rsi
	je	.LBB99_46
# BB#26:                                # %.lr.ph.preheader.i
	movq	8(%r8), %rax
	leaq	-1(%rsi), %r9
	movq	%rsi, %r11
	andq	$7, %r11
	je	.LBB99_27
# BB#41:                                # %.lr.ph.prol.i.preheader
	movq	%r14, %r15
	leaq	(%rdx,%r11), %r14
	imull	%ebx, %edi
	andl	$7, %edi
	negq	%rdi
	movq	%rax, %rbx
	movq	%r10, %rdx
	.align	16, 0x90
.LBB99_42:                              # %.lr.ph.prol.i
                                        # =>This Inner Loop Header: Depth=1
	movb	(%rbx), %cl
	incq	%rbx
	movb	%cl, (%rdx)
	incq	%rdx
	incq	%rdi
	jne	.LBB99_42
# BB#43:                                # %.lr.ph.preheader.split.i.loopexit
	addq	%r11, %rax
	addq	%r14, %r12
	subq	%r11, %rsi
	movq	%r15, %r14
	jmp	.LBB99_44
.LBB99_27:
	movq	%r10, %r12
.LBB99_44:                              # %.lr.ph.preheader.split.i
	cmpq	$7, %r9
	jb	.LBB99_46
	.align	16, 0x90
.LBB99_45:                              # %.lr.ph.i
                                        # =>This Inner Loop Header: Depth=1
	movb	(%rax), %cl
	movb	%cl, (%r12)
	movb	1(%rax), %cl
	movb	%cl, 1(%r12)
	movb	2(%rax), %cl
	movb	%cl, 2(%r12)
	movb	3(%rax), %cl
	movb	%cl, 3(%r12)
	movb	4(%rax), %cl
	movb	%cl, 4(%r12)
	movb	5(%rax), %cl
	movb	%cl, 5(%r12)
	movb	6(%rax), %cl
	movb	%cl, 6(%r12)
	addq	$-8, %rsi
	movb	7(%rax), %cl
	leaq	8(%rax), %rax
	movb	%cl, 7(%r12)
	leaq	8(%r12), %r12
	jne	.LBB99_45
.LBB99_46:                              # %memcpy.exit
	movl	$3, (%r13)
	movq	%r10, 8(%r13)
	movl	$5, 16(%r13)
	movq	16(%r8), %rax
	movq	%rax, 24(%r13)
	movl	$4, 32(%r13)
	movq	24(%r8), %rax
	movq	%rax, 40(%r13)
	movl	$9, 48(%r13)
	movq	(%r8), %rax
	movq	%rax, 56(%r13)
	movl	$0, 64(%r13)
	movq	$0, 72(%r13)
	movq	%r14, %rax
	addq	$72, %rsp
	popq	%rbx
	popq	%r12
	popq	%r13
	popq	%r14
	popq	%r15
	popq	%rbp
	retq
.Lfunc_end99:
	.size	SetupApplicationStack, .Lfunc_end99-SetupApplicationStack
	.cfi_endproc

	.globl	PIT_SetFrequency
	.align	16, 0x90
	.type	PIT_SetFrequency,@function
PIT_SetFrequency:                       # @PIT_SetFrequency
	.cfi_startproc
# BB#0:
	pushq	%rbp
.Ltmp520:
	.cfi_def_cfa_offset 16
.Ltmp521:
	.cfi_offset %rbp, -16
	movq	%rsp, %rbp
.Ltmp522:
	.cfi_def_cfa_register %rbp
	movl	%edx, %r9d
	movl	$1193180, %eax          # imm = 0x1234DC
	xorl	%edx, %edx
	divl	%r8d
	movl	%eax, %r8d
	movl	$1193180, %eax          # imm = 0x1234DC
	xorl	%edx, %edx
	divl	%r8d
	movl	%eax, curFrequency
	movb	%sil, %al
	andb	$3, %al
	andb	$1, %cl
	movl	%edi, %r10d
	andl	$3, %r10d
	shlb	$6, %dil
	movl	%esi, %r11d
	andl	$3, %r11d
	shlb	$4, %al
	orb	%dil, %al
	addb	%r9b, %r9b
	andb	$14, %r9b
	orb	%r9b, %al
	orb	%cl, %al
	#APP
	outb	%al, $67
	#NO_APP
	testb	$1, %sil
	je	.LBB100_2
# BB#1:
	movl	%r10d, %edx
	orl	$64, %edx
	movb	%r8b, %al
	#APP
	outb	%al, %dx
	#NO_APP
.LBB100_2:
	testb	$2, %r11b
	je	.LBB100_4
# BB#3:
	shrl	$8, %r8d
	orl	$64, %r10d
	movw	%r10w, %dx
	movb	%r8b, %al
	#APP
	outb	%al, %dx
	#NO_APP
.LBB100_4:
	popq	%rbp
	retq
.Lfunc_end100:
	.size	PIT_SetFrequency, .Lfunc_end100-PIT_SetFrequency
	.cfi_endproc

	.globl	PIT_Sleep
	.align	16, 0x90
	.type	PIT_Sleep,@function
PIT_Sleep:                              # @PIT_Sleep
	.cfi_startproc
# BB#0:
	pushq	%rbp
.Ltmp523:
	.cfi_def_cfa_offset 16
.Ltmp524:
	.cfi_offset %rbp, -16
	movq	%rsp, %rbp
.Ltmp525:
	.cfi_def_cfa_register %rbp
	movl	$1, pit_handlerMode
	movl	ioapic_interruptMap+256, %eax
	cmpl	$-1, %eax
	je	.LBB101_2
# BB#1:
	movl	ioapic_interruptMap+260, %eax
	leal	16(%rax,%rax), %eax
	movl	ioapic_interruptMap+256, %ecx
	leaq	(%rcx,%rcx,2), %rcx
	movq	ioapics(,%rcx,8), %rcx
	movl	%eax, (%rcx)
	movl	16(%rcx), %edx
	orl	$65536, %edx            # imm = 0x10000
	movl	%eax, (%rcx)
	movl	%edx, 16(%rcx)
.LBB101_2:                              # %SetInterruptEnableMode.exit
	movq	intHandlers+256, %rax
	movq	$PIT_TempIntHandler, intHandlers+256
	movq	$ShadowInterruptHandler, idt_handler_calls+256
	imull	curFrequency, %edi
	imulq	$274877907, %rdi, %rcx  # imm = 0x10624DD3
	shrq	$38, %rcx
	movl	%ecx, pit_ticksToWait
	movl	ioapic_interruptMap+256, %ecx
	cmpl	$-1, %ecx
	je	.LBB101_4
# BB#3:
	movl	ioapic_interruptMap+260, %ecx
	leal	16(%rcx,%rcx), %ecx
	movl	ioapic_interruptMap+256, %edx
	leaq	(%rdx,%rdx,2), %rdx
	movq	ioapics(,%rdx,8), %rdx
	movl	%ecx, (%rdx)
	movl	16(%rdx), %esi
	andl	$-65537, %esi           # imm = 0xFFFFFFFFFFFEFFFF
	movl	%ecx, (%rdx)
	movl	%esi, 16(%rdx)
.LBB101_4:                              # %SetInterruptEnableMode.exit2
	movl	$0, pit_handlerMode
	#APP
	sti
	#NO_APP
	movl	$1, pit_handlerMode
	movb	$1, %cl
	.align	16, 0x90
.LBB101_8:                              # =>This Loop Header: Depth=1
                                        #     Child Loop BB101_9 Depth 2
	movl	pit_ticksToWait, %edx
	movl	$0, pit_handlerMode
	movl	$50, %esi
	.align	16, 0x90
.LBB101_9:                              #   Parent Loop BB101_8 Depth=1
                                        # =>  This Inner Loop Header: Depth=2
	#APP
	nop
	#NO_APP
	#APP
	nop
	#NO_APP
	#APP
	nop
	#NO_APP
	#APP
	nop
	#NO_APP
	#APP
	nop
	#NO_APP
	decl	%esi
	jne	.LBB101_9
# BB#5:                                 # %.loopexit
                                        #   in Loop: Header=BB101_8 Depth=1
	testl	%edx, %edx
	jne	.LBB101_7
# BB#6:                                 #   in Loop: Header=BB101_8 Depth=1
	xorl	%ecx, %ecx
.LBB101_7:                              # %select.end
                                        #   in Loop: Header=BB101_8 Depth=1
	testb	%cl, %cl
	movl	$1, pit_handlerMode
	jne	.LBB101_8
# BB#10:
	movl	ioapic_interruptMap+256, %ecx
	cmpl	$-1, %ecx
	je	.LBB101_12
# BB#11:
	movl	ioapic_interruptMap+260, %ecx
	leal	16(%rcx,%rcx), %ecx
	movl	ioapic_interruptMap+256, %edx
	leaq	(%rdx,%rdx,2), %rdx
	movq	ioapics(,%rdx,8), %rdx
	movl	%ecx, (%rdx)
	movl	16(%rdx), %esi
	orl	$65536, %esi            # imm = 0x10000
	movl	%ecx, (%rdx)
	movl	%esi, 16(%rdx)
.LBB101_12:                             # %SetInterruptEnableMode.exit1
	movq	%rax, intHandlers+256
	movq	$ShadowInterruptHandler, idt_handler_calls+256
	movl	$1, stop
	popq	%rbp
	retq
.Lfunc_end101:
	.size	PIT_Sleep, .Lfunc_end101-PIT_Sleep
	.cfi_endproc

	.globl	PIT_SetEnableMode
	.align	16, 0x90
	.type	PIT_SetEnableMode,@function
PIT_SetEnableMode:                      # @PIT_SetEnableMode
	.cfi_startproc
# BB#0:
	pushq	%rbp
.Ltmp526:
	.cfi_def_cfa_offset 16
.Ltmp527:
	.cfi_offset %rbp, -16
	movq	%rsp, %rbp
.Ltmp528:
	.cfi_def_cfa_register %rbp
	movl	ioapic_interruptMap+256, %eax
	cmpl	$-1, %eax
	je	.LBB102_2
# BB#1:
	movl	ioapic_interruptMap+260, %eax
	leal	16(%rax,%rax), %eax
	movl	ioapic_interruptMap+256, %ecx
	leaq	(%rcx,%rcx,2), %rcx
	movq	ioapics(,%rcx,8), %rcx
	movl	%eax, (%rcx)
	movl	16(%rcx), %edx
	movzbl	%dil, %esi
	orl	$131070, %esi           # imm = 0x1FFFE
	incl	%esi
	xorl	%edx, %esi
	andl	$65536, %esi            # imm = 0x10000
	xorl	%edx, %esi
	movl	%eax, (%rcx)
	movl	%esi, 16(%rcx)
.LBB102_2:                              # %SetInterruptEnableMode.exit
	popq	%rbp
	retq
.Lfunc_end102:
	.size	PIT_SetEnableMode, .Lfunc_end102-PIT_SetEnableMode
	.cfi_endproc

	.globl	PIT_Initialize
	.align	16, 0x90
	.type	PIT_Initialize,@function
PIT_Initialize:                         # @PIT_Initialize
	.cfi_startproc
# BB#0:
	pushq	%rbp
.Ltmp529:
	.cfi_def_cfa_offset 16
.Ltmp530:
	.cfi_offset %rbp, -16
	movq	%rsp, %rbp
.Ltmp531:
	.cfi_def_cfa_register %rbp
	movl	$19886, curFrequency    # imm = 0x4DAE
	movb	$52, %al
	#APP
	outb	%al, $67
	#NO_APP
	movb	$60, %al
	#APP
	outb	%al, $64
	#NO_APP
	xorl	%eax, %eax
	#APP
	outb	%al, $64
	#NO_APP
	popq	%rbp
	retq
.Lfunc_end103:
	.size	PIT_Initialize, .Lfunc_end103-PIT_Initialize
	.cfi_endproc

	.align	16, 0x90
	.type	PIT_TempIntHandler,@function
PIT_TempIntHandler:                     # @PIT_TempIntHandler
	.cfi_startproc
# BB#0:
	pushq	%rbp
.Ltmp532:
	.cfi_def_cfa_offset 16
.Ltmp533:
	.cfi_offset %rbp, -16
	movq	%rsp, %rbp
.Ltmp534:
	.cfi_def_cfa_register %rbp
	cmpl	$32, %edi
	jne	.LBB104_4
# BB#1:
	cmpl	$0, pit_handlerMode
	jne	.LBB104_4
# BB#2:
	cmpl	$0, pit_ticksToWait
	je	.LBB104_4
# BB#3:
	decl	pit_ticksToWait
.LBB104_4:
	popq	%rbp
	retq
.Lfunc_end104:
	.size	PIT_TempIntHandler, .Lfunc_end104-PIT_TempIntHandler
	.cfi_endproc

	.globl	HPET_Initialize
	.align	16, 0x90
	.type	HPET_Initialize,@function
HPET_Initialize:                        # @HPET_Initialize
	.cfi_startproc
# BB#0:
	pushq	%rbp
.Ltmp535:
	.cfi_def_cfa_offset 16
.Ltmp536:
	.cfi_offset %rbp, -16
	movq	%rsp, %rbp
.Ltmp537:
	.cfi_def_cfa_register %rbp
	pushq	%rbx
	pushq	%rax
.Ltmp538:
	.cfi_offset %rbx, -24
	xorl	%ebx, %ebx
	movq	$.L.str.50, %rdi
	xorl	%esi, %esi
	callq	ACPITables_FindTable
	movl	$1, %ecx
	testq	%rax, %rax
	je	.LBB105_2
# BB#1:                                 # %VirtMemMan_GetVirtualAddress.exit
	movq	44(%rax), %rax
	movabsq	$-21474836480, %rcx     # imm = 0xFFFFFFFB00000000
	addq	%rax, %rcx
	shrq	$32, %rax
	testq	%rax, %rax
	cmovneq	%rbx, %rcx
	movq	%rcx, hpet_regs
	andb	$-2, 16(%rcx)
	movq	$0, 48(%rcx)
	xorl	%ecx, %ecx
.LBB105_2:
	movl	%ecx, %eax
	addq	$8, %rsp
	popq	%rbx
	popq	%rbp
	retq
.Lfunc_end105:
	.size	HPET_Initialize, .Lfunc_end105-HPET_Initialize
	.cfi_endproc

	.globl	HPET_SetCounterEnableStatus
	.align	16, 0x90
	.type	HPET_SetCounterEnableStatus,@function
HPET_SetCounterEnableStatus:            # @HPET_SetCounterEnableStatus
	.cfi_startproc
# BB#0:
	pushq	%rbp
.Ltmp539:
	.cfi_def_cfa_offset 16
.Ltmp540:
	.cfi_offset %rbp, -16
	movq	%rsp, %rbp
.Ltmp541:
	.cfi_def_cfa_register %rbp
	movq	hpet_regs, %rax
	movq	16(%rax), %rcx
	andl	$1, %edi
	andq	$-2, %rcx
	orq	%rdi, %rcx
	movq	%rcx, 16(%rax)
	popq	%rbp
	retq
.Lfunc_end106:
	.size	HPET_SetCounterEnableStatus, .Lfunc_end106-HPET_SetCounterEnableStatus
	.cfi_endproc

	.globl	HPET_SetCounterValue
	.align	16, 0x90
	.type	HPET_SetCounterValue,@function
HPET_SetCounterValue:                   # @HPET_SetCounterValue
	.cfi_startproc
# BB#0:
	pushq	%rbp
.Ltmp542:
	.cfi_def_cfa_offset 16
.Ltmp543:
	.cfi_offset %rbp, -16
	movq	%rsp, %rbp
.Ltmp544:
	.cfi_def_cfa_register %rbp
	movq	hpet_regs, %rax
	movq	%rdi, 48(%rax)
	popq	%rbp
	retq
.Lfunc_end107:
	.size	HPET_SetCounterValue, .Lfunc_end107-HPET_SetCounterValue
	.cfi_endproc

	.globl	HPET_GetElapsedTime
	.align	16, 0x90
	.type	HPET_GetElapsedTime,@function
HPET_GetElapsedTime:                    # @HPET_GetElapsedTime
	.cfi_startproc
# BB#0:
	pushq	%rbp
.Ltmp545:
	.cfi_def_cfa_offset 16
.Ltmp546:
	.cfi_offset %rbp, -16
	movq	%rsp, %rbp
.Ltmp547:
	.cfi_def_cfa_register %rbp
	movq	hpet_regs, %rax
	movl	4(%rax), %eax
	imulq	%rdi, %rax
	movabsq	$4835703278458516699, %rcx # imm = 0x431BDE82D7B634DB
	mulq	%rcx
	shrq	$18, %rdx
	movq	%rdx, %rax
	popq	%rbp
	retq
.Lfunc_end108:
	.size	HPET_GetElapsedTime, .Lfunc_end108-HPET_GetElapsedTime
	.cfi_endproc

	.globl	HPET_GetPeriod
	.align	16, 0x90
	.type	HPET_GetPeriod,@function
HPET_GetPeriod:                         # @HPET_GetPeriod
	.cfi_startproc
# BB#0:
	pushq	%rbp
.Ltmp548:
	.cfi_def_cfa_offset 16
.Ltmp549:
	.cfi_offset %rbp, -16
	movq	%rsp, %rbp
.Ltmp550:
	.cfi_def_cfa_register %rbp
	movq	hpet_regs, %rax
	movl	4(%rax), %eax
	imulq	$1125899907, %rax, %rax # imm = 0x431BDE83
	shrq	$50, %rax
	popq	%rbp
	retq
.Lfunc_end109:
	.size	HPET_GetPeriod, .Lfunc_end109-HPET_GetPeriod
	.cfi_endproc

	.globl	HPET_GetCounterValue
	.align	16, 0x90
	.type	HPET_GetCounterValue,@function
HPET_GetCounterValue:                   # @HPET_GetCounterValue
	.cfi_startproc
# BB#0:
	pushq	%rbp
.Ltmp551:
	.cfi_def_cfa_offset 16
.Ltmp552:
	.cfi_offset %rbp, -16
	movq	%rsp, %rbp
.Ltmp553:
	.cfi_def_cfa_register %rbp
	movq	hpet_regs, %rax
	movq	48(%rax), %rax
	popq	%rbp
	retq
.Lfunc_end110:
	.size	HPET_GetCounterValue, .Lfunc_end110-HPET_GetCounterValue
	.cfi_endproc

	.globl	APIC_LockPIC
	.align	16, 0x90
	.type	APIC_LockPIC,@function
APIC_LockPIC:                           # @APIC_LockPIC
	.cfi_startproc
# BB#0:
	pushq	%rbp
.Ltmp554:
	.cfi_def_cfa_offset 16
.Ltmp555:
	.cfi_offset %rbp, -16
	movq	%rsp, %rbp
.Ltmp556:
	.cfi_def_cfa_register %rbp
	movb	$17, %al
	#APP
	outb	%al, $32
	#NO_APP
	movb	$17, %al
	#APP
	outb	%al, $160
	#NO_APP
	movb	$32, %al
	#APP
	outb	%al, $33
	#NO_APP
	movb	$40, %al
	#APP
	outb	%al, $161
	#NO_APP
	movb	$4, %al
	#APP
	outb	%al, $33
	#NO_APP
	movb	$2, %al
	#APP
	outb	%al, $161
	#NO_APP
	movb	$1, %al
	#APP
	outb	%al, $33
	#NO_APP
	movb	$1, %al
	#APP
	outb	%al, $161
	#NO_APP
	movb	$-1, %al
	#APP
	outb	%al, $33
	#NO_APP
	movb	$-1, %al
	#APP
	outb	%al, $161
	#NO_APP
	popq	%rbp
	retq
.Lfunc_end111:
	.size	APIC_LockPIC, .Lfunc_end111-APIC_LockPIC
	.cfi_endproc

	.globl	APIC_LocalInitialize
	.align	16, 0x90
	.type	APIC_LocalInitialize,@function
APIC_LocalInitialize:                   # @APIC_LocalInitialize
	.cfi_startproc
# BB#0:
	pushq	%rbp
.Ltmp557:
	.cfi_def_cfa_offset 16
.Ltmp558:
	.cfi_offset %rbp, -16
	movq	%rsp, %rbp
.Ltmp559:
	.cfi_def_cfa_register %rbp
	xorl	%eax, %eax
	.align	16, 0x90
.LBB112_1:                              # %RegisterInterruptHandler.exit
                                        # =>This Inner Loop Header: Depth=1
	movq	intHandlers+256(,%rax,8), %rcx
	movq	$ShadowInterruptHandler, idt_handler_calls+256(,%rax,8)
	movq	intHandlers+264(,%rax,8), %rcx
	movq	$ShadowInterruptHandler, idt_handler_calls+264(,%rax,8)
	movq	intHandlers+272(,%rax,8), %rcx
	movq	$ShadowInterruptHandler, idt_handler_calls+272(,%rax,8)
	movq	intHandlers+280(,%rax,8), %rcx
	movq	$ShadowInterruptHandler, idt_handler_calls+280(,%rax,8)
	addq	$4, %rax
	cmpq	$224, %rax
	jne	.LBB112_1
# BB#2:
	movl	$27, %ecx
	#APP
	rdmsr
	#NO_APP
	movl	%eax, %eax
	movq	apic_data, %rcx
	testq	%rcx, %rcx
	jne	.LBB112_10
# BB#3:
	movq	vmem_lock, %rcx
	testq	%rcx, %rcx
	je	.LBB112_5
# BB#4:
	xorl	%esi, %esi
	#APP
	mfence
	pushfq
	cli
	popq	%rsi
	shlq	$16, %rsi
	movw	$1, %si
	lock
	xaddw	%si, 2(%rcx)
	cmpw	%si, (%rcx)
	je	.Ltmp560
.Ltmp561:
	btq	$25, %rsi
	jae	.Ltmp562
.Ltmp562:
	pause
	cmpw	%si, (%rcx)
	jne	.Ltmp561
.Ltmp560:
	btq	$25, %rsi
	jae	.Ltmp563
	orw	$1, 4(%rcx)
.Ltmp563:
	cli

	#NO_APP
.LBB112_5:                              # %LockSpinlock.exit.i
	movq	coreLocalSpace, %rsi
	xorl	%ecx, %ecx
	cmpq	$16, %rsi
	jb	.LBB112_7
# BB#6:
	movl	$8192, %ecx             # imm = 0x2000
	subq	%rsi, %rcx
	addq	virtMemData, %rcx
	addq	$-16, %rsi
	movq	%rsi, coreLocalSpace
.LBB112_7:                              # %VirtMemMan_AllocCoreLocalData.exit.i
	movq	vmem_lock, %rsi
	testq	%rsi, %rsi
	je	.LBB112_9
# BB#8:
	#APP
	mfence
	lock
	incw	(%rsi)
	btw	$0, 4(%rsi)
	jae	.Ltmp564
	sti
	movw	$0, 4(%rsi)
.Ltmp564:

	#NO_APP
.LBB112_9:                              # %AllocateAPLSMemory.exit
	movq	%rcx, apic_data
.LBB112_10:                             # %GetVirtualAddress.exit
	movl	%eax, %esi
	andl	$-4096, %esi            # imm = 0xFFFFFFFFFFFFF000
	movabsq	$-21474836480, %rdi     # imm = 0xFFFFFFFB00000000
	orq	%rsi, %rdi
	movq	%rdi, (%rcx)
	orl	$2048, %eax             # imm = 0x800
	movl	$27, %ecx
	#APP
	wrmsr
	#NO_APP
	movq	apic_data, %rax
	movq	(%rax), %rcx
	movl	128(%rcx), %ecx
	andl	$-256, %ecx
	movq	(%rax), %rax
	movl	%ecx, 128(%rax)
	movq	apic_data, %rax
	movq	(%rax), %rcx
	movl	240(%rcx), %ecx
	orl	$255, %ecx
	movq	(%rax), %rax
	movl	%ecx, 240(%rax)
	movq	apic_data, %rax
	movq	(%rax), %rcx
	movl	240(%rcx), %ecx
	orl	$256, %ecx              # imm = 0x100
	movq	(%rax), %rax
	movl	%ecx, 240(%rax)
	xorl	%eax, %eax
	popq	%rbp
	retq
.Lfunc_end112:
	.size	APIC_LocalInitialize, .Lfunc_end112-APIC_LocalInitialize
	.cfi_endproc

	.globl	APIC_Read
	.align	16, 0x90
	.type	APIC_Read,@function
APIC_Read:                              # @APIC_Read
	.cfi_startproc
# BB#0:
	pushq	%rbp
.Ltmp565:
	.cfi_def_cfa_offset 16
.Ltmp566:
	.cfi_offset %rbp, -16
	movq	%rsp, %rbp
.Ltmp567:
	.cfi_def_cfa_register %rbp
	andl	$-4, %edi
	movq	apic_data, %rax
	movq	(%rax), %rax
	movl	(%rax,%rdi), %eax
	popq	%rbp
	retq
.Lfunc_end113:
	.size	APIC_Read, .Lfunc_end113-APIC_Read
	.cfi_endproc

	.globl	APIC_Write
	.align	16, 0x90
	.type	APIC_Write,@function
APIC_Write:                             # @APIC_Write
	.cfi_startproc
# BB#0:
	pushq	%rbp
.Ltmp568:
	.cfi_def_cfa_offset 16
.Ltmp569:
	.cfi_offset %rbp, -16
	movq	%rsp, %rbp
.Ltmp570:
	.cfi_def_cfa_register %rbp
	andl	$-4, %edi
	movq	apic_data, %rax
	movq	(%rax), %rax
	movl	%esi, (%rax,%rdi)
	popq	%rbp
	retq
.Lfunc_end114:
	.size	APIC_Write, .Lfunc_end114-APIC_Write
	.cfi_endproc

	.globl	APIC_SetEnableMode
	.align	16, 0x90
	.type	APIC_SetEnableMode,@function
APIC_SetEnableMode:                     # @APIC_SetEnableMode
	.cfi_startproc
# BB#0:
	pushq	%rbp
.Ltmp571:
	.cfi_def_cfa_offset 16
.Ltmp572:
	.cfi_offset %rbp, -16
	movq	%rsp, %rbp
.Ltmp573:
	.cfi_def_cfa_register %rbp
	movq	apic_data, %rax
	movq	(%rax), %rcx
	movl	240(%rcx), %ecx
	andl	$1, %edi
	negl	%edi
	xorl	%ecx, %edi
	andl	$256, %edi              # imm = 0x100
	xorl	%ecx, %edi
	movq	(%rax), %rax
	movl	%edi, 240(%rax)
	popq	%rbp
	retq
.Lfunc_end115:
	.size	APIC_SetEnableMode, .Lfunc_end115-APIC_SetEnableMode
	.cfi_endproc

	.globl	APIC_CallibrateTimer
	.align	16, 0x90
	.type	APIC_CallibrateTimer,@function
APIC_CallibrateTimer:                   # @APIC_CallibrateTimer
	.cfi_startproc
# BB#0:
	pushq	%rbp
.Ltmp574:
	.cfi_def_cfa_offset 16
.Ltmp575:
	.cfi_offset %rbp, -16
	movq	%rsp, %rbp
.Ltmp576:
	.cfi_def_cfa_register %rbp
	movl	$0, rollover_cnt
	movl	$-1, pit_ticks
	movl	$0, apic_timer_value
	movq	$APIC_TimerCallibrateRollover, intHandlers+264
	movq	$ShadowInterruptHandler, idt_handler_calls+264
	movq	apic_data, %rax
	movq	(%rax), %rcx
	movl	800(%rcx), %ecx
	orl	$33, %ecx
	movq	(%rax), %rax
	movl	%ecx, 800(%rax)
	movq	apic_data, %rax
	movq	(%rax), %rax
	movl	$0, 896(%rax)
	movq	apic_data, %rax
	movq	(%rax), %rax
	movl	$3, 992(%rax)
	movq	$APIC_TimerCallibrate, intHandlers+256
	movq	$ShadowInterruptHandler, idt_handler_calls+256
	movq	apic_data, %rax
	movq	(%rax), %rax
	movl	$-1, 896(%rax)
	movq	apic_data, %rax
	movq	(%rax), %rcx
	movl	800(%rcx), %ecx
	orl	$131072, %ecx           # imm = 0x20000
	movq	(%rax), %rax
	movl	%ecx, 800(%rax)
	movl	ioapic_interruptMap+256, %eax
	cmpl	$-1, %eax
	je	.LBB116_2
# BB#1:
	movl	ioapic_interruptMap+260, %eax
	leal	16(%rax,%rax), %eax
	movl	ioapic_interruptMap+256, %ecx
	leaq	(%rcx,%rcx,2), %rcx
	movq	ioapics(,%rcx,8), %rcx
	movl	%eax, (%rcx)
	movl	16(%rcx), %edx
	andl	$-65537, %edx           # imm = 0xFFFFFFFFFFFEFFFF
	movl	%eax, (%rcx)
	movl	%edx, 16(%rcx)
.LBB116_2:                              # %PIT_SetEnableMode.exit1
	movq	apic_data, %rax
	movq	(%rax), %rcx
	movl	800(%rcx), %ecx
	andl	$-65537, %ecx           # imm = 0xFFFFFFFFFFFEFFFF
	movq	(%rax), %rax
	movl	%ecx, 800(%rax)
	movl	$0, pit_ticks
	.align	16, 0x90
.LBB116_3:                              # =>This Inner Loop Header: Depth=1
	movl	pit_ticks, %eax
	cmpl	$198, %eax
	jl	.LBB116_3
# BB#4:
	movl	ioapic_interruptMap+256, %eax
	cmpl	$-1, %eax
	je	.LBB116_6
# BB#5:
	movl	ioapic_interruptMap+260, %eax
	leal	16(%rax,%rax), %eax
	movl	ioapic_interruptMap+256, %ecx
	leaq	(%rcx,%rcx,2), %rcx
	movq	ioapics(,%rcx,8), %rcx
	movl	%eax, (%rcx)
	movl	16(%rcx), %edx
	orl	$65536, %edx            # imm = 0x10000
	movl	%eax, (%rcx)
	movl	%edx, 16(%rcx)
.LBB116_6:                              # %PIT_SetEnableMode.exit
	movq	apic_data, %rax
	movq	(%rax), %rcx
	movl	800(%rcx), %ecx
	orl	$65536, %ecx            # imm = 0x10000
	movq	(%rax), %rax
	movl	%ecx, 800(%rax)
	movl	apic_timer_value, %eax
	notl	%eax
	subl	rollover_cnt, %eax
	imulq	$19886, %rax, %rax      # imm = 0x4DAE
	shrq	%rax
	movabsq	$-6521576187675094005, %rcx # imm = 0xA57EB50295FAD40B
	mulq	%rcx
	shrq	$6, %rdx
	movq	apic_data, %rax
	movq	%rdx, 8(%rax)
	popq	%rbp
	retq
.Lfunc_end116:
	.size	APIC_CallibrateTimer, .Lfunc_end116-APIC_CallibrateTimer
	.cfi_endproc

	.globl	APIC_SetVector
	.align	16, 0x90
	.type	APIC_SetVector,@function
APIC_SetVector:                         # @APIC_SetVector
	.cfi_startproc
# BB#0:
	pushq	%rbp
.Ltmp577:
	.cfi_def_cfa_offset 16
.Ltmp578:
	.cfi_offset %rbp, -16
	movq	%rsp, %rbp
.Ltmp579:
	.cfi_def_cfa_register %rbp
	leal	-800(%rdi), %eax
	cmpl	$80, %eax
	ja	.LBB117_2
# BB#1:
	andl	$-4, %edi
	movq	apic_data, %rax
	movq	(%rax), %rcx
	movl	(%rcx,%rdi), %ecx
	movzbl	%sil, %edx
	orl	%ecx, %edx
	movq	(%rax), %rax
	movl	%edx, (%rax,%rdi)
.LBB117_2:
	popq	%rbp
	retq
.Lfunc_end117:
	.size	APIC_SetVector, .Lfunc_end117-APIC_SetVector
	.cfi_endproc

	.globl	APIC_SetTimerValue
	.align	16, 0x90
	.type	APIC_SetTimerValue,@function
APIC_SetTimerValue:                     # @APIC_SetTimerValue
	.cfi_startproc
# BB#0:
	pushq	%rbp
.Ltmp580:
	.cfi_def_cfa_offset 16
.Ltmp581:
	.cfi_offset %rbp, -16
	movq	%rsp, %rbp
.Ltmp582:
	.cfi_def_cfa_register %rbp
	movq	apic_data, %rax
	movq	(%rax), %rax
	movl	%edi, 896(%rax)
	popq	%rbp
	retq
.Lfunc_end118:
	.size	APIC_SetTimerValue, .Lfunc_end118-APIC_SetTimerValue
	.cfi_endproc

	.globl	APIC_SetTimerDivisor
	.align	16, 0x90
	.type	APIC_SetTimerDivisor,@function
APIC_SetTimerDivisor:                   # @APIC_SetTimerDivisor
	.cfi_startproc
# BB#0:
	pushq	%rbp
.Ltmp583:
	.cfi_def_cfa_offset 16
.Ltmp584:
	.cfi_offset %rbp, -16
	movq	%rsp, %rbp
.Ltmp585:
	.cfi_def_cfa_register %rbp
	cmpl	$16, %edi
	seta	%cl
	jbe	.LBB119_2
# BB#1:
	shrb	$4, %dil
.LBB119_2:
	movl	$11, %eax
	movzbl	%dil, %edx
	cmpl	$1, %edx
	je	.LBB119_6
# BB#3:
	movzbl	%cl, %eax
	shll	$3, %eax
	cmpl	$16, %edx
	jne	.LBB119_5
# BB#4:
	orl	$3, %eax
	jmp	.LBB119_6
.LBB119_5:
	shrb	$2, %dil
	movzbl	%dil, %ecx
	andl	$3, %ecx
	orl	%ecx, %eax
.LBB119_6:
	movzbl	%al, %eax
	movq	apic_data, %rcx
	movq	(%rcx), %rcx
	movl	%eax, 992(%rcx)
	popq	%rbp
	retq
.Lfunc_end119:
	.size	APIC_SetTimerDivisor, .Lfunc_end119-APIC_SetTimerDivisor
	.cfi_endproc

	.globl	APIC_SetTimerMode
	.align	16, 0x90
	.type	APIC_SetTimerMode,@function
APIC_SetTimerMode:                      # @APIC_SetTimerMode
	.cfi_startproc
# BB#0:
	pushq	%rbp
.Ltmp586:
	.cfi_def_cfa_offset 16
.Ltmp587:
	.cfi_offset %rbp, -16
	movq	%rsp, %rbp
.Ltmp588:
	.cfi_def_cfa_register %rbp
	movq	apic_data, %rax
	movq	(%rax), %rcx
	movl	800(%rcx), %ecx
	andl	$3, %edi
	shll	$17, %edi
	orl	%ecx, %edi
	movq	(%rax), %rax
	movl	%edi, 800(%rax)
	popq	%rbp
	retq
.Lfunc_end120:
	.size	APIC_SetTimerMode, .Lfunc_end120-APIC_SetTimerMode
	.cfi_endproc

	.globl	APIC_SetEnableInterrupt
	.align	16, 0x90
	.type	APIC_SetEnableInterrupt,@function
APIC_SetEnableInterrupt:                # @APIC_SetEnableInterrupt
	.cfi_startproc
# BB#0:
	pushq	%rbp
.Ltmp589:
	.cfi_def_cfa_offset 16
.Ltmp590:
	.cfi_offset %rbp, -16
	movq	%rsp, %rbp
.Ltmp591:
	.cfi_def_cfa_register %rbp
	leal	-800(%rdi), %eax
	cmpl	$80, %eax
	ja	.LBB121_2
# BB#1:
	andl	$-4, %edi
	movq	apic_data, %rax
	movq	(%rax), %rcx
	movl	(%rcx,%rdi), %ecx
	orl	$131070, %esi           # imm = 0x1FFFE
	incl	%esi
	xorl	%ecx, %esi
	andl	$65536, %esi            # imm = 0x10000
	xorl	%ecx, %esi
	movq	(%rax), %rax
	movl	%esi, (%rax,%rdi)
.LBB121_2:
	popq	%rbp
	retq
.Lfunc_end121:
	.size	APIC_SetEnableInterrupt, .Lfunc_end121-APIC_SetEnableInterrupt
	.cfi_endproc

	.globl	APIC_GetTimerFrequency
	.align	16, 0x90
	.type	APIC_GetTimerFrequency,@function
APIC_GetTimerFrequency:                 # @APIC_GetTimerFrequency
	.cfi_startproc
# BB#0:
	pushq	%rbp
.Ltmp592:
	.cfi_def_cfa_offset 16
.Ltmp593:
	.cfi_offset %rbp, -16
	movq	%rsp, %rbp
.Ltmp594:
	.cfi_def_cfa_register %rbp
	movq	apic_data, %rax
	movq	8(%rax), %rax
	popq	%rbp
	retq
.Lfunc_end122:
	.size	APIC_GetTimerFrequency, .Lfunc_end122-APIC_GetTimerFrequency
	.cfi_endproc

	.globl	APIC_SetDeliveryMode
	.align	16, 0x90
	.type	APIC_SetDeliveryMode,@function
APIC_SetDeliveryMode:                   # @APIC_SetDeliveryMode
	.cfi_startproc
# BB#0:
	pushq	%rbp
.Ltmp595:
	.cfi_def_cfa_offset 16
.Ltmp596:
	.cfi_offset %rbp, -16
	movq	%rsp, %rbp
.Ltmp597:
	.cfi_def_cfa_register %rbp
	leal	-800(%rdi), %eax
	cmpl	$64, %eax
	ja	.LBB123_2
# BB#1:
	andl	$-4, %edi
	movq	apic_data, %rax
	movq	(%rax), %rcx
	movl	(%rcx,%rdi), %ecx
	movzbl	%sil, %edx
	andl	$7, %edx
	shll	$8, %edx
	orl	%ecx, %edx
	movq	(%rax), %rax
	movl	%edx, (%rax,%rdi)
.LBB123_2:
	popq	%rbp
	retq
.Lfunc_end123:
	.size	APIC_SetDeliveryMode, .Lfunc_end123-APIC_SetDeliveryMode
	.cfi_endproc

	.globl	APIC_SetTriggerMode
	.align	16, 0x90
	.type	APIC_SetTriggerMode,@function
APIC_SetTriggerMode:                    # @APIC_SetTriggerMode
	.cfi_startproc
# BB#0:
	pushq	%rbp
.Ltmp598:
	.cfi_def_cfa_offset 16
.Ltmp599:
	.cfi_offset %rbp, -16
	movq	%rsp, %rbp
.Ltmp600:
	.cfi_def_cfa_register %rbp
	leal	-848(%rdi), %eax
	cmpl	$16, %eax
	ja	.LBB124_2
# BB#1:
	andl	$-4, %edi
	movq	apic_data, %rax
	movq	(%rax), %rcx
	movl	(%rcx,%rdi), %ecx
	movzbl	%sil, %edx
	andl	$1, %edx
	shll	$15, %edx
	orl	%ecx, %edx
	movq	(%rax), %rax
	movl	%edx, (%rax,%rdi)
.LBB124_2:
	popq	%rbp
	retq
.Lfunc_end124:
	.size	APIC_SetTriggerMode, .Lfunc_end124-APIC_SetTriggerMode
	.cfi_endproc

	.globl	APIC_SetPolarity
	.align	16, 0x90
	.type	APIC_SetPolarity,@function
APIC_SetPolarity:                       # @APIC_SetPolarity
	.cfi_startproc
# BB#0:
	pushq	%rbp
.Ltmp601:
	.cfi_def_cfa_offset 16
.Ltmp602:
	.cfi_offset %rbp, -16
	movq	%rsp, %rbp
.Ltmp603:
	.cfi_def_cfa_register %rbp
	leal	-848(%rdi), %eax
	cmpl	$16, %eax
	ja	.LBB125_2
# BB#1:
	andl	$-4, %edi
	movq	apic_data, %rax
	movq	(%rax), %rcx
	movl	(%rcx,%rdi), %ecx
	movzbl	%sil, %edx
	andl	$1, %edx
	shll	$13, %edx
	orl	%ecx, %edx
	movq	(%rax), %rax
	movl	%edx, (%rax,%rdi)
.LBB125_2:
	popq	%rbp
	retq
.Lfunc_end125:
	.size	APIC_SetPolarity, .Lfunc_end125-APIC_SetPolarity
	.cfi_endproc

	.globl	APIC_GetTimerValue
	.align	16, 0x90
	.type	APIC_GetTimerValue,@function
APIC_GetTimerValue:                     # @APIC_GetTimerValue
	.cfi_startproc
# BB#0:
	pushq	%rbp
.Ltmp604:
	.cfi_def_cfa_offset 16
.Ltmp605:
	.cfi_offset %rbp, -16
	movq	%rsp, %rbp
.Ltmp606:
	.cfi_def_cfa_register %rbp
	movq	apic_data, %rax
	movq	(%rax), %rax
	movl	912(%rax), %eax
	popq	%rbp
	retq
.Lfunc_end126:
	.size	APIC_GetTimerValue, .Lfunc_end126-APIC_GetTimerValue
	.cfi_endproc

	.globl	APIC_GetID
	.align	16, 0x90
	.type	APIC_GetID,@function
APIC_GetID:                             # @APIC_GetID
	.cfi_startproc
# BB#0:
	pushq	%rbp
.Ltmp607:
	.cfi_def_cfa_offset 16
.Ltmp608:
	.cfi_offset %rbp, -16
	movq	%rsp, %rbp
.Ltmp609:
	.cfi_def_cfa_register %rbp
	movq	apic_data, %rax
	movq	(%rax), %rcx
	movl	$255, %eax
	andl	32(%rcx), %eax
	popq	%rbp
	retq
.Lfunc_end127:
	.size	APIC_GetID, .Lfunc_end127-APIC_GetID
	.cfi_endproc

	.globl	APIC_SendEOI
	.align	16, 0x90
	.type	APIC_SendEOI,@function
APIC_SendEOI:                           # @APIC_SendEOI
	.cfi_startproc
# BB#0:
	pushq	%rbp
.Ltmp610:
	.cfi_def_cfa_offset 16
.Ltmp611:
	.cfi_offset %rbp, -16
	movq	%rsp, %rbp
.Ltmp612:
	.cfi_def_cfa_register %rbp
	movl	%edi, %ecx
	movb	%cl, %al
	shrb	$5, %al
	movzbl	%al, %edx
	shlq	$4, %rdx
	movq	apic_data, %rax
	movq	(%rax), %rsi
	movl	$1, %edi
	shll	%cl, %edi
	andl	256(%rsi,%rdx), %edi
	shrl	%cl, %edi
	testl	%edi, %edi
	je	.LBB128_2
# BB#1:
	movq	(%rax), %rax
	movl	$0, 176(%rax)
.LBB128_2:
	popq	%rbp
	retq
.Lfunc_end128:
	.size	APIC_SendEOI, .Lfunc_end128-APIC_SendEOI
	.cfi_endproc

	.globl	APIC_SendIPI
	.align	16, 0x90
	.type	APIC_SendIPI,@function
APIC_SendIPI:                           # @APIC_SendIPI
	.cfi_startproc
# BB#0:
	pushq	%rbp
.Ltmp613:
	.cfi_def_cfa_offset 16
.Ltmp614:
	.cfi_offset %rbp, -16
	movq	%rsp, %rbp
.Ltmp615:
	.cfi_def_cfa_register %rbp
	shll	$24, %edi
	andl	$7, %edx
	shll	$8, %edx
	orl	%esi, %edx
	orl	$16384, %edx            # imm = 0x4000
	movq	apic_data, %rax
	movq	(%rax), %rax
	movl	%edi, 784(%rax)
	movq	apic_data, %rax
	movq	(%rax), %rax
	movl	%edx, 768(%rax)
	popq	%rbp
	retq
.Lfunc_end129:
	.size	APIC_SendIPI, .Lfunc_end129-APIC_SendIPI
	.cfi_endproc

	.align	16, 0x90
	.type	APIC_TimerCallibrateRollover,@function
APIC_TimerCallibrateRollover:           # @APIC_TimerCallibrateRollover
	.cfi_startproc
# BB#0:
	pushq	%rbp
.Ltmp616:
	.cfi_def_cfa_offset 16
.Ltmp617:
	.cfi_offset %rbp, -16
	movq	%rsp, %rbp
.Ltmp618:
	.cfi_def_cfa_register %rbp
	cmpl	$33, %edi
	jne	.LBB130_2
# BB#1:
	incl	rollover_cnt
.LBB130_2:
	popq	%rbp
	retq
.Lfunc_end130:
	.size	APIC_TimerCallibrateRollover, .Lfunc_end130-APIC_TimerCallibrateRollover
	.cfi_endproc

	.align	16, 0x90
	.type	APIC_TimerCallibrate,@function
APIC_TimerCallibrate:                   # @APIC_TimerCallibrate
	.cfi_startproc
# BB#0:
	pushq	%rbp
.Ltmp619:
	.cfi_def_cfa_offset 16
.Ltmp620:
	.cfi_offset %rbp, -16
	movq	%rsp, %rbp
.Ltmp621:
	.cfi_def_cfa_register %rbp
	cmpl	$32, %edi
	jne	.LBB131_4
# BB#1:
	cmpl	$0, pit_ticks
	js	.LBB131_4
# BB#2:
	incl	pit_ticks
	movl	pit_ticks, %eax
	cmpl	$198, %eax
	jne	.LBB131_4
# BB#3:
	movq	apic_data, %rax
	movq	(%rax), %rax
	movl	912(%rax), %eax
	movl	%eax, apic_timer_value
.LBB131_4:
	popq	%rbp
	retq
.Lfunc_end131:
	.size	APIC_TimerCallibrate, .Lfunc_end131-APIC_TimerCallibrate
	.cfi_endproc

	.globl	IOAPIC_Initialize
	.align	16, 0x90
	.type	IOAPIC_Initialize,@function
IOAPIC_Initialize:                      # @IOAPIC_Initialize
	.cfi_startproc
# BB#0:
	pushq	%rbp
.Ltmp622:
	.cfi_def_cfa_offset 16
.Ltmp623:
	.cfi_offset %rbp, -16
	movq	%rsp, %rbp
.Ltmp624:
	.cfi_def_cfa_register %rbp
	movl	curIOAPIC_index, %ecx
	movb	$-1, %al
	cmpl	$127, %ecx
	ja	.LBB132_2
# BB#1:
	movl	curIOAPIC_index, %eax
	leaq	(%rax,%rax,2), %rax
	movq	%rdi, ioapics(,%rax,8)
	movl	curIOAPIC_index, %eax
	leaq	(%rax,%rax,2), %rax
	movl	%esi, ioapics+8(,%rax,8)
	movl	$0, (%rdi)
	movl	16(%rdi), %eax
	shrl	$24, %eax
	andl	$15, %eax
	movl	curIOAPIC_index, %ecx
	leaq	(%rcx,%rcx,2), %rcx
	movl	%eax, ioapics+12(,%rcx,8)
	movl	$1, (%rdi)
	movl	16(%rdi), %eax
	shrl	$16, %eax
	movzbl	%al, %eax
	movl	curIOAPIC_index, %ecx
	leaq	(%rcx,%rcx,2), %rcx
	movl	%eax, ioapics+16(,%rcx,8)
	incl	curIOAPIC_index
	xorl	%eax, %eax
.LBB132_2:
	movzbl	%al, %eax
	popq	%rbp
	retq
.Lfunc_end132:
	.size	IOAPIC_Initialize, .Lfunc_end132-IOAPIC_Initialize
	.cfi_endproc

	.globl	IOAPIC_Read
	.align	16, 0x90
	.type	IOAPIC_Read,@function
IOAPIC_Read:                            # @IOAPIC_Read
	.cfi_startproc
# BB#0:
	pushq	%rbp
.Ltmp625:
	.cfi_def_cfa_offset 16
.Ltmp626:
	.cfi_offset %rbp, -16
	movq	%rsp, %rbp
.Ltmp627:
	.cfi_def_cfa_register %rbp
	movl	%esi, (%rdi)
	movl	16(%rdi), %eax
	popq	%rbp
	retq
.Lfunc_end133:
	.size	IOAPIC_Read, .Lfunc_end133-IOAPIC_Read
	.cfi_endproc

	.globl	IOAPIC_Write
	.align	16, 0x90
	.type	IOAPIC_Write,@function
IOAPIC_Write:                           # @IOAPIC_Write
	.cfi_startproc
# BB#0:
	pushq	%rbp
.Ltmp628:
	.cfi_def_cfa_offset 16
.Ltmp629:
	.cfi_offset %rbp, -16
	movq	%rsp, %rbp
.Ltmp630:
	.cfi_def_cfa_register %rbp
	movl	%esi, (%rdi)
	movl	%edx, 16(%rdi)
	popq	%rbp
	retq
.Lfunc_end134:
	.size	IOAPIC_Write, .Lfunc_end134-IOAPIC_Write
	.cfi_endproc

	.globl	IOAPIC_GetVector
	.align	16, 0x90
	.type	IOAPIC_GetVector,@function
IOAPIC_GetVector:                       # @IOAPIC_GetVector
	.cfi_startproc
# BB#0:
	pushq	%rbp
.Ltmp631:
	.cfi_def_cfa_offset 16
.Ltmp632:
	.cfi_offset %rbp, -16
	movq	%rsp, %rbp
.Ltmp633:
	.cfi_def_cfa_register %rbp
	movb	$-1, %r8b
	cmpl	$0, curIOAPIC_index
	je	.LBB135_8
# BB#1:                                 # %.lr.ph
	movzbl	%dil, %r11d
	xorl	%r10d, %r10d
	xorl	%eax, %eax
	xorl	%r9d, %r9d
	.align	16, 0x90
.LBB135_2:                              # =>This Inner Loop Header: Depth=1
	movl	%eax, %eax
	leaq	(%rax,%rax,2), %rdx
	cmpl	ioapics+8(,%rdx,8), %r11d
	jb	.LBB135_5
# BB#3:                                 #   in Loop: Header=BB135_2 Depth=1
	leaq	ioapics+8(,%rdx,8), %rcx
	movl	(%rcx), %edi
	addl	ioapics+16(,%rdx,8), %edi
	cmpl	%edi, %r11d
	jae	.LBB135_5
# BB#4:                                 #   in Loop: Header=BB135_2 Depth=1
	movl	%r11d, %r10d
	subl	(%rcx), %r10d
	movq	ioapics(,%rdx,8), %r9
.LBB135_5:                              #   in Loop: Header=BB135_2 Depth=1
	incl	%eax
	cmpl	curIOAPIC_index, %eax
	jb	.LBB135_2
# BB#6:                                 # %._crit_edge
	testq	%r9, %r9
	je	.LBB135_8
# BB#7:
	leal	16(%r10,%r10), %eax
	movl	%eax, (%r9)
	movl	16(%r9), %r8d
	movb	%r8b, (%rsi)
.LBB135_8:                              # %._crit_edge.thread
	movzbl	%r8b, %eax
	popq	%rbp
	retq
.Lfunc_end135:
	.size	IOAPIC_GetVector, .Lfunc_end135-IOAPIC_GetVector
	.cfi_endproc

	.globl	IOAPIC_MapIRQ
	.align	16, 0x90
	.type	IOAPIC_MapIRQ,@function
IOAPIC_MapIRQ:                          # @IOAPIC_MapIRQ
	.cfi_startproc
# BB#0:
	pushq	%rbp
.Ltmp634:
	.cfi_def_cfa_offset 16
.Ltmp635:
	.cfi_offset %rbp, -16
	movq	%rsp, %rbp
.Ltmp636:
	.cfi_def_cfa_register %rbp
	pushq	%r15
	pushq	%r14
	pushq	%rbx
.Ltmp637:
	.cfi_offset %rbx, -40
.Ltmp638:
	.cfi_offset %r14, -32
.Ltmp639:
	.cfi_offset %r15, -24
	cmpl	$0, curIOAPIC_index
	je	.LBB136_8
# BB#1:                                 # %.lr.ph
	movzbl	%dil, %r15d
	movzbl	%sil, %r11d
	xorl	%r14d, %r14d
	xorl	%r10d, %r10d
	xorl	%esi, %esi
	.align	16, 0x90
.LBB136_2:                              # =>This Inner Loop Header: Depth=1
	movl	%esi, %edi
	leaq	(%rdi,%rdi,2), %rbx
	cmpl	ioapics+8(,%rbx,8), %r15d
	jb	.LBB136_5
# BB#3:                                 #   in Loop: Header=BB136_2 Depth=1
	leaq	ioapics+8(,%rbx,8), %rdi
	movl	(%rdi), %eax
	addl	ioapics+16(,%rbx,8), %eax
	cmpl	%eax, %r15d
	jae	.LBB136_5
# BB#4:                                 #   in Loop: Header=BB136_2 Depth=1
	movl	%r15d, %r14d
	subl	(%rdi), %r14d
	movq	ioapics(,%rbx,8), %r10
	movl	%esi, ioapic_interruptMap(,%r11,8)
	movl	%r14d, ioapic_interruptMap+4(,%r11,8)
.LBB136_5:                              #   in Loop: Header=BB136_2 Depth=1
	incl	%esi
	cmpl	curIOAPIC_index, %esi
	jb	.LBB136_2
# BB#6:                                 # %._crit_edge
	testq	%r10, %r10
	je	.LBB136_8
# BB#7:
	leal	16(%r14,%r14), %eax
	leal	17(%r14,%r14), %esi
	movl	%esi, (%r10)
	movl	16(%r10), %edi
	andl	$16777215, %edi         # imm = 0xFFFFFF
	shlq	$24, %rdx
	orl	%edi, %edx
	movl	%esi, (%r10)
	movl	%edx, 16(%r10)
	movl	%eax, (%r10)
	movl	16(%r10), %edx
	andl	$-45056, %edx           # imm = 0xFFFFFFFFFFFF5000
	movzbl	%r8b, %esi
	andl	$1, %esi
	shll	$13, %esi
	movzbl	%cl, %ecx
	andl	$1, %ecx
	shll	$15, %ecx
	movzbl	%r9b, %edi
	andl	$7, %edi
	shll	$8, %edi
	orl	%r11d, %ecx
	orl	%esi, %ecx
	orl	%edi, %ecx
	orl	%edx, %ecx
	movl	%eax, (%r10)
	movl	%ecx, 16(%r10)
.LBB136_8:                              # %._crit_edge.thread
	popq	%rbx
	popq	%r14
	popq	%r15
	popq	%rbp
	retq
.Lfunc_end136:
	.size	IOAPIC_MapIRQ, .Lfunc_end136-IOAPIC_MapIRQ
	.cfi_endproc

	.globl	IOAPIC_SetEnableMode
	.align	16, 0x90
	.type	IOAPIC_SetEnableMode,@function
IOAPIC_SetEnableMode:                   # @IOAPIC_SetEnableMode
	.cfi_startproc
# BB#0:
	pushq	%rbp
.Ltmp640:
	.cfi_def_cfa_offset 16
.Ltmp641:
	.cfi_offset %rbp, -16
	movq	%rsp, %rbp
.Ltmp642:
	.cfi_def_cfa_register %rbp
	movl	ioapic_interruptMap(,%rdi,8), %eax
	cmpl	$-1, %eax
	je	.LBB137_2
# BB#1:
	movl	ioapic_interruptMap+4(,%rdi,8), %eax
	leal	16(%rax,%rax), %eax
	movl	ioapic_interruptMap(,%rdi,8), %ecx
	leaq	(%rcx,%rcx,2), %rcx
	movq	ioapics(,%rcx,8), %rcx
	movl	%eax, (%rcx)
	movl	16(%rcx), %edx
	movzbl	%sil, %esi
	orl	$131070, %esi           # imm = 0x1FFFE
	incl	%esi
	xorl	%edx, %esi
	andl	$65536, %esi            # imm = 0x10000
	xorl	%edx, %esi
	movl	%eax, (%rcx)
	movl	%esi, 16(%rcx)
.LBB137_2:
	popq	%rbp
	retq
.Lfunc_end137:
	.size	IOAPIC_SetEnableMode, .Lfunc_end137-IOAPIC_SetEnableMode
	.cfi_endproc

	.globl	APIC_Initialize
	.align	16, 0x90
	.type	APIC_Initialize,@function
APIC_Initialize:                        # @APIC_Initialize
	.cfi_startproc
# BB#0:
	pushq	%rbp
.Ltmp643:
	.cfi_def_cfa_offset 16
.Ltmp644:
	.cfi_offset %rbp, -16
	movq	%rsp, %rbp
.Ltmp645:
	.cfi_def_cfa_register %rbp
	pushq	%r15
	pushq	%r14
	pushq	%r13
	pushq	%r12
	pushq	%rbx
	pushq	%rax
.Ltmp646:
	.cfi_offset %rbx, -56
.Ltmp647:
	.cfi_offset %r12, -48
.Ltmp648:
	.cfi_offset %r13, -40
.Ltmp649:
	.cfi_offset %r14, -32
.Ltmp650:
	.cfi_offset %r15, -24
	movl	$1, %eax
	xorl	%ecx, %ecx
	#APP
	cpuid

	#NO_APP
	movl	%edx, edx
	testb	$2, %dh
	movl	%ebx, ebx
	movl	$-1, %eax
	je	.LBB138_37
# BB#1:
	movq	$0, smp_threads
	movb	$17, %al
	#APP
	outb	%al, $32
	#NO_APP
	movb	$17, %al
	#APP
	outb	%al, $160
	#NO_APP
	movb	$32, %al
	#APP
	outb	%al, $33
	#NO_APP
	movb	$40, %al
	#APP
	outb	%al, $161
	#NO_APP
	movb	$4, %al
	#APP
	outb	%al, $33
	#NO_APP
	movb	$2, %al
	#APP
	outb	%al, $161
	#NO_APP
	movb	$1, %al
	#APP
	outb	%al, $33
	#NO_APP
	movb	$1, %al
	#APP
	outb	%al, $161
	#NO_APP
	movb	$-1, %al
	#APP
	outb	%al, $33
	#NO_APP
	movb	$-1, %al
	#APP
	outb	%al, $161
	#NO_APP
	callq	APIC_LocalInitialize
	xorl	%r14d, %r14d
	movq	$.L.str.71, %rdi
	xorl	%esi, %esi
	callq	ACPITables_FindTable
	movq	%rax, %r13
	movl	$19886, curFrequency    # imm = 0x4DAE
	movb	$52, %al
	#APP
	outb	%al, $67
	#NO_APP
	movb	$60, %al
	#APP
	outb	%al, $64
	#NO_APP
	xorl	%eax, %eax
	#APP
	outb	%al, $64
	#NO_APP
	testq	%r13, %r13
	je	.LBB138_38
# BB#2:
	movl	4(%r13), %r15d
	addl	$-44, %r15d
	.align	16, 0x90
.LBB138_3:                              # %.preheader
                                        # =>This Loop Header: Depth=1
                                        #     Child Loop BB138_5 Depth 2
                                        #       Child Loop BB138_15 Depth 3
                                        #       Child Loop BB138_20 Depth 3
                                        #         Child Loop BB138_22 Depth 4
	testl	%r15d, %r15d
	je	.LBB138_35
# BB#4:                                 # %.lr.ph
                                        #   in Loop: Header=BB138_3 Depth=1
	xorl	%eax, %eax
	.align	16, 0x90
.LBB138_5:                              #   Parent Loop BB138_3 Depth=1
                                        # =>  This Loop Header: Depth=2
                                        #       Child Loop BB138_15 Depth 3
                                        #       Child Loop BB138_20 Depth 3
                                        #         Child Loop BB138_22 Depth 4
	movl	%eax, %r12d
	movzbl	44(%r13,%r12), %eax
	cmpl	$2, %eax
	je	.LBB138_29
# BB#6:                                 #   in Loop: Header=BB138_5 Depth=2
	cmpl	$1, %eax
	jne	.LBB138_7
# BB#16:                                #   in Loop: Header=BB138_5 Depth=2
	testl	%r14d, %r14d
	jne	.LBB138_34
# BB#17:                                # %GetVirtualAddress.exit
                                        #   in Loop: Header=BB138_5 Depth=2
	movl	48(%r13,%r12), %eax
	movl	52(%r13,%r12), %ecx
	movl	curIOAPIC_index, %edx
	cmpl	$127, %edx
	ja	.LBB138_19
# BB#18:                                #   in Loop: Header=BB138_5 Depth=2
	movabsq	$-21474836480, %rdx     # imm = 0xFFFFFFFB00000000
	orq	%rdx, %rax
	movl	curIOAPIC_index, %edx
	leaq	(%rdx,%rdx,2), %rdx
	movq	%rax, ioapics(,%rdx,8)
	movl	curIOAPIC_index, %edx
	leaq	(%rdx,%rdx,2), %rdx
	movl	%ecx, ioapics+8(,%rdx,8)
	movl	$0, (%rax)
	movl	16(%rax), %ecx
	shrl	$24, %ecx
	andl	$15, %ecx
	movl	curIOAPIC_index, %edx
	leaq	(%rdx,%rdx,2), %rdx
	movl	%ecx, ioapics+12(,%rdx,8)
	movl	$1, (%rax)
	movl	16(%rax), %eax
	shrl	$16, %eax
	movzbl	%al, %eax
	movl	curIOAPIC_index, %ecx
	leaq	(%rcx,%rcx,2), %rcx
	movl	%eax, ioapics+16(,%rcx,8)
	incl	curIOAPIC_index
.LBB138_19:                             # %IOAPIC_Initialize.exit.preheader
                                        #   in Loop: Header=BB138_5 Depth=2
	movq	apic_data, %r8
	xorl	%ecx, %ecx
	.align	16, 0x90
.LBB138_20:                             # %IOAPIC_Initialize.exit
                                        #   Parent Loop BB138_3 Depth=1
                                        #     Parent Loop BB138_5 Depth=2
                                        # =>    This Loop Header: Depth=3
                                        #         Child Loop BB138_22 Depth 4
	movq	(%r8), %rax
	movl	32(%rax), %r10d
	cmpl	$0, curIOAPIC_index
	je	.LBB138_28
# BB#21:                                # %.lr.ph.i
                                        #   in Loop: Header=BB138_20 Depth=3
	leaq	32(%rcx), %r9
	xorl	%ebx, %ebx
	xorl	%r11d, %r11d
	xorl	%eax, %eax
	.align	16, 0x90
.LBB138_22:                             #   Parent Loop BB138_3 Depth=1
                                        #     Parent Loop BB138_5 Depth=2
                                        #       Parent Loop BB138_20 Depth=3
                                        # =>      This Inner Loop Header: Depth=4
	movl	%eax, %edx
	leaq	(%rdx,%rdx,2), %rdx
	movl	ioapics+8(,%rdx,8), %esi
	cmpq	%rsi, %rcx
	jb	.LBB138_25
# BB#23:                                #   in Loop: Header=BB138_22 Depth=4
	leaq	ioapics+8(,%rdx,8), %rsi
	movl	(%rsi), %edi
	addl	ioapics+16(,%rdx,8), %edi
	cmpq	%rdi, %rcx
	jae	.LBB138_25
# BB#24:                                #   in Loop: Header=BB138_22 Depth=4
	movl	%ecx, %ebx
	subl	(%rsi), %ebx
	movq	ioapics(,%rdx,8), %r11
	movl	%eax, ioapic_interruptMap+256(,%rcx,8)
	movl	%ebx, ioapic_interruptMap+260(,%rcx,8)
.LBB138_25:                             #   in Loop: Header=BB138_22 Depth=4
	incl	%eax
	cmpl	curIOAPIC_index, %eax
	jb	.LBB138_22
# BB#26:                                # %._crit_edge.i
                                        #   in Loop: Header=BB138_20 Depth=3
	testq	%r11, %r11
	je	.LBB138_28
# BB#27:                                #   in Loop: Header=BB138_20 Depth=3
	leal	16(%rbx,%rbx), %eax
	leal	17(%rbx,%rbx), %edx
	movl	%edx, (%r11)
	movl	16(%r11), %esi
	andl	$16777215, %esi         # imm = 0xFFFFFF
	shll	$24, %r10d
	orl	%esi, %r10d
	movl	%edx, (%r11)
	movl	%r10d, 16(%r11)
	movl	%eax, (%r11)
	movl	16(%r11), %edx
	andl	$-45056, %edx           # imm = 0xFFFFFFFFFFFF5000
	orl	%edx, %r9d
	movl	%eax, (%r11)
	movl	%r9d, 16(%r11)
.LBB138_28:                             # %IOAPIC_MapIRQ.exit
                                        #   in Loop: Header=BB138_20 Depth=3
	incq	%rcx
	cmpq	$16, %rcx
	jne	.LBB138_20
	jmp	.LBB138_34
	.align	16, 0x90
.LBB138_29:                             #   in Loop: Header=BB138_5 Depth=2
	cmpl	$1, %r14d
	jne	.LBB138_34
# BB#30:                                #   in Loop: Header=BB138_5 Depth=2
	movb	52(%r13,%r12), %bl
	movb	47(%r13,%r12), %cl
	movb	48(%r13,%r12), %sil
	movq	apic_data, %rax
	movq	(%rax), %rax
	movl	32(%rax), %eax
	movzbl	%al, %edx
	movb	%bl, %al
	shrb	$3, %al
	andb	$1, %al
	shrb	%bl
	andb	$1, %bl
	movzbl	%sil, %edi
	testb	%cl, %cl
	je	.LBB138_31
# BB#32:                                #   in Loop: Header=BB138_5 Depth=2
	movzbl	%cl, %esi
	movzbl	%al, %ecx
	movzbl	%bl, %r8d
	jmp	.LBB138_33
	.align	16, 0x90
.LBB138_7:                              #   in Loop: Header=BB138_5 Depth=2
	testl	%eax, %eax
	jne	.LBB138_34
# BB#8:                                 #   in Loop: Header=BB138_5 Depth=2
	testl	%r14d, %r14d
	je	.LBB138_9
# BB#12:                                #   in Loop: Header=BB138_5 Depth=2
	movb	47(%r13,%r12), %cl
	movq	apic_data, %rax
	movq	(%rax), %rdx
	movl	32(%rdx), %edx
	cmpl	$2, %r14d
	jne	.LBB138_34
# BB#13:                                #   in Loop: Header=BB138_5 Depth=2
	movzbl	%cl, %ecx
	movzbl	%dl, %edx
	cmpl	%edx, %ecx
	je	.LBB138_34
# BB#14:                                #   in Loop: Header=BB138_5 Depth=2
	shll	$24, %ecx
	movq	(%rax), %rax
	movl	%ecx, 784(%rax)
	movq	apic_data, %rax
	movq	(%rax), %rax
	movl	$17664, 768(%rax)       # imm = 0x4500
	movl	$10, %edi
	callq	PIT_Sleep
	movzbl	47(%r13,%r12), %eax
	shll	$24, %eax
	movq	apic_data, %rcx
	movq	(%rcx), %rcx
	movl	%eax, 784(%rcx)
	movq	apic_data, %rax
	movq	(%rax), %rax
	movl	$17935, 768(%rax)       # imm = 0x460F
	movl	smp_coreCount, %eax
	movl	%eax, -44(%rbp)
	.align	16, 0x90
.LBB138_15:                             #   Parent Loop BB138_3 Depth=1
                                        #     Parent Loop BB138_5 Depth=2
                                        # =>    This Inner Loop Header: Depth=3
	movl	-44(%rbp), %eax
	cmpl	smp_coreCount, %eax
	je	.LBB138_15
	jmp	.LBB138_34
.LBB138_31:                             #   in Loop: Header=BB138_5 Depth=2
	movzbl	%al, %ecx
	movzbl	%bl, %r8d
	movl	$32, %esi
.LBB138_33:                             # %.loopexit
                                        #   in Loop: Header=BB138_5 Depth=2
	xorl	%r9d, %r9d
	callq	IOAPIC_MapIRQ
	jmp	.LBB138_34
.LBB138_9:                              #   in Loop: Header=BB138_5 Depth=2
	movl	pos, %eax
	movq	%rax, %rcx
	addq	$16, %rcx
	cmpq	$5242881, %rcx          # imm = 0x500001
	jb	.LBB138_11
# BB#10:                                #   in Loop: Header=BB138_5 Depth=2
	#APP
	cli
	hlt
	#NO_APP
	movl	pos, %eax
.LBB138_11:                             # %bootstrap_malloc.exit
                                        #   in Loop: Header=BB138_5 Depth=2
	movl	%eax, %ecx
	leaq	mem_pool(%rcx), %rdx
	addl	$16, %eax
	movl	%eax, pos
	movq	$0, mem_pool(%rcx)
	movzbl	47(%r13,%r12), %eax
	movl	%eax, mem_pool(%rcx)
	movzbl	46(%r13,%r12), %eax
	movl	%eax, mem_pool+4(%rcx)
	movq	smp_threads, %rax
	movq	%rax, mem_pool+8(%rcx)
	movq	%rdx, smp_threads
	.align	16, 0x90
.LBB138_34:                             # %.loopexit
                                        #   in Loop: Header=BB138_5 Depth=2
	movzbl	45(%r13,%r12), %eax
	leal	(%rax,%r12), %ecx
	testl	%eax, %eax
	leal	8(%rax,%r12), %eax
	cmovnel	%ecx, %eax
	cmpl	%r15d, %eax
	jb	.LBB138_5
.LBB138_35:                             # %._crit_edge
                                        #   in Loop: Header=BB138_3 Depth=1
	incl	%r14d
	cmpl	$3, %r14d
	jne	.LBB138_3
# BB#36:
	#APP
	sti
	#NO_APP
	callq	APIC_CallibrateTimer
	xorl	%eax, %eax
.LBB138_37:
	addq	$8, %rsp
	popq	%rbx
	popq	%r12
	popq	%r13
	popq	%r14
	popq	%r15
	popq	%rbp
	retq
.LBB138_38:
	movl	$255, %edi
	callq	bootstrap_kernel_panic
.Lfunc_end138:
	.size	APIC_Initialize, .Lfunc_end138-APIC_Initialize
	.cfi_endproc

	.globl	MemMan_Initialize
	.align	16, 0x90
	.type	MemMan_Initialize,@function
MemMan_Initialize:                      # @MemMan_Initialize
	.cfi_startproc
# BB#0:
	pushq	%rbp
.Ltmp651:
	.cfi_def_cfa_offset 16
.Ltmp652:
	.cfi_offset %rbp, -16
	movq	%rsp, %rbp
.Ltmp653:
	.cfi_def_cfa_register %rbp
	pushq	%r15
	pushq	%r14
	pushq	%r13
	pushq	%r12
	pushq	%rbx
	pushq	%rax
.Ltmp654:
	.cfi_offset %rbx, -56
.Ltmp655:
	.cfi_offset %r12, -48
.Ltmp656:
	.cfi_offset %r13, -40
.Ltmp657:
	.cfi_offset %r14, -32
.Ltmp658:
	.cfi_offset %r15, -24
	movq	bootInfo, %rdx
	movq	%rdx, %rax
	shrq	$12, %rax
	movq	%rax, page_count
	movq	%rax, freePageCount
	movq	%rdx, %rcx
	shrq	$18, %rcx
	decq	%rcx
	xorl	%esi, %esi
	cmpq	$524289, %rax           # imm = 0x80001
	cmovbq	%rcx, %rsi
	movq	%rsi, lastNonFullPage
	shrq	$17, %rdx
	movl	%edx, KB4_Blocks_Count
	shlq	$2, %rdx
	movabsq	$17179869180, %rbx      # imm = 0x3FFFFFFFC
	andq	%rdx, %rbx
	movl	pos, %eax
	leaq	(%rax,%rbx), %rcx
	cmpq	$5242881, %rcx          # imm = 0x500001
	jb	.LBB139_2
# BB#1:
	#APP
	cli
	hlt
	#NO_APP
	movl	pos, %eax
.LBB139_2:
	movl	%eax, %r15d
	leaq	mem_pool(%r15), %r12
	movl	%edx, %ecx
	addl	%eax, %ecx
	movl	%ecx, pos
	testq	%rbx, %rbx
	je	.LBB139_8
# BB#3:                                 # %.lr.ph.i.i
	leaq	-1(%rbx), %r14
	movq	%rdx, %r13
	andq	$4, %r13
	jne	.LBB139_5
# BB#4:
	movq	%r12, %rax
	jmp	.LBB139_6
.LBB139_5:                              # %.preheader.i.i.preheader
	andl	$4, %edx
	xorl	%esi, %esi
	movq	%r12, %rdi
	callq	memset
	leaq	mem_pool(%r15,%r13), %rax
	subq	%r13, %rbx
.LBB139_6:                              # %.lr.ph.split.i.i
	cmpq	$7, %r14
	jb	.LBB139_8
	.align	16, 0x90
.LBB139_7:                              # %.lr.ph.split.split.i.i
                                        # =>This Inner Loop Header: Depth=1
	addq	$-8, %rbx
	movq	$0, (%rax)
	leaq	8(%rax), %rax
	jne	.LBB139_7
.LBB139_8:                              # %bootstrap_malloc.exit
	movq	%r12, KB4_Blocks_Bitmap
	movl	KB4_Blocks_Count, %r13d
	testq	%r13, %r13
	je	.LBB139_14
# BB#9:                                 # %.lr.ph.i.1
	leaq	(,%r13,4), %rbx
	leaq	-1(%rbx), %rcx
	testb	$4, %bl
	jne	.LBB139_11
# BB#10:
	movq	%r12, %rax
	jmp	.LBB139_12
.LBB139_11:                             # %.preheader.i.preheader
	andl	$1, %r13d
	leaq	(,%r13,4), %r14
	movl	$255, %esi
	movq	%r12, %rdi
	movq	%r14, %rdx
	movq	%rcx, -48(%rbp)         # 8-byte Spill
	callq	memset
	movq	-48(%rbp), %rcx         # 8-byte Reload
	leaq	mem_pool(%r15,%r13,4), %rax
	subq	%r14, %rbx
.LBB139_12:                             # %.lr.ph.split.i
	cmpq	$7, %rcx
	jb	.LBB139_14
	.align	16, 0x90
.LBB139_13:                             # %.lr.ph.split.split.i
                                        # =>This Inner Loop Header: Depth=1
	addq	$-8, %rbx
	movq	$-1, (%rax)
	leaq	8(%rax), %rax
	jne	.LBB139_13
.LBB139_14:                             # %memset.exit
	movl	bootInfo+28, %ecx
	cmpl	$24, %ecx
	jb	.LBB139_21
# BB#15:                                # %.lr.ph
	movq	bootInfo+64, %r10
	movl	%ecx, %ecx
	movl	$2863311531, %r8d       # imm = 0xAAAAAAAB
	imulq	%rcx, %r8
	shrq	$36, %r8
	xorl	%esi, %esi
	.align	16, 0x90
.LBB139_16:                             # =>This Loop Header: Depth=1
                                        #     Child Loop BB139_51 Depth 2
	leaq	(%rsi,%rsi,2), %rcx
	movq	8(%r10,%rcx,8), %rdi
	leaq	4096(%rdi), %rdx
	andq	$-4096, %rdx            # imm = 0xFFFFFFFFFFFFF000
	testw	$4095, %di              # imm = 0xFFF
	cmoveq	%rdi, %rdx
	movzbl	16(%r10,%rcx,8), %edi
	cmpl	$1, %edi
	jne	.LBB139_53
# BB#17:                                #   in Loop: Header=BB139_16 Depth=1
	testq	%rdx, %rdx
	je	.LBB139_53
# BB#18:                                #   in Loop: Header=BB139_16 Depth=1
	leaq	4096(%rdx), %r11
	testw	$4095, %dx              # imm = 0xFFF
	cmoveq	%rdx, %r11
	shrq	$12, %r11
	je	.LBB139_53
# BB#19:                                # %.lr.ph.i.3
                                        #   in Loop: Header=BB139_16 Depth=1
	movq	(%r10,%rcx,8), %rdi
	movq	%rdi, %rdx
	andq	$-4096, %rdx            # imm = 0xFFFFFFFFFFFFF000
	movq	freePageCount, %r9
	testb	$1, %r11b
	jne	.LBB139_48
# BB#20:                                #   in Loop: Header=BB139_16 Depth=1
	xorl	%ecx, %ecx
	jmp	.LBB139_49
.LBB139_48:                             #   in Loop: Header=BB139_16 Depth=1
	movq	%rdi, %rcx
	shrq	$12, %rcx
	movl	$-2, %eax
	roll	%cl, %eax
	shrq	$17, %rdi
	andl	%eax, (%r12,%rdi,4)
	addq	$4096, %rdx             # imm = 0x1000
	movl	$1, %ecx
.LBB139_49:                             # %.lr.ph.i.3.split
                                        #   in Loop: Header=BB139_16 Depth=1
	cmpq	$1, %r11
	je	.LBB139_52
# BB#50:                                # %.lr.ph.i.3.split.split.preheader
                                        #   in Loop: Header=BB139_16 Depth=1
	movq	%r11, %rdi
	subq	%rcx, %rdi
	.align	16, 0x90
.LBB139_51:                             # %.lr.ph.i.3.split.split
                                        #   Parent Loop BB139_16 Depth=1
                                        # =>  This Inner Loop Header: Depth=2
	movq	%rdx, %rcx
	shrq	$12, %rcx
	movl	$-2, %eax
	roll	%cl, %eax
	movq	%rdx, %rcx
	shrq	$17, %rcx
	andl	%eax, (%r12,%rcx,4)
	leaq	4096(%rdx), %rax
	movq	%rax, %rcx
	shrq	$12, %rcx
	movl	$-2, %ebx
	roll	%cl, %ebx
	shrq	$17, %rax
	andl	%ebx, (%r12,%rax,4)
	addq	$8192, %rdx             # imm = 0x2000
	addq	$-2, %rdi
	jne	.LBB139_51
.LBB139_52:                             # %..loopexit_crit_edge.i.8
                                        #   in Loop: Header=BB139_16 Depth=1
	addq	%r11, %r9
	movq	%r9, freePageCount
.LBB139_53:                             # %MemMan_MarkFree.exit
                                        #   in Loop: Header=BB139_16 Depth=1
	leal	1(%rsi), %esi
	cmpl	%r8d, %esi
	jb	.LBB139_16
.LBB139_21:                             # %._crit_edge
	movq	virtMemData, %rax
	movq	8(%rax), %rdi
	movq	bootInfo+72, %rsi
	callq	VirtMemMan_GetPhysicalAddress
	movl	bootInfo+88, %ecx
	imull	bootInfo+80, %ecx
	testl	%ecx, %ecx
	je	.LBB139_29
# BB#22:
	leaq	4096(%rcx), %rdx
	testw	$4095, %cx              # imm = 0xFFF
	cmoveq	%rcx, %rdx
	shrq	$12, %rdx
	je	.LBB139_29
# BB#23:                                # %.lr.ph.i
	movq	%rax, %rdi
	andq	$-4096, %rdi            # imm = 0xFFFFFFFFFFFFF000
	movq	freePageCount, %r8
	xorl	%ecx, %ecx
	testb	$1, %dl
	je	.LBB139_25
# BB#24:
	movq	%rax, %rcx
	shrq	$12, %rcx
	movl	$1, %ebx
	shll	%cl, %ebx
	shrq	$17, %rax
	orl	%ebx, (%r12,%rax,4)
	addq	$4096, %rdi             # imm = 0x1000
	movl	$1, %ecx
.LBB139_25:                             # %.lr.ph.i.split
	cmpq	$1, %rdx
	je	.LBB139_28
# BB#26:                                # %.lr.ph.i.split.split.preheader
	movq	%rdx, %rax
	subq	%rcx, %rax
	.align	16, 0x90
.LBB139_27:                             # %.lr.ph.i.split.split
                                        # =>This Inner Loop Header: Depth=1
	movq	%rdi, %rcx
	shrq	$12, %rcx
	movl	$1, %ebx
	shll	%cl, %ebx
	movq	%rdi, %rcx
	shrq	$17, %rcx
	orl	%ebx, (%r12,%rcx,4)
	leaq	4096(%rdi), %rbx
	movq	%rbx, %rcx
	shrq	$12, %rcx
	movl	$1, %esi
	shll	%cl, %esi
	shrq	$17, %rbx
	orl	%esi, (%r12,%rbx,4)
	addq	$8192, %rdi             # imm = 0x2000
	addq	$-2, %rax
	jne	.LBB139_27
.LBB139_28:                             # %..loopexit_crit_edge.i
	subq	%rdx, %r8
	movq	%r8, freePageCount
.LBB139_29:                             # %MemMan_MarkUsed.exit
	movq	$_region_kernel_start_, %rax
	movq	$_region_kernel_end_, %rsi
	subq	%rax, %rsi
	leaq	8192(%rsi), %rcx
	leaq	4096(%rsi), %rdi
	testw	$4095, %di              # imm = 0xFFF
	cmoveq	%rdi, %rcx
	testq	$-4096, %rcx            # imm = 0xFFFFFFFFFFFFF000
	sete	%cl
	testq	%rdi, %rdi
	sete	%dl
	orb	%cl, %dl
	jne	.LBB139_37
# BB#30:                                # %.lr.ph.i.28
	movq	freePageCount, %r8
	xorl	%ecx, %ecx
	addl	$8192, %esi             # imm = 0x2000
	testw	$4095, %di              # imm = 0xFFF
	cmoveq	%rdi, %rsi
	btq	$12, %rsi
	jae	.LBB139_31
# BB#32:
	movq	$_region_kernel_start_, %rax
	andq	$-4096, %rax            # imm = 0xFFFFFFFFFFFFF000
	movq	%rax, %rcx
	shrq	$15, %rcx
	movabsq	$562949953421308, %rsi  # imm = 0x1FFFFFFFFFFFC
	andq	%rcx, %rsi
	movq	%rax, %rcx
	shrq	$12, %rcx
	movl	$1, %edi
	shll	%cl, %edi
	orl	%edi, (%r12,%rsi)
	addq	$4096, %rax             # imm = 0x1000
	movl	$1, %ecx
	jmp	.LBB139_33
.LBB139_31:
	andq	$-4096, %rax            # imm = 0xFFFFFFFFFFFFF000
.LBB139_33:                             # %.lr.ph.i.28.split
	movq	$_region_kernel_start_, %rsi
	movq	$_region_kernel_end_, %rdi
	subq	%rsi, %rdi
	leaq	8192(%rdi), %r9
	addq	$4096, %rdi             # imm = 0x1000
	testw	$4095, %di              # imm = 0xFFF
	movq	%r9, %rsi
	cmoveq	%rdi, %rsi
	shrq	$12, %rsi
	cmpq	$1, %rsi
	je	.LBB139_36
# BB#34:                                # %.lr.ph.i.28.split.split.preheader
	testw	$4095, %di              # imm = 0xFFF
	movq	%r9, %rsi
	cmoveq	%rdi, %rsi
	shrq	$12, %rsi
	subq	%rcx, %rsi
	.align	16, 0x90
.LBB139_35:                             # %.lr.ph.i.28.split.split
                                        # =>This Inner Loop Header: Depth=1
	movq	%rax, %rcx
	shrq	$12, %rcx
	movl	$1, %edx
	shll	%cl, %edx
	movq	%rax, %rcx
	shrq	$17, %rcx
	orl	%edx, (%r12,%rcx,4)
	leaq	4096(%rax), %rdx
	movq	%rdx, %rcx
	shrq	$12, %rcx
	movl	$1, %ebx
	shll	%cl, %ebx
	shrq	$17, %rdx
	orl	%ebx, (%r12,%rdx,4)
	addq	$8192, %rax             # imm = 0x2000
	addq	$-2, %rsi
	jne	.LBB139_35
.LBB139_36:                             # %..loopexit_crit_edge.i.33
	testw	$4095, %di              # imm = 0xFFF
	cmoveq	%rdi, %r9
	shrq	$12, %r9
	subq	%r9, %r8
	movq	%r8, freePageCount
.LBB139_37:                             # %MemMan_MarkUsed.exit34
	movq	bootInfo+56, %rcx
	testq	%rcx, %rcx
	je	.LBB139_45
# BB#38:
	leaq	4096(%rcx), %rax
	testw	$4095, %cx              # imm = 0xFFF
	cmoveq	%rcx, %rax
	shrq	$12, %rax
	je	.LBB139_45
# BB#39:                                # %.lr.ph.i.19
	movq	bootInfo+48, %rdi
	movq	%rdi, %rsi
	andq	$-4096, %rsi            # imm = 0xFFFFFFFFFFFFF000
	movq	freePageCount, %r8
	xorl	%ecx, %ecx
	testb	$1, %al
	je	.LBB139_41
# BB#40:
	movq	%rdi, %rcx
	shrq	$12, %rcx
	movl	$1, %ebx
	shll	%cl, %ebx
	shrq	$17, %rdi
	orl	%ebx, (%r12,%rdi,4)
	addq	$4096, %rsi             # imm = 0x1000
	movl	$1, %ecx
.LBB139_41:                             # %.lr.ph.i.19.split
	cmpq	$1, %rax
	je	.LBB139_44
# BB#42:                                # %.lr.ph.i.19.split.split.preheader
	movq	%rax, %rdi
	subq	%rcx, %rdi
	.align	16, 0x90
.LBB139_43:                             # %.lr.ph.i.19.split.split
                                        # =>This Inner Loop Header: Depth=1
	movq	%rsi, %rcx
	shrq	$12, %rcx
	movl	$1, %ebx
	shll	%cl, %ebx
	movq	%rsi, %rcx
	shrq	$17, %rcx
	orl	%ebx, (%r12,%rcx,4)
	leaq	4096(%rsi), %rbx
	movq	%rbx, %rcx
	shrq	$12, %rcx
	movl	$1, %edx
	shll	%cl, %edx
	shrq	$17, %rbx
	orl	%edx, (%r12,%rbx,4)
	addq	$8192, %rsi             # imm = 0x2000
	addq	$-2, %rdi
	jne	.LBB139_43
.LBB139_44:                             # %..loopexit_crit_edge.i.24
	subq	%rax, %r8
	movq	%r8, freePageCount
.LBB139_45:                             # %MemMan_MarkUsed.exit25
	movq	freePageCount, %r8
	xorl	%edx, %edx
	xorl	%ebx, %ebx
	.align	16, 0x90
.LBB139_46:                             # =>This Inner Loop Header: Depth=1
	movb	%dl, %cl
	andb	$30, %cl
	movl	$1, %edi
	shll	%cl, %edi
	movq	%rbx, %rsi
	shrq	$17, %rsi
	orl	(%r12,%rsi,4), %edi
	leal	1(%rdx), %ecx
	movl	$1, %eax
	shll	%cl, %eax
	orl	%edi, %eax
	movl	%eax, (%r12,%rsi,4)
	addq	$8192, %rbx             # imm = 0x2000
	addq	$2, %rdx
	cmpq	$512, %rdx              # imm = 0x200
	jne	.LBB139_46
# BB#47:                                # %MemMan_MarkUsed.exit16
	addq	$-512, %r8              # imm = 0xFFFFFFFFFFFFFE00
	movq	%r8, freePageCount
	xorl	%eax, %eax
	addq	$8, %rsp
	popq	%rbx
	popq	%r12
	popq	%r13
	popq	%r14
	popq	%r15
	popq	%rbp
	retq
.Lfunc_end139:
	.size	MemMan_Initialize, .Lfunc_end139-MemMan_Initialize
	.cfi_endproc

	.globl	MemMan_MarkFree
	.align	16, 0x90
	.type	MemMan_MarkFree,@function
MemMan_MarkFree:                        # @MemMan_MarkFree
	.cfi_startproc
# BB#0:
	pushq	%rbp
.Ltmp659:
	.cfi_def_cfa_offset 16
.Ltmp660:
	.cfi_offset %rbp, -16
	movq	%rsp, %rbp
.Ltmp661:
	.cfi_def_cfa_register %rbp
	testq	%rsi, %rsi
	je	.LBB140_8
# BB#1:
	leaq	4096(%rsi), %r10
	testw	$4095, %si              # imm = 0xFFF
	cmoveq	%rsi, %r10
	shrq	$12, %r10
	je	.LBB140_8
# BB#2:                                 # %.lr.ph
	movq	%rdi, %rsi
	andq	$-4096, %rsi            # imm = 0xFFFFFFFFFFFFF000
	movq	KB4_Blocks_Bitmap, %r11
	movq	freePageCount, %r8
	xorl	%ecx, %ecx
	testb	$1, %r10b
	je	.LBB140_4
# BB#3:
	movq	%rdi, %rcx
	shrq	$12, %rcx
	movl	$-2, %r9d
	roll	%cl, %r9d
	shrq	$17, %rdi
	andl	%r9d, (%r11,%rdi,4)
	addq	$4096, %rsi             # imm = 0x1000
	movl	$1, %ecx
.LBB140_4:                              # %.lr.ph.split
	cmpq	$1, %r10
	je	.LBB140_7
# BB#5:                                 # %.lr.ph.split.split.preheader
	movq	%r10, %rdi
	subq	%rcx, %rdi
	.align	16, 0x90
.LBB140_6:                              # %.lr.ph.split.split
                                        # =>This Inner Loop Header: Depth=1
	movq	%rsi, %rcx
	shrq	$12, %rcx
	movl	$-2, %eax
	roll	%cl, %eax
	movq	%rsi, %rcx
	shrq	$17, %rcx
	andl	%eax, (%r11,%rcx,4)
	leaq	4096(%rsi), %rax
	movq	%rax, %rcx
	shrq	$12, %rcx
	movl	$-2, %edx
	roll	%cl, %edx
	shrq	$17, %rax
	andl	%edx, (%r11,%rax,4)
	addq	$8192, %rsi             # imm = 0x2000
	addq	$-2, %rdi
	jne	.LBB140_6
.LBB140_7:                              # %..loopexit_crit_edge
	addq	%r10, %r8
	movq	%r8, freePageCount
.LBB140_8:                              # %.loopexit
	popq	%rbp
	retq
.Lfunc_end140:
	.size	MemMan_MarkFree, .Lfunc_end140-MemMan_MarkFree
	.cfi_endproc

	.globl	MemMan_MarkUsed
	.align	16, 0x90
	.type	MemMan_MarkUsed,@function
MemMan_MarkUsed:                        # @MemMan_MarkUsed
	.cfi_startproc
# BB#0:
	pushq	%rbp
.Ltmp662:
	.cfi_def_cfa_offset 16
.Ltmp663:
	.cfi_offset %rbp, -16
	movq	%rsp, %rbp
.Ltmp664:
	.cfi_def_cfa_register %rbp
	testq	%rsi, %rsi
	je	.LBB141_8
# BB#1:
	leaq	4096(%rsi), %r10
	testw	$4095, %si              # imm = 0xFFF
	cmoveq	%rsi, %r10
	shrq	$12, %r10
	je	.LBB141_8
# BB#2:                                 # %.lr.ph
	movq	%rdi, %rsi
	andq	$-4096, %rsi            # imm = 0xFFFFFFFFFFFFF000
	movq	KB4_Blocks_Bitmap, %r11
	movq	freePageCount, %r8
	xorl	%ecx, %ecx
	testb	$1, %r10b
	je	.LBB141_4
# BB#3:
	movq	%rdi, %rcx
	shrq	$12, %rcx
	movl	$1, %r9d
	shll	%cl, %r9d
	shrq	$17, %rdi
	orl	%r9d, (%r11,%rdi,4)
	addq	$4096, %rsi             # imm = 0x1000
	movl	$1, %ecx
.LBB141_4:                              # %.lr.ph.split
	cmpq	$1, %r10
	je	.LBB141_7
# BB#5:                                 # %.lr.ph.split.split.preheader
	movq	%r10, %rdi
	subq	%rcx, %rdi
	.align	16, 0x90
.LBB141_6:                              # %.lr.ph.split.split
                                        # =>This Inner Loop Header: Depth=1
	movq	%rsi, %rcx
	shrq	$12, %rcx
	movl	$1, %eax
	shll	%cl, %eax
	movq	%rsi, %rcx
	shrq	$17, %rcx
	orl	%eax, (%r11,%rcx,4)
	leaq	4096(%rsi), %rax
	movq	%rax, %rcx
	shrq	$12, %rcx
	movl	$1, %edx
	shll	%cl, %edx
	shrq	$17, %rax
	orl	%edx, (%r11,%rax,4)
	addq	$8192, %rsi             # imm = 0x2000
	addq	$-2, %rdi
	jne	.LBB141_6
.LBB141_7:                              # %..loopexit_crit_edge
	subq	%r10, %r8
	movq	%r8, freePageCount
.LBB141_8:                              # %.loopexit
	popq	%rbp
	retq
.Lfunc_end141:
	.size	MemMan_MarkUsed, .Lfunc_end141-MemMan_MarkUsed
	.cfi_endproc

	.globl	MemMan_Alloc
	.align	16, 0x90
	.type	MemMan_Alloc,@function
MemMan_Alloc:                           # @MemMan_Alloc
	.cfi_startproc
# BB#0:
	pushq	%rbp
.Ltmp665:
	.cfi_def_cfa_offset 16
.Ltmp666:
	.cfi_offset %rbp, -16
	movq	%rsp, %rbp
.Ltmp667:
	.cfi_def_cfa_register %rbp
	movq	freePageCount, %r8
	xorl	%eax, %eax
	testq	%r8, %r8
	je	.LBB142_15
# BB#1:                                 # %.preheader2
	movq	lastNonFullPage, %rcx
	movq	KB4_Blocks_Bitmap, %rdi
	movl	(%rdi,%rcx,4), %edx
	cmpl	$-1, %edx
	jne	.LBB142_5
# BB#2:                                 # %.lr.ph
	movq	page_count, %rsi
	.align	16, 0x90
.LBB142_3:                              # =>This Inner Loop Header: Depth=1
	incq	%rcx
	xorl	%edx, %edx
	movq	%rcx, %rax
	divq	%rsi
	movq	%rdx, %rcx
	movl	(%rdi,%rcx,4), %edx
	cmpl	$-1, %edx
	je	.LBB142_3
# BB#4:                                 # %..preheader_crit_edge
	movq	%rcx, lastNonFullPage
.LBB142_5:                              # %.preheader
	xorl	%esi, %esi
	.align	16, 0x90
.LBB142_6:                              # =>This Inner Loop Header: Depth=1
	btl	%esi, %edx
	jae	.LBB142_7
# BB#9:                                 #   in Loop: Header=BB142_6 Depth=1
	leal	1(%rsi), %eax
	btl	%eax, %edx
	jae	.LBB142_10
# BB#11:                                #   in Loop: Header=BB142_6 Depth=1
	leal	2(%rsi), %eax
	btl	%eax, %edx
	jae	.LBB142_12
# BB#13:                                #   in Loop: Header=BB142_6 Depth=1
	leal	3(%rsi), %eax
	btl	%eax, %edx
	jae	.LBB142_8
# BB#14:                                #   in Loop: Header=BB142_6 Depth=1
	addl	$4, %esi
	movq	$-1, %rax
	cmpl	$32, %esi
	jl	.LBB142_6
.LBB142_15:                             # %.loopexit
	popq	%rbp
	retq
.LBB142_10:
	orl	$1, %esi
	jmp	.LBB142_7
.LBB142_12:
	orl	$2, %esi
.LBB142_7:
	movl	%esi, %eax
.LBB142_8:
	shlq	$17, %rcx
	cltq
	shlq	$12, %rax
	addq	%rcx, %rax
	movq	%rax, %rcx
	shrq	$12, %rcx
	movl	$1, %edx
	shll	%cl, %edx
	movq	%rax, %rcx
	shrq	$15, %rcx
	movabsq	$562949953421308, %rsi  # imm = 0x1FFFFFFFFFFFC
	andq	%rcx, %rsi
	orl	%edx, (%rdi,%rsi)
	decq	%r8
	movq	%r8, freePageCount
	popq	%rbp
	retq
.Lfunc_end142:
	.size	MemMan_Alloc, .Lfunc_end142-MemMan_Alloc
	.cfi_endproc

	.globl	MemMan_Alloc2MiBPage
	.align	16, 0x90
	.type	MemMan_Alloc2MiBPage,@function
MemMan_Alloc2MiBPage:                   # @MemMan_Alloc2MiBPage
	.cfi_startproc
# BB#0:
	pushq	%rbp
.Ltmp668:
	.cfi_def_cfa_offset 16
.Ltmp669:
	.cfi_offset %rbp, -16
	movq	%rsp, %rbp
.Ltmp670:
	.cfi_def_cfa_register %rbp
	movl	$512, %edi              # imm = 0x200
	popq	%rbp
	jmp	MemMan_Alloc4KiBPageCont # TAILCALL
.Lfunc_end143:
	.size	MemMan_Alloc2MiBPage, .Lfunc_end143-MemMan_Alloc2MiBPage
	.cfi_endproc

	.globl	MemMan_Alloc4KiBPageCont
	.align	16, 0x90
	.type	MemMan_Alloc4KiBPageCont,@function
MemMan_Alloc4KiBPageCont:               # @MemMan_Alloc4KiBPageCont
	.cfi_startproc
# BB#0:
	pushq	%rbp
.Ltmp671:
	.cfi_def_cfa_offset 16
.Ltmp672:
	.cfi_offset %rbp, -16
	movq	%rsp, %rbp
.Ltmp673:
	.cfi_def_cfa_register %rbp
	pushq	%r14
	pushq	%rbx
.Ltmp674:
	.cfi_offset %rbx, -32
.Ltmp675:
	.cfi_offset %r14, -24
	movq	freePageCount, %r8
	xorl	%ecx, %ecx
	testq	%r8, %r8
	movl	$0, %eax
	je	.LBB144_22
# BB#1:                                 # %.preheader
	movl	KB4_Blocks_Count, %r10d
	testq	%r10, %r10
	movl	$0, %r11d
	je	.LBB144_12
# BB#2:                                 # %.lr.ph9
	xorl	%r14d, %r14d
	movq	KB4_Blocks_Bitmap, %r9
	xorl	%eax, %eax
	xorl	%r11d, %r11d
	xorl	%ecx, %ecx
	.align	16, 0x90
.LBB144_3:                              # =>This Loop Header: Depth=1
                                        #     Child Loop BB144_6 Depth 2
	cmpl	%edi, %ecx
	jne	.LBB144_5
# BB#4:                                 #   in Loop: Header=BB144_3 Depth=1
	movl	%edi, %ecx
	jmp	.LBB144_11
	.align	16, 0x90
.LBB144_5:                              #   in Loop: Header=BB144_3 Depth=1
	movl	(%r9,%rax,4), %esi
	movq	%r14, %rbx
	xorl	%edx, %edx
	.align	16, 0x90
.LBB144_6:                              #   Parent Loop BB144_3 Depth=1
                                        # =>  This Inner Loop Header: Depth=2
	btl	%edx, %esi
	jae	.LBB144_8
# BB#7:                                 #   in Loop: Header=BB144_6 Depth=2
	xorl	%ecx, %ecx
	jmp	.LBB144_9
	.align	16, 0x90
.LBB144_8:                              #   in Loop: Header=BB144_6 Depth=2
	testl	%ecx, %ecx
	cmoveq	%rbx, %r11
	incl	%ecx
.LBB144_9:                              #   in Loop: Header=BB144_6 Depth=2
	cmpq	$30, %rdx
	jg	.LBB144_11
# BB#10:                                #   in Loop: Header=BB144_6 Depth=2
	incq	%rdx
	addq	$4096, %rbx             # imm = 0x1000
	cmpl	%edi, %ecx
	jne	.LBB144_6
.LBB144_11:                             # %._crit_edge
                                        #   in Loop: Header=BB144_3 Depth=1
	incq	%rax
	addq	$131072, %r14           # imm = 0x20000
	cmpq	%r10, %rax
	jne	.LBB144_3
.LBB144_12:                             # %._crit_edge.10
	xorl	%eax, %eax
	cmpl	%edi, %ecx
	jne	.LBB144_22
# BB#13:
	testl	%edi, %edi
	je	.LBB144_21
# BB#14:
	movslq	%edi, %rsi
	movabsq	$4503599627370495, %r9  # imm = 0xFFFFFFFFFFFFF
	andq	%rsi, %r9
	je	.LBB144_21
# BB#15:                                # %.lr.ph.i
	movq	%r11, %rdx
	andq	$-4096, %rdx            # imm = 0xFFFFFFFFFFFFF000
	movq	KB4_Blocks_Bitmap, %rdi
	xorl	%ecx, %ecx
	testb	$1, %sil
	je	.LBB144_17
# BB#16:
	movq	%r11, %rcx
	shrq	$12, %rcx
	movl	$1, %esi
	shll	%cl, %esi
	movq	%r11, %rcx
	shrq	$17, %rcx
	orl	%esi, (%rdi,%rcx,4)
	addq	$4096, %rdx             # imm = 0x1000
	movl	$1, %ecx
.LBB144_17:                             # %.lr.ph.i.split
	cmpq	$1, %r9
	je	.LBB144_20
# BB#18:                                # %.lr.ph.i.split.split.preheader
	movq	%r9, %rsi
	subq	%rcx, %rsi
	.align	16, 0x90
.LBB144_19:                             # %.lr.ph.i.split.split
                                        # =>This Inner Loop Header: Depth=1
	movq	%rdx, %rcx
	shrq	$12, %rcx
	movl	$1, %ebx
	shll	%cl, %ebx
	movq	%rdx, %rcx
	shrq	$17, %rcx
	orl	%ebx, (%rdi,%rcx,4)
	leaq	4096(%rdx), %rbx
	movq	%rbx, %rcx
	shrq	$12, %rcx
	movl	$1, %eax
	shll	%cl, %eax
	shrq	$17, %rbx
	orl	%eax, (%rdi,%rbx,4)
	addq	$8192, %rdx             # imm = 0x2000
	addq	$-2, %rsi
	jne	.LBB144_19
.LBB144_20:                             # %..loopexit_crit_edge.i
	subq	%r9, %r8
	movq	%r8, freePageCount
.LBB144_21:                             # %MemMan_MarkUsed.exit
	movq	%r11, %rax
.LBB144_22:                             # %MemMan_MarkUsed.exit
	popq	%rbx
	popq	%r14
	popq	%rbp
	retq
.Lfunc_end144:
	.size	MemMan_Alloc4KiBPageCont, .Lfunc_end144-MemMan_Alloc4KiBPageCont
	.cfi_endproc

	.globl	MemMan_Alloc2MiBPageCont
	.align	16, 0x90
	.type	MemMan_Alloc2MiBPageCont,@function
MemMan_Alloc2MiBPageCont:               # @MemMan_Alloc2MiBPageCont
	.cfi_startproc
# BB#0:
	pushq	%rbp
.Ltmp676:
	.cfi_def_cfa_offset 16
.Ltmp677:
	.cfi_offset %rbp, -16
	movq	%rsp, %rbp
.Ltmp678:
	.cfi_def_cfa_register %rbp
	shll	$9, %edi
	popq	%rbp
	jmp	MemMan_Alloc4KiBPageCont # TAILCALL
.Lfunc_end145:
	.size	MemMan_Alloc2MiBPageCont, .Lfunc_end145-MemMan_Alloc2MiBPageCont
	.cfi_endproc

	.globl	MemMan_Free
	.align	16, 0x90
	.type	MemMan_Free,@function
MemMan_Free:                            # @MemMan_Free
	.cfi_startproc
# BB#0:
	pushq	%rbp
.Ltmp679:
	.cfi_def_cfa_offset 16
.Ltmp680:
	.cfi_offset %rbp, -16
	movq	%rsp, %rbp
.Ltmp681:
	.cfi_def_cfa_register %rbp
	movq	%rdi, %rcx
	shrq	$12, %rcx
	movl	$-2, %eax
	roll	%cl, %eax
	shrq	$17, %rdi
	movq	KB4_Blocks_Bitmap, %rcx
	andl	%eax, (%rcx,%rdi,4)
	incq	freePageCount
	movq	%rdi, lastNonFullPage
	popq	%rbp
	retq
.Lfunc_end146:
	.size	MemMan_Free, .Lfunc_end146-MemMan_Free
	.cfi_endproc

	.globl	MemMan_FreeCont
	.align	16, 0x90
	.type	MemMan_FreeCont,@function
MemMan_FreeCont:                        # @MemMan_FreeCont
	.cfi_startproc
# BB#0:
	pushq	%rbp
.Ltmp682:
	.cfi_def_cfa_offset 16
.Ltmp683:
	.cfi_offset %rbp, -16
	movq	%rsp, %rbp
.Ltmp684:
	.cfi_def_cfa_register %rbp
	testl	%esi, %esi
	je	.LBB147_8
# BB#1:
	movslq	%esi, %rcx
	movabsq	$4503599627370495, %r10 # imm = 0xFFFFFFFFFFFFF
	andq	%rcx, %r10
	je	.LBB147_8
# BB#2:                                 # %.lr.ph.i
	movq	%rdi, %rsi
	andq	$-4096, %rsi            # imm = 0xFFFFFFFFFFFFF000
	movq	KB4_Blocks_Bitmap, %r11
	movq	freePageCount, %r8
	xorl	%r9d, %r9d
	testb	$1, %cl
	je	.LBB147_4
# BB#3:
	movq	%rdi, %rcx
	shrq	$12, %rcx
	movl	$-2, %r9d
	roll	%cl, %r9d
	shrq	$17, %rdi
	andl	%r9d, (%r11,%rdi,4)
	addq	$4096, %rsi             # imm = 0x1000
	movl	$1, %r9d
.LBB147_4:                              # %.lr.ph.i.split
	cmpq	$1, %r10
	je	.LBB147_7
# BB#5:                                 # %.lr.ph.i.split.split.preheader
	movq	%r10, %rdi
	subq	%r9, %rdi
	.align	16, 0x90
.LBB147_6:                              # %.lr.ph.i.split.split
                                        # =>This Inner Loop Header: Depth=1
	movq	%rsi, %rcx
	shrq	$12, %rcx
	movl	$-2, %eax
	roll	%cl, %eax
	movq	%rsi, %rcx
	shrq	$17, %rcx
	andl	%eax, (%r11,%rcx,4)
	leaq	4096(%rsi), %rax
	movq	%rax, %rcx
	shrq	$12, %rcx
	movl	$-2, %edx
	roll	%cl, %edx
	shrq	$17, %rax
	andl	%edx, (%r11,%rax,4)
	addq	$8192, %rsi             # imm = 0x2000
	addq	$-2, %rdi
	jne	.LBB147_6
.LBB147_7:                              # %..loopexit_crit_edge.i
	addq	%r10, %r8
	movq	%r8, freePageCount
.LBB147_8:                              # %MemMan_MarkFree.exit
	popq	%rbp
	retq
.Lfunc_end147:
	.size	MemMan_FreeCont, .Lfunc_end147-MemMan_FreeCont
	.cfi_endproc

	.globl	VirtMemMan_InitializeBootstrap
	.align	16, 0x90
	.type	VirtMemMan_InitializeBootstrap,@function
VirtMemMan_InitializeBootstrap:         # @VirtMemMan_InitializeBootstrap
	.cfi_startproc
# BB#0:
	pushq	%rbp
.Ltmp685:
	.cfi_def_cfa_offset 16
.Ltmp686:
	.cfi_offset %rbp, -16
	movq	%rsp, %rbp
.Ltmp687:
	.cfi_def_cfa_register %rbp
	pushq	%rbx
	pushq	%rax
.Ltmp688:
	.cfi_offset %rbx, -24
	movl	pos, %eax
	movq	%rax, %rcx
	addq	$32, %rcx
	cmpq	$5242881, %rcx          # imm = 0x500001
	jb	.LBB148_2
# BB#1:
	#APP
	cli
	hlt
	#NO_APP
	movl	pos, %eax
.LBB148_2:                              # %bootstrap_malloc.exit
	movl	%eax, %ecx
	leaq	mem_pool(%rcx), %rdx
	addl	$32, %eax
	movl	%eax, pos
	movq	$0, mem_pool+24(%rcx)
	movq	$0, mem_pool+16(%rcx)
	movq	$0, mem_pool+8(%rcx)
	movq	$0, mem_pool(%rcx)
	movq	%rdx, virtMemData
	movabsq	$-8589930496, %rax      # imm = 0xFFFFFFFE00001000
	movq	%rax, mem_pool+8(%rcx)
	movq	tmp_corePML, %rbx
	testq	%rbx, %rbx
	jne	.LBB148_7
# BB#3:
	movl	pos, %eax
	movq	%rax, %rcx
	addq	$8096, %rcx             # imm = 0x1FA0
	cmpq	$5242881, %rcx          # imm = 0x500001
	jb	.LBB148_5
# BB#4:
	#APP
	cli
	hlt
	#NO_APP
	movl	pos, %eax
.LBB148_5:                              # %bootstrap_malloc.exit6
	movl	%eax, %ecx
	leaq	mem_pool(%rcx), %rbx
	addl	$8096, %eax             # imm = 0x1FA0
	movl	%eax, pos
	xorl	%esi, %esi
	movl	$8096, %edx             # imm = 0x1FA0
	movq	%rbx, %rdi
	callq	memset
	movq	%rbx, tmp_corePML
	movq	%rbx, %rax
	andq	$4095, %rax             # imm = 0xFFF
	je	.LBB148_7
# BB#6:
	addq	$4096, %rbx             # imm = 0x1000
	subq	%rax, %rbx
	movq	%rbx, tmp_corePML
.LBB148_7:
	movq	virtMemData, %rax
	movq	%rbx, (%rax)
	movb	$0, 16(%rax)
	addq	$8, %rsp
	popq	%rbx
	popq	%rbp
	retq
.Lfunc_end148:
	.size	VirtMemMan_InitializeBootstrap, .Lfunc_end148-VirtMemMan_InitializeBootstrap
	.cfi_endproc

	.globl	VirtMemMan_Initialize
	.align	16, 0x90
	.type	VirtMemMan_Initialize,@function
VirtMemMan_Initialize:                  # @VirtMemMan_Initialize
	.cfi_startproc
# BB#0:                                 # %memset.exit
	pushq	%rbp
.Ltmp689:
	.cfi_def_cfa_offset 16
.Ltmp690:
	.cfi_offset %rbp, -16
	movq	%rsp, %rbp
.Ltmp691:
	.cfi_def_cfa_register %rbp
	pushq	%r15
	pushq	%r14
	pushq	%r13
	pushq	%r12
	pushq	%rbx
	subq	$56, %rsp
.Ltmp692:
	.cfi_offset %rbx, -56
.Ltmp693:
	.cfi_offset %r12, -48
.Ltmp694:
	.cfi_offset %r13, -40
.Ltmp695:
	.cfi_offset %r14, -32
.Ltmp696:
	.cfi_offset %r15, -24
	movl	$-2147483647, %eax      # imm = 0xFFFFFFFF80000001
	xorl	%ecx, %ecx
	#APP
	cpuid

	#NO_APP
	movl	%ebx, ebx
	movl	%edx, edx
	shrl	$26, %edx
	andb	$1, %dl
	movq	virtMemData, %rax
	movb	%dl, 16(%rax)
	movl	$16778246, %eax         # imm = 0x1000406
	xorl	%edx, %edx
	movl	$631, %ecx              # imm = 0x277
	#APP
	wrmsr
	#NO_APP
	movabsq	$-8589930496, %r12      # imm = 0xFFFFFFFE00001000
	movabsq	$-17179869184, %r13     # imm = 0xFFFFFFFC00000000
	callq	MemMan_Alloc
	movq	%rax, %rcx
	shrq	$32, %rcx
	sete	%cl
	movzbl	%cl, %r15d
	shlq	$33, %r15
	addq	%rax, %r15
	addq	%r13, %r15
	xorl	%esi, %esi
	movl	$4096, %edx             # imm = 0x1000
	movq	%r15, %rdi
	callq	memset
	cmpq	$0, kernel_pdpt
	je	.LBB149_1
# BB#135:
	movq	kernel_pdpt_paddr, %rax
	orq	$3, %rax
	movq	%rax, 4088(%r15)
	jmp	.LBB149_136
.LBB149_1:
	movabsq	$8589934592, %r14       # imm = 0x200000000
	movabsq	$4294967296, %rbx       # imm = 0x100000000
	movabsq	$1152921504606842880, %r12 # imm = 0xFFFFFFFFFFFF000
	callq	MemMan_Alloc
	movq	%rax, kernel_pdpt_paddr
	leaq	(%rax,%r13), %rcx
	xorl	%edx, %edx
	cmpq	%rbx, %rax
	cmovbq	%r14, %rdx
	addq	%rcx, %rdx
	movq	%rdx, kernel_pdpt
	orq	$3, %rax
	movq	%rax, 4088(%r15)
	movq	virtMemData, %r14
	movl	$1073741824, %ebx       # imm = 0x40000000
	cmpb	$0, 16(%r14)
	je	.LBB149_2
# BB#4:
	movq	4088(%r15), %rax
	testq	%r12, %rax
	jne	.LBB149_6
# BB#5:
	callq	MemMan_Alloc
	orq	$7, %rax
	movq	%rax, 4088(%r15)
.LBB149_6:                              # %VirtMemMan_SetupPDPTEntry.exit.i
	andq	%r12, %rax
	xorl	%ecx, %ecx
	movabsq	$4294967296, %rdx       # imm = 0x100000000
	cmpq	%rdx, %rax
	leaq	(%rax,%r13), %rax
	movabsq	$8589934592, %rdx       # imm = 0x200000000
	cmovbq	%rdx, %rcx
	movq	$1073741955, 4088(%rcx,%rax) # imm = 0x40000083
	movq	8(%r14), %rax
	cmpq	%r15, %rax
	jne	.LBB149_8
# BB#7:
	movq	4088(%r15), %rax
	movq	(%r14), %rcx
	movq	%rax, 4088(%rcx)
	movq	$-1073741824, %rax      # imm = 0xFFFFFFFFC0000000
	#APP
	invlpg	(%rax)
	#NO_APP
	jmp	.LBB149_8
.LBB149_2:
	movl	$2147483648, %r14d      # imm = 0x80000000
	.align	16, 0x90
.LBB149_3:                              # %.preheader.i.2
                                        # =>This Inner Loop Header: Depth=1
	leaq	-2147483648(%rbx), %rsi
	movl	$0, (%rsp)
	movl	$1, %ecx
	xorl	%r8d, %r8d
	movl	$7, %r9d
	movq	%r15, %rdi
	movq	%rbx, %rdx
	callq	VirtMemMan_MapLPage
	addq	$2097152, %rbx          # imm = 0x200000
	cmpq	%r14, %rbx
	jne	.LBB149_3
.LBB149_8:                              # %VirtMemMan_MapHPage.exit
	movq	virtMemData, %r14
	xorl	%ebx, %ebx
	cmpb	$0, 16(%r14)
	je	.LBB149_9
# BB#10:
	movq	4088(%r15), %rax
	movabsq	$1152921504606842880, %rbx # imm = 0xFFFFFFFFFFFF000
	testq	%rbx, %rax
	jne	.LBB149_12
# BB#11:
	callq	MemMan_Alloc
	orq	$7, %rax
	movq	%rax, 4088(%r15)
.LBB149_12:                             # %VirtMemMan_SetupPDPTEntry.exit.i.6
	andq	%rbx, %rax
	xorl	%ecx, %ecx
	movabsq	$4294967296, %rdx       # imm = 0x100000000
	cmpq	%rdx, %rax
	leaq	(%rax,%r13), %rax
	movabsq	$8589934592, %rdx       # imm = 0x200000000
	cmovbq	%rdx, %rcx
	movq	$131, 4080(%rcx,%rax)
	movq	8(%r14), %rax
	cmpq	%r15, %rax
	jne	.LBB149_14
# BB#13:
	movq	4088(%r15), %rax
	movq	(%r14), %rcx
	movq	%rax, 4088(%rcx)
	movq	$-2147483648, %rax      # imm = 0xFFFFFFFF80000000
	#APP
	invlpg	(%rax)
	#NO_APP
	jmp	.LBB149_14
	.align	16, 0x90
.LBB149_9:                              # %.preheader.i.5
                                        # =>This Inner Loop Header: Depth=1
	leaq	-2147483648(%rbx), %rsi
	movl	$0, (%rsp)
	movl	$1, %ecx
	xorl	%r8d, %r8d
	movl	$7, %r9d
	movq	%r15, %rdi
	movq	%rbx, %rdx
	callq	VirtMemMan_MapLPage
	addq	$2097152, %rbx          # imm = 0x200000
	cmpq	$1073741824, %rbx       # imm = 0x40000000
	jne	.LBB149_9
.LBB149_14:                             # %VirtMemMan_MapHPage.exit7
	movabsq	$-4294967296, %r13      # imm = 0xFFFFFFFF00000000
	movl	$2147483648, %eax       # imm = 0x80000000
	movq	virtMemData, %r14
	cmpb	$0, 16(%r14)
	je	.LBB149_15
# BB#17:
	movl	$2147483648, %r12d      # imm = 0x80000000
	movq	4088(%r15), %rax
	movabsq	$1152921504606842880, %rbx # imm = 0xFFFFFFFFFFFF000
	testq	%rbx, %rax
	jne	.LBB149_19
# BB#18:
	callq	MemMan_Alloc
	orq	$7, %rax
	movq	%rax, 4088(%r15)
.LBB149_19:                             # %VirtMemMan_SetupPDPTEntry.exit.i.11
	andq	%rbx, %rax
	xorl	%ecx, %ecx
	movabsq	$4294967296, %rdx       # imm = 0x100000000
	cmpq	%rdx, %rax
	movabsq	$-17179869184, %rdx     # imm = 0xFFFFFFFC00000000
	leaq	(%rax,%rdx), %rax
	movabsq	$8589934592, %rdx       # imm = 0x200000000
	cmovbq	%rdx, %rcx
	leaq	1073741955(%r12), %rdx
	movq	%rdx, 4072(%rcx,%rax)
	movq	8(%r14), %rax
	cmpq	%r15, %rax
	jne	.LBB149_21
# BB#20:
	movq	4088(%r15), %rax
	movq	(%r14), %rcx
	movq	%rax, 4088(%rcx)
	movabsq	$-3221225472, %rax      # imm = 0xFFFFFFFF40000000
	#APP
	invlpg	(%rax)
	#NO_APP
	jmp	.LBB149_21
.LBB149_15:                             # %.preheader.i.10.preheader
	leaq	1073741824(%rax), %r14
	movl	$2147483648, %r12d      # imm = 0x80000000
	leaq	1073741824(%r13), %rbx
	.align	16, 0x90
.LBB149_16:                             # %.preheader.i.10
                                        # =>This Inner Loop Header: Depth=1
	movl	$0, (%rsp)
	movl	$1, %ecx
	xorl	%r8d, %r8d
	movl	$7, %r9d
	movq	%r15, %rdi
	movq	%rbx, %rsi
	movq	%r14, %rdx
	callq	VirtMemMan_MapLPage
	addq	$2097152, %rbx          # imm = 0x200000
	addq	$2097152, %r14          # imm = 0x200000
	cmpq	$-2147483648, %rbx      # imm = 0xFFFFFFFF80000000
	jne	.LBB149_16
.LBB149_21:                             # %VirtMemMan_MapHPage.exit12
	movq	virtMemData, %r14
	cmpb	$0, 16(%r14)
	je	.LBB149_22
# BB#24:
	movq	4088(%r15), %rax
	movabsq	$1152921504606842880, %rbx # imm = 0xFFFFFFFFFFFF000
	testq	%rbx, %rax
	jne	.LBB149_26
# BB#25:
	callq	MemMan_Alloc
	orq	$7, %rax
	movq	%rax, 4088(%r15)
.LBB149_26:                             # %VirtMemMan_SetupPDPTEntry.exit.i.16
	andq	%rbx, %rax
	xorl	%ecx, %ecx
	movabsq	$4294967296, %rdx       # imm = 0x100000000
	cmpq	%rdx, %rax
	movabsq	$-17179869184, %rdx     # imm = 0xFFFFFFFC00000000
	leaq	(%rax,%rdx), %rax
	movabsq	$8589934592, %rdx       # imm = 0x200000000
	cmovbq	%rdx, %rcx
	leaq	131(%r12), %rdx
	movq	%rdx, 4064(%rcx,%rax)
	movq	8(%r14), %rax
	cmpq	%r15, %rax
	jne	.LBB149_28
# BB#27:
	movq	4088(%r15), %rax
	movq	(%r14), %rcx
	movq	%rax, 4088(%rcx)
	#APP
	invlpg	(%r13)
	#NO_APP
	jmp	.LBB149_28
.LBB149_22:
	movl	$3221225472, %r14d      # imm = 0xC0000000
	movl	$2147483648, %ebx       # imm = 0x80000000
	.align	16, 0x90
.LBB149_23:                             # %.preheader.i.15
                                        # =>This Inner Loop Header: Depth=1
	leaq	-2147483648(%rbx,%r13), %rsi
	movl	$0, (%rsp)
	movl	$1, %ecx
	xorl	%r8d, %r8d
	movl	$7, %r9d
	movq	%r15, %rdi
	movq	%rbx, %rdx
	callq	VirtMemMan_MapLPage
	addq	$2097152, %rbx          # imm = 0x200000
	cmpq	%r14, %rbx
	jne	.LBB149_23
.LBB149_28:                             # %VirtMemMan_MapHPage.exit17
	movabsq	$-10737418240, %r14     # imm = 0xFFFFFFFD80000000
	movabsq	$6442450944, %r13       # imm = 0x180000000
	movq	virtMemData, %rsi
	xorl	%r12d, %r12d
	cmpb	$0, 16(%rsi)
	je	.LBB149_29
# BB#30:
	movq	4088(%r15), %rax
	movabsq	$1152921504606842880, %rbx # imm = 0xFFFFFFFFFFFF000
	testq	%rbx, %rax
	jne	.LBB149_32
# BB#31:
	movq	%rsi, %r12
	callq	MemMan_Alloc
	movq	%r12, %rsi
	orq	$7, %rax
	movq	%rax, 4088(%r15)
.LBB149_32:                             # %VirtMemMan_SetupPDPTEntry.exit.i.21
	andq	%rbx, %rax
	xorl	%ecx, %ecx
	movabsq	$4294967296, %rdx       # imm = 0x100000000
	cmpq	%rdx, %rax
	movabsq	$-17179869184, %rdx     # imm = 0xFFFFFFFC00000000
	leaq	(%rax,%rdx), %rax
	movabsq	$8589934592, %rdx       # imm = 0x200000000
	cmovbq	%rdx, %rcx
	leaq	1073741955(%r13), %rdx
	movq	%rdx, 4024(%rcx,%rax)
	movq	8(%rsi), %rax
	cmpq	%r15, %rax
	jne	.LBB149_34
# BB#33:
	movq	4088(%r15), %rax
	movq	(%rsi), %rcx
	movq	%rax, 4088(%rcx)
	movabsq	$-9663676416, %rax      # imm = 0xFFFFFFFDC0000000
	#APP
	invlpg	(%rax)
	#NO_APP
	jmp	.LBB149_34
	.align	16, 0x90
.LBB149_29:                             # %.preheader.i.20
                                        # =>This Inner Loop Header: Depth=1
	leaq	1073741824(%r13,%r12), %rdx
	leaq	1073741824(%r14,%r12), %rsi
	movl	$0, (%rsp)
	movl	$1, %ecx
	xorl	%r8d, %r8d
	movl	$7, %r9d
	movq	%r15, %rdi
	callq	VirtMemMan_MapLPage
	addq	$2097152, %r12          # imm = 0x200000
	cmpq	$1073741824, %r12       # imm = 0x40000000
	jne	.LBB149_29
.LBB149_34:                             # %VirtMemMan_MapHPage.exit22
	movq	virtMemData, %r12
	xorl	%ebx, %ebx
	cmpb	$0, 16(%r12)
	je	.LBB149_35
# BB#36:
	movq	4088(%r15), %rax
	movabsq	$1152921504606842880, %rbx # imm = 0xFFFFFFFFFFFF000
	testq	%rbx, %rax
	jne	.LBB149_38
# BB#37:
	callq	MemMan_Alloc
	orq	$7, %rax
	movq	%rax, 4088(%r15)
.LBB149_38:                             # %VirtMemMan_SetupPDPTEntry.exit.i.26
	andq	%rbx, %rax
	xorl	%ecx, %ecx
	movabsq	$4294967296, %rdx       # imm = 0x100000000
	cmpq	%rdx, %rax
	movabsq	$-17179869184, %rdx     # imm = 0xFFFFFFFC00000000
	leaq	(%rax,%rdx), %rax
	movabsq	$8589934592, %rdx       # imm = 0x200000000
	cmovbq	%rdx, %rcx
	addq	$131, %r13
	movq	%r13, 4016(%rcx,%rax)
	movq	8(%r12), %rax
	cmpq	%r15, %rax
	jne	.LBB149_40
# BB#39:
	movq	4088(%r15), %rax
	movq	(%r12), %rcx
	movq	%rax, 4088(%rcx)
	#APP
	invlpg	(%r14)
	#NO_APP
	jmp	.LBB149_40
	.align	16, 0x90
.LBB149_35:                             # %.preheader.i.25
                                        # =>This Inner Loop Header: Depth=1
	leaq	(%rbx,%r13), %rdx
	leaq	(%rbx,%r14), %rsi
	movl	$0, (%rsp)
	movl	$1, %ecx
	xorl	%r8d, %r8d
	movl	$7, %r9d
	movq	%r15, %rdi
	callq	VirtMemMan_MapLPage
	addq	$2097152, %rbx          # imm = 0x200000
	cmpq	$1073741824, %rbx       # imm = 0x40000000
	jne	.LBB149_35
.LBB149_40:                             # %VirtMemMan_MapHPage.exit27
	movabsq	$-12884901888, %r12     # imm = 0xFFFFFFFD00000000
	movq	virtMemData, %rsi
	xorl	%ebx, %ebx
	cmpb	$0, 16(%rsi)
	je	.LBB149_41
# BB#43:
	movq	4088(%r15), %rax
	movabsq	$1152921504606842880, %rbx # imm = 0xFFFFFFFFFFFF000
	testq	%rbx, %rax
	jne	.LBB149_45
# BB#44:
	movq	%rsi, %r14
	callq	MemMan_Alloc
	movq	%r14, %rsi
	orq	$7, %rax
	movq	%rax, 4088(%r15)
.LBB149_45:                             # %VirtMemMan_SetupPDPTEntry.exit.i.31
	andq	%rbx, %rax
	xorl	%ecx, %ecx
	movabsq	$4294967296, %r14       # imm = 0x100000000
	cmpq	%r14, %rax
	movabsq	$-17179869184, %r13     # imm = 0xFFFFFFFC00000000
	leaq	(%rax,%r13), %rax
	movabsq	$8589934592, %rdx       # imm = 0x200000000
	cmovbq	%rdx, %rcx
	leaq	1073741955(%r14), %rdx
	movq	%rdx, 4008(%rcx,%rax)
	movq	8(%rsi), %rax
	cmpq	%r15, %rax
	jne	.LBB149_47
# BB#46:
	movq	4088(%r15), %rax
	movq	(%rsi), %rcx
	movq	%rax, 4088(%rcx)
	movabsq	$-11811160064, %rax     # imm = 0xFFFFFFFD40000000
	#APP
	invlpg	(%rax)
	#NO_APP
	jmp	.LBB149_47
.LBB149_41:
	movabsq	$4294967296, %r14       # imm = 0x100000000
	.align	16, 0x90
.LBB149_42:                             # %.preheader.i.30
                                        # =>This Inner Loop Header: Depth=1
	leaq	1073741824(%r14,%rbx), %rdx
	leaq	1073741824(%r12,%rbx), %rsi
	movl	$0, (%rsp)
	movl	$1, %ecx
	xorl	%r8d, %r8d
	movl	$7, %r9d
	movq	%r15, %rdi
	callq	VirtMemMan_MapLPage
	addq	$2097152, %rbx          # imm = 0x200000
	cmpq	$1073741824, %rbx       # imm = 0x40000000
	jne	.LBB149_42
.LBB149_47:                             # %VirtMemMan_MapHPage.exit32
	movq	%r14, %r13
	movq	virtMemData, %r14
	xorl	%ebx, %ebx
	cmpb	$0, 16(%r14)
	je	.LBB149_48
# BB#50:
	movq	4088(%r15), %rax
	movabsq	$1152921504606842880, %rbx # imm = 0xFFFFFFFFFFFF000
	testq	%rbx, %rax
	jne	.LBB149_52
# BB#51:
	callq	MemMan_Alloc
	orq	$7, %rax
	movq	%rax, 4088(%r15)
.LBB149_52:                             # %VirtMemMan_SetupPDPTEntry.exit.i.36
	andq	%rbx, %rax
	xorl	%ecx, %ecx
	cmpq	%r13, %rax
	movabsq	$-17179869184, %rdx     # imm = 0xFFFFFFFC00000000
	leaq	(%rax,%rdx), %rax
	movabsq	$8589934592, %rdx       # imm = 0x200000000
	cmovbq	%rdx, %rcx
	leaq	131(%r13), %rdx
	movq	%rdx, 4000(%rcx,%rax)
	movq	8(%r14), %rax
	cmpq	%r15, %rax
	movl	$2147483648, %r13d      # imm = 0x80000000
	jne	.LBB149_54
# BB#53:
	movq	4088(%r15), %rax
	movq	(%r14), %rcx
	movq	%rax, 4088(%rcx)
	#APP
	invlpg	(%r12)
	#NO_APP
	jmp	.LBB149_54
.LBB149_48:
	movq	%r13, %r14
	movl	$2147483648, %r13d      # imm = 0x80000000
	.align	16, 0x90
.LBB149_49:                             # %.preheader.i.35
                                        # =>This Inner Loop Header: Depth=1
	leaq	(%rbx,%r14), %rdx
	leaq	(%rbx,%r12), %rsi
	movl	$0, (%rsp)
	movl	$1, %ecx
	xorl	%r8d, %r8d
	movl	$7, %r9d
	movq	%r15, %rdi
	callq	VirtMemMan_MapLPage
	addq	$2097152, %rbx          # imm = 0x200000
	cmpq	$1073741824, %rbx       # imm = 0x40000000
	jne	.LBB149_49
.LBB149_54:                             # %VirtMemMan_MapHPage.exit37
	movabsq	$-6442450944, %r14      # imm = 0xFFFFFFFE80000000
	movq	virtMemData, %r12
	xorl	%ebx, %ebx
	cmpb	$0, 16(%r12)
	je	.LBB149_55
# BB#56:
	movq	4088(%r15), %rax
	movabsq	$1152921504606842880, %rbx # imm = 0xFFFFFFFFFFFF000
	testq	%rbx, %rax
	jne	.LBB149_58
# BB#57:
	callq	MemMan_Alloc
	orq	$7, %rax
	movq	%rax, 4088(%r15)
.LBB149_58:                             # %VirtMemMan_SetupPDPTEntry.exit.i.41
	andq	%rbx, %rax
	xorl	%ecx, %ecx
	movabsq	$4294967296, %rdx       # imm = 0x100000000
	cmpq	%rdx, %rax
	movabsq	$-17179869184, %rdx     # imm = 0xFFFFFFFC00000000
	leaq	(%rax,%rdx), %rax
	movabsq	$8589934592, %rdx       # imm = 0x200000000
	cmovbq	%rdx, %rcx
	leaq	1073741955(%r13), %rdx
	movq	%rdx, 4056(%rcx,%rax)
	movq	8(%r12), %rax
	cmpq	%r15, %rax
	jne	.LBB149_60
# BB#59:
	movq	4088(%r15), %rax
	movq	(%r12), %rcx
	movq	%rax, 4088(%rcx)
	movabsq	$-5368709120, %rax      # imm = 0xFFFFFFFEC0000000
	#APP
	invlpg	(%rax)
	#NO_APP
	jmp	.LBB149_60
	.align	16, 0x90
.LBB149_55:                             # %.preheader.i.40
                                        # =>This Inner Loop Header: Depth=1
	leaq	1073741824(%r13,%rbx), %rdx
	leaq	1073741824(%r14,%rbx), %rsi
	movl	$0, (%rsp)
	movl	$1, %ecx
	xorl	%r8d, %r8d
	movl	$7, %r9d
	movq	%r15, %rdi
	callq	VirtMemMan_MapLPage
	addq	$2097152, %rbx          # imm = 0x200000
	cmpq	$1073741824, %rbx       # imm = 0x40000000
	jne	.LBB149_55
.LBB149_60:                             # %VirtMemMan_MapHPage.exit42
	movq	virtMemData, %r12
	cmpb	$0, 16(%r12)
	je	.LBB149_61
# BB#63:
	movq	4088(%r15), %rax
	movabsq	$1152921504606842880, %rbx # imm = 0xFFFFFFFFFFFF000
	testq	%rbx, %rax
	jne	.LBB149_65
# BB#64:
	callq	MemMan_Alloc
	orq	$7, %rax
	movq	%rax, 4088(%r15)
.LBB149_65:                             # %VirtMemMan_SetupPDPTEntry.exit.i.46
	andq	%rbx, %rax
	xorl	%ecx, %ecx
	movabsq	$4294967296, %rdx       # imm = 0x100000000
	cmpq	%rdx, %rax
	movabsq	$-17179869184, %rdx     # imm = 0xFFFFFFFC00000000
	leaq	(%rax,%rdx), %rax
	movabsq	$8589934592, %rdx       # imm = 0x200000000
	cmovbq	%rdx, %rcx
	leaq	131(%r13), %rdx
	movq	%rdx, 4048(%rcx,%rax)
	movq	8(%r12), %rax
	cmpq	%r15, %rax
	jne	.LBB149_67
# BB#66:
	movq	4088(%r15), %rax
	movq	(%r12), %rcx
	movq	%rax, 4088(%rcx)
	#APP
	invlpg	(%r14)
	#NO_APP
	jmp	.LBB149_67
.LBB149_61:
	movl	$3221225472, %r12d      # imm = 0xC0000000
	movl	$2147483648, %ebx       # imm = 0x80000000
	.align	16, 0x90
.LBB149_62:                             # %.preheader.i.45
                                        # =>This Inner Loop Header: Depth=1
	leaq	-2147483648(%rbx,%r14), %rsi
	movl	$0, (%rsp)
	movl	$1, %ecx
	xorl	%r8d, %r8d
	movl	$7, %r9d
	movq	%r15, %rdi
	movq	%rbx, %rdx
	callq	VirtMemMan_MapLPage
	addq	$2097152, %rbx          # imm = 0x200000
	cmpq	%r12, %rbx
	jne	.LBB149_62
.LBB149_67:                             # %VirtMemMan_MapHPage.exit47
	movq	virtMemData, %r14
	xorl	%ebx, %ebx
	cmpb	$0, 16(%r14)
	je	.LBB149_68
# BB#70:
	movq	4088(%r15), %rax
	movabsq	$1152921504606842880, %rbx # imm = 0xFFFFFFFFFFFF000
	testq	%rbx, %rax
	jne	.LBB149_72
# BB#71:
	callq	MemMan_Alloc
	orq	$7, %rax
	movq	%rax, 4088(%r15)
.LBB149_72:                             # %VirtMemMan_SetupPDPTEntry.exit.i.51
	andq	%rbx, %rax
	xorl	%ecx, %ecx
	movabsq	$4294967296, %rdx       # imm = 0x100000000
	cmpq	%rdx, %rax
	movabsq	$-17179869184, %rdx     # imm = 0xFFFFFFFC00000000
	leaq	(%rax,%rdx), %rax
	movabsq	$8589934592, %rdx       # imm = 0x200000000
	cmovbq	%rdx, %rcx
	movq	$1073741955, 4040(%rcx,%rax) # imm = 0x40000083
	movq	8(%r14), %rax
	cmpq	%r15, %rax
	movabsq	$-8589930496, %r12      # imm = 0xFFFFFFFE00001000
	jne	.LBB149_74
# BB#73:
	movq	4088(%r15), %rax
	movq	(%r14), %rcx
	movq	%rax, 4088(%rcx)
	movabsq	$-7516192768, %rax      # imm = 0xFFFFFFFE40000000
	#APP
	invlpg	(%rax)
	#NO_APP
	jmp	.LBB149_74
.LBB149_68:
	movabsq	$-8589930496, %r12      # imm = 0xFFFFFFFE00001000
	.align	16, 0x90
.LBB149_69:                             # %.preheader.i.50
                                        # =>This Inner Loop Header: Depth=1
	leaq	1073741824(%rbx), %rdx
	leaq	1073737728(%r12,%rbx), %rsi
	movl	$0, (%rsp)
	movl	$1, %ecx
	xorl	%r8d, %r8d
	movl	$7, %r9d
	movq	%r15, %rdi
	callq	VirtMemMan_MapLPage
	addq	$2097152, %rbx          # imm = 0x200000
	cmpq	$1073741824, %rbx       # imm = 0x40000000
	jne	.LBB149_69
.LBB149_74:                             # %VirtMemMan_MapHPage.exit52
	movq	virtMemData, %r14
	xorl	%ebx, %ebx
	cmpb	$0, 16(%r14)
	je	.LBB149_75
# BB#76:
	movq	4088(%r15), %rax
	movabsq	$1152921504606842880, %r12 # imm = 0xFFFFFFFFFFFF000
	testq	%r12, %rax
	movabsq	$4294967296, %rbx       # imm = 0x100000000
	jne	.LBB149_78
# BB#77:
	callq	MemMan_Alloc
	orq	$7, %rax
	movq	%rax, 4088(%r15)
.LBB149_78:                             # %VirtMemMan_SetupPDPTEntry.exit.i.56
	andq	%r12, %rax
	xorl	%ecx, %ecx
	cmpq	%rbx, %rax
	movabsq	$-17179869184, %rdx     # imm = 0xFFFFFFFC00000000
	leaq	(%rax,%rdx), %rax
	movabsq	$8589934592, %rdx       # imm = 0x200000000
	cmovbq	%rdx, %rcx
	movq	$131, 4032(%rcx,%rax)
	movq	8(%r14), %rax
	cmpq	%r15, %rax
	jne	.LBB149_80
# BB#79:
	movq	4088(%r15), %rax
	movq	(%r14), %rcx
	movq	%rax, 4088(%rcx)
	movabsq	$-8589934592, %rax      # imm = 0xFFFFFFFE00000000
	#APP
	invlpg	(%rax)
	#NO_APP
	jmp	.LBB149_80
	.align	16, 0x90
.LBB149_75:                             # %.preheader.i.55
                                        # =>This Inner Loop Header: Depth=1
	leaq	-4096(%r12,%rbx), %rsi
	movl	$0, (%rsp)
	movl	$1, %ecx
	xorl	%r8d, %r8d
	movl	$7, %r9d
	movq	%r15, %rdi
	movq	%rbx, %rdx
	callq	VirtMemMan_MapLPage
	addq	$2097152, %rbx          # imm = 0x200000
	cmpq	$1073741824, %rbx       # imm = 0x40000000
	jne	.LBB149_75
.LBB149_80:                             # %VirtMemMan_MapHPage.exit57
	movabsq	$-21474836480, %r14     # imm = 0xFFFFFFFB00000000
	movq	virtMemData, %r13
	xorl	%ebx, %ebx
	cmpb	$0, 16(%r13)
	je	.LBB149_81
# BB#82:
	movq	4088(%r15), %rax
	movabsq	$1152921504606842880, %rbx # imm = 0xFFFFFFFFFFFF000
	testq	%rbx, %rax
	jne	.LBB149_84
# BB#83:
	callq	MemMan_Alloc
	orq	$7, %rax
	movq	%rax, 4088(%r15)
.LBB149_84:                             # %VirtMemMan_SetupPDPTEntry.exit.i.61
	andq	%rbx, %rax
	xorl	%ecx, %ecx
	movabsq	$4294967296, %rdx       # imm = 0x100000000
	cmpq	%rdx, %rax
	movabsq	$-17179869184, %rdx     # imm = 0xFFFFFFFC00000000
	leaq	(%rax,%rdx), %rax
	movabsq	$8589934592, %rdx       # imm = 0x200000000
	cmovbq	%rdx, %rcx
	movq	$147, 3936(%rcx,%rax)
	movq	8(%r13), %rax
	cmpq	%r15, %rax
	jne	.LBB149_86
# BB#85:
	movq	4088(%r15), %rax
	movq	(%r13), %rcx
	movq	%rax, 4088(%rcx)
	#APP
	invlpg	(%r14)
	#NO_APP
	jmp	.LBB149_86
	.align	16, 0x90
.LBB149_81:                             # %.preheader.i.60
                                        # =>This Inner Loop Header: Depth=1
	leaq	(%rbx,%r14), %rsi
	movl	$0, (%rsp)
	movl	$1, %ecx
	movl	$2, %r8d
	movl	$7, %r9d
	movq	%r15, %rdi
	movq	%rbx, %rdx
	callq	VirtMemMan_MapLPage
	addq	$2097152, %rbx          # imm = 0x200000
	cmpq	$1073741824, %rbx       # imm = 0x40000000
	jne	.LBB149_81
.LBB149_86:                             # %VirtMemMan_MapHPage.exit62
	movq	virtMemData, %r12
	xorl	%ebx, %ebx
	cmpb	$0, 16(%r12)
	je	.LBB149_87
# BB#89:
	movq	4088(%r15), %rax
	movabsq	$1152921504606842880, %rbx # imm = 0xFFFFFFFFFFFF000
	testq	%rbx, %rax
	jne	.LBB149_91
# BB#90:
	callq	MemMan_Alloc
	orq	$7, %rax
	movq	%rax, 4088(%r15)
.LBB149_91:                             # %VirtMemMan_SetupPDPTEntry.exit.i.66
	andq	%rbx, %rax
	xorl	%ecx, %ecx
	movabsq	$4294967296, %rdx       # imm = 0x100000000
	cmpq	%rdx, %rax
	movabsq	$-17179869184, %r13     # imm = 0xFFFFFFFC00000000
	leaq	(%rax,%r13), %rax
	movabsq	$8589934592, %rdx       # imm = 0x200000000
	cmovbq	%rdx, %rcx
	movq	$1073741971, 3944(%rcx,%rax) # imm = 0x40000093
	movq	8(%r12), %rax
	cmpq	%r15, %rax
	jne	.LBB149_93
# BB#92:
	movq	4088(%r15), %rax
	movq	(%r12), %rcx
	movq	%rax, 4088(%rcx)
	movabsq	$-20401094656, %rax     # imm = 0xFFFFFFFB40000000
	#APP
	invlpg	(%rax)
	#NO_APP
	jmp	.LBB149_93
.LBB149_87:
	movabsq	$-17179869184, %r13     # imm = 0xFFFFFFFC00000000
	.align	16, 0x90
.LBB149_88:                             # %.preheader.i.65
                                        # =>This Inner Loop Header: Depth=1
	leaq	1073741824(%rbx), %rdx
	leaq	1073741824(%r14,%rbx), %rsi
	movl	$0, (%rsp)
	movl	$1, %ecx
	movl	$2, %r8d
	movl	$7, %r9d
	movq	%r15, %rdi
	callq	VirtMemMan_MapLPage
	addq	$2097152, %rbx          # imm = 0x200000
	cmpq	$1073741824, %rbx       # imm = 0x40000000
	jne	.LBB149_88
.LBB149_93:                             # %VirtMemMan_MapHPage.exit67
	movabsq	$-19327352832, %r14     # imm = 0xFFFFFFFB80000000
	movq	virtMemData, %r12
	cmpb	$0, 16(%r12)
	je	.LBB149_94
# BB#96:
	movq	4088(%r15), %rax
	movabsq	$1152921504606842880, %rbx # imm = 0xFFFFFFFFFFFF000
	testq	%rbx, %rax
	jne	.LBB149_98
# BB#97:
	callq	MemMan_Alloc
	orq	$7, %rax
	movq	%rax, 4088(%r15)
.LBB149_98:                             # %VirtMemMan_SetupPDPTEntry.exit.i.71
	andq	%rbx, %rax
	xorl	%ecx, %ecx
	movabsq	$4294967296, %rdx       # imm = 0x100000000
	cmpq	%rdx, %rax
	leaq	(%rax,%r13), %rax
	movabsq	$8589934592, %rdx       # imm = 0x200000000
	cmovbq	%rdx, %rcx
	movl	$2147483648, %edx       # imm = 0x80000000
	leaq	147(%rdx), %rdx
	movq	%rdx, 3952(%rcx,%rax)
	movq	8(%r12), %rax
	cmpq	%r15, %rax
	jne	.LBB149_100
# BB#99:
	movq	4088(%r15), %rax
	movq	(%r12), %rcx
	movq	%rax, 4088(%rcx)
	#APP
	invlpg	(%r14)
	#NO_APP
	jmp	.LBB149_100
.LBB149_94:
	movl	$3221225472, %r12d      # imm = 0xC0000000
	movl	$2147483648, %ebx       # imm = 0x80000000
	.align	16, 0x90
.LBB149_95:                             # %.preheader.i.70
                                        # =>This Inner Loop Header: Depth=1
	leaq	-2147483648(%rbx,%r14), %rsi
	movl	$0, (%rsp)
	movl	$1, %ecx
	movl	$2, %r8d
	movl	$7, %r9d
	movq	%r15, %rdi
	movq	%rbx, %rdx
	callq	VirtMemMan_MapLPage
	addq	$2097152, %rbx          # imm = 0x200000
	cmpq	%r12, %rbx
	jne	.LBB149_95
.LBB149_100:                            # %VirtMemMan_MapHPage.exit72
	movq	virtMemData, %r12
	xorl	%ebx, %ebx
	cmpb	$0, 16(%r12)
	je	.LBB149_101
# BB#103:
	movq	4088(%r15), %rax
	movabsq	$1152921504606842880, %rbx # imm = 0xFFFFFFFFFFFF000
	testq	%rbx, %rax
	jne	.LBB149_105
# BB#104:
	callq	MemMan_Alloc
	orq	$7, %rax
	movq	%rax, 4088(%r15)
.LBB149_105:                            # %VirtMemMan_SetupPDPTEntry.exit.i.76
	andq	%rbx, %rax
	xorl	%ecx, %ecx
	movabsq	$4294967296, %rdx       # imm = 0x100000000
	cmpq	%rdx, %rax
	leaq	(%rax,%r13), %rax
	movabsq	$8589934592, %rdx       # imm = 0x200000000
	cmovbq	%rdx, %rcx
	movl	$2147483648, %edx       # imm = 0x80000000
	leaq	1073741971(%rdx), %rdx
	movq	%rdx, 3960(%rcx,%rax)
	movq	8(%r12), %rax
	cmpq	%r15, %rax
	jne	.LBB149_107
# BB#106:
	movq	4088(%r15), %rax
	movq	(%r12), %rcx
	movq	%rax, 4088(%rcx)
	movabsq	$-18253611008, %rax     # imm = 0xFFFFFFFBC0000000
	#APP
	invlpg	(%rax)
	#NO_APP
	jmp	.LBB149_107
.LBB149_101:
	movl	$2147483648, %r12d      # imm = 0x80000000
	.align	16, 0x90
.LBB149_102:                            # %.preheader.i.75
                                        # =>This Inner Loop Header: Depth=1
	leaq	1073741824(%r12,%rbx), %rdx
	leaq	1073741824(%r14,%rbx), %rsi
	movl	$0, (%rsp)
	movl	$1, %ecx
	movl	$2, %r8d
	movl	$7, %r9d
	movq	%r15, %rdi
	callq	VirtMemMan_MapLPage
	addq	$2097152, %rbx          # imm = 0x200000
	cmpq	$1073741824, %rbx       # imm = 0x40000000
	jne	.LBB149_102
.LBB149_107:                            # %VirtMemMan_MapHPage.exit77
	movq	virtMemData, %r14
	xorl	%ebx, %ebx
	cmpb	$0, 16(%r14)
	je	.LBB149_108
# BB#110:
	movq	4088(%r15), %rax
	movabsq	$1152921504606842880, %rbx # imm = 0xFFFFFFFFFFFF000
	testq	%rbx, %rax
	jne	.LBB149_112
# BB#111:
	callq	MemMan_Alloc
	orq	$7, %rax
	movq	%rax, 4088(%r15)
.LBB149_112:                            # %VirtMemMan_SetupPDPTEntry.exit.i.81
	andq	%rbx, %rax
	xorl	%ecx, %ecx
	movabsq	$4294967296, %r12       # imm = 0x100000000
	cmpq	%r12, %rax
	leaq	(%rax,%r13), %rax
	movabsq	$8589934592, %rdx       # imm = 0x200000000
	cmovbq	%rdx, %rcx
	movq	$139, 3968(%rcx,%rax)
	movq	8(%r14), %rax
	cmpq	%r15, %rax
	jne	.LBB149_114
# BB#113:
	movq	4088(%r15), %rax
	movq	(%r14), %rcx
	movq	%rax, 4088(%rcx)
	#APP
	invlpg	(%r13)
	#NO_APP
	jmp	.LBB149_114
.LBB149_108:
	movabsq	$4294967296, %r12       # imm = 0x100000000
	.align	16, 0x90
.LBB149_109:                            # %.preheader.i.80
                                        # =>This Inner Loop Header: Depth=1
	leaq	(%rbx,%r13), %rsi
	movl	$0, (%rsp)
	movl	$1, %ecx
	movl	$1, %r8d
	movl	$7, %r9d
	movq	%r15, %rdi
	movq	%rbx, %rdx
	callq	VirtMemMan_MapLPage
	addq	$2097152, %rbx          # imm = 0x200000
	cmpq	$1073741824, %rbx       # imm = 0x40000000
	jne	.LBB149_109
.LBB149_114:                            # %VirtMemMan_MapHPage.exit82
	movq	virtMemData, %r14
	xorl	%ebx, %ebx
	cmpb	$0, 16(%r14)
	je	.LBB149_115
# BB#116:
	movq	4088(%r15), %rax
	movabsq	$1152921504606842880, %rbx # imm = 0xFFFFFFFFFFFF000
	testq	%rbx, %rax
	jne	.LBB149_118
# BB#117:
	callq	MemMan_Alloc
	orq	$7, %rax
	movq	%rax, 4088(%r15)
.LBB149_118:                            # %VirtMemMan_SetupPDPTEntry.exit.i.86
	andq	%rbx, %rax
	xorl	%ecx, %ecx
	cmpq	%r12, %rax
	leaq	(%rax,%r13), %rax
	movabsq	$8589934592, %rdx       # imm = 0x200000000
	cmovbq	%rdx, %rcx
	movq	$1073741963, 3976(%rcx,%rax) # imm = 0x4000008B
	movq	8(%r14), %rax
	cmpq	%r15, %rax
	jne	.LBB149_120
# BB#119:
	movq	4088(%r15), %rax
	movq	(%r14), %rcx
	movq	%rax, 4088(%rcx)
	movabsq	$-16106127360, %rax     # imm = 0xFFFFFFFC40000000
	#APP
	invlpg	(%rax)
	#NO_APP
	jmp	.LBB149_120
	.align	16, 0x90
.LBB149_115:                            # %.preheader.i.85
                                        # =>This Inner Loop Header: Depth=1
	leaq	1073741824(%rbx), %rdx
	leaq	1073741824(%r13,%rbx), %rsi
	movl	$0, (%rsp)
	movl	$1, %ecx
	movl	$1, %r8d
	movl	$7, %r9d
	movq	%r15, %rdi
	callq	VirtMemMan_MapLPage
	addq	$2097152, %rbx          # imm = 0x200000
	cmpq	$1073741824, %rbx       # imm = 0x40000000
	jne	.LBB149_115
.LBB149_120:                            # %VirtMemMan_MapHPage.exit87
	movabsq	$-15032385536, %r14     # imm = 0xFFFFFFFC80000000
	movq	virtMemData, %rbx
	cmpb	$0, 16(%rbx)
	je	.LBB149_121
# BB#123:
	movq	4088(%r15), %rax
	movabsq	$1152921504606842880, %r12 # imm = 0xFFFFFFFFFFFF000
	testq	%r12, %rax
	jne	.LBB149_125
# BB#124:
	callq	MemMan_Alloc
	orq	$7, %rax
	movq	%rax, 4088(%r15)
.LBB149_125:                            # %VirtMemMan_SetupPDPTEntry.exit.i.91
	andq	%r12, %rax
	xorl	%ecx, %ecx
	movabsq	$4294967296, %rdx       # imm = 0x100000000
	cmpq	%rdx, %rax
	leaq	(%rax,%r13), %rax
	movabsq	$8589934592, %rdx       # imm = 0x200000000
	cmovbq	%rdx, %rcx
	movl	$2147483648, %edx       # imm = 0x80000000
	leaq	139(%rdx), %rdx
	movq	%rdx, 3984(%rcx,%rax)
	movq	8(%rbx), %rax
	cmpq	%r15, %rax
	jne	.LBB149_127
# BB#126:
	movq	4088(%r15), %rax
	movq	(%rbx), %rcx
	movq	%rax, 4088(%rcx)
	#APP
	invlpg	(%r14)
	#NO_APP
	jmp	.LBB149_127
.LBB149_121:
	movl	$3221225472, %r12d      # imm = 0xC0000000
	movl	$2147483648, %ebx       # imm = 0x80000000
	.align	16, 0x90
.LBB149_122:                            # %.preheader.i.90
                                        # =>This Inner Loop Header: Depth=1
	leaq	-2147483648(%rbx,%r14), %rsi
	movl	$0, (%rsp)
	movl	$1, %ecx
	movl	$1, %r8d
	movl	$7, %r9d
	movq	%r15, %rdi
	movq	%rbx, %rdx
	callq	VirtMemMan_MapLPage
	addq	$2097152, %rbx          # imm = 0x200000
	cmpq	%r12, %rbx
	jne	.LBB149_122
.LBB149_127:                            # %VirtMemMan_MapHPage.exit92
	movq	virtMemData, %r12
	xorl	%ebx, %ebx
	cmpb	$0, 16(%r12)
	je	.LBB149_128
# BB#130:
	movq	4088(%r15), %rax
	movabsq	$1152921504606842880, %rbx # imm = 0xFFFFFFFFFFFF000
	testq	%rbx, %rax
	jne	.LBB149_132
# BB#131:
	callq	MemMan_Alloc
	orq	$7, %rax
	movq	%rax, 4088(%r15)
.LBB149_132:                            # %VirtMemMan_SetupPDPTEntry.exit.i.96
	andq	%rbx, %rax
	xorl	%ecx, %ecx
	movabsq	$4294967296, %rdx       # imm = 0x100000000
	cmpq	%rdx, %rax
	leaq	(%r13,%rax), %rax
	movabsq	$8589934592, %rdx       # imm = 0x200000000
	cmovbq	%rdx, %rcx
	movl	$2147483648, %edx       # imm = 0x80000000
	addq	$1073741963, %rdx       # imm = 0x4000008B
	movq	%rdx, 3992(%rcx,%rax)
	movq	8(%r12), %rax
	cmpq	%r15, %rax
	jne	.LBB149_134
# BB#133:
	movq	4088(%r15), %rax
	movq	(%r12), %rcx
	movq	%rax, 4088(%rcx)
	movabsq	$-13958643712, %rax     # imm = 0xFFFFFFFCC0000000
	#APP
	invlpg	(%rax)
	#NO_APP
	jmp	.LBB149_134
.LBB149_128:
	movl	$2147483648, %r12d      # imm = 0x80000000
	.align	16, 0x90
.LBB149_129:                            # %.preheader.i.95
                                        # =>This Inner Loop Header: Depth=1
	leaq	1073741824(%r12,%rbx), %rdx
	leaq	1073741824(%r14,%rbx), %rsi
	movl	$0, (%rsp)
	movl	$1, %ecx
	movl	$1, %r8d
	movl	$7, %r9d
	movq	%r15, %rdi
	callq	VirtMemMan_MapLPage
	addq	$2097152, %rbx          # imm = 0x200000
	cmpq	$1073741824, %rbx       # imm = 0x40000000
	jne	.LBB149_129
.LBB149_134:                            # %VirtMemMan_MapHPage.exit97
	movq	$8160, coreLocalSpace   # imm = 0x1FE0
	movabsq	$-8589930496, %r12      # imm = 0xFFFFFFFE00001000
.LBB149_136:                            # %.preheader.i.3
	movabsq	$-1099511627776, %r14   # imm = 0xFFFFFF0000000000
	movl	$2, %edi
	callq	MemMan_Alloc4KiBPageCont
	movl	$0, 8(%rsp)
	movl	$6, (%rsp)
	xorl	%ebx, %ebx
	movl	$8192, %ecx             # imm = 0x2000
	movl	$1, %r8d
	xorl	%r9d, %r9d
	movq	%r15, %rdi
	movq	%r14, %rsi
	movq	%rax, %rdx
	callq	VirtMemMan_Map
	movl	$-1073741696, %ecx      # imm = 0xFFFFFFFFC0000080
	#APP
	rdmsr
	#NO_APP
	orl	$2048, %eax             # imm = 0x800
	movl	$-1073741696, %ecx      # imm = 0xFFFFFFFFC0000080
	#APP
	wrmsr
	#NO_APP
	movq	4080(%r15), %rcx
	movq	virtMemData, %rax
	movq	%rcx, 24(%rax)
	movq	24(%rax), %rcx
	movq	(%rax), %rdx
	movq	%rcx, 4080(%rdx)
	movq	8(%rax), %rcx
	cmpq	%r12, %rcx
	sete	%sil
	cmpq	%r15, %rcx
	sete	%dl
	orb	%sil, %dl
	.align	16, 0x90
.LBB149_137:                            # =>This Inner Loop Header: Depth=1
	cmpl	$510, %ebx              # imm = 0x1FE
	je	.LBB149_141
# BB#138:                               #   in Loop: Header=BB149_137 Depth=1
	testb	%dl, %dl
	jne	.LBB149_140
# BB#139:                               #   in Loop: Header=BB149_137 Depth=1
	movq	(%rax), %rsi
	movq	(%rsi,%rbx,8), %rsi
	movq	%rsi, (%rcx,%rbx,8)
.LBB149_140:                            #   in Loop: Header=BB149_137 Depth=1
	movq	(%r15,%rbx,8), %rsi
	movq	(%rax), %rdi
	movq	%rsi, (%rdi,%rbx,8)
.LBB149_141:                            #   in Loop: Header=BB149_137 Depth=1
	incq	%rbx
	cmpq	$512, %rbx              # imm = 0x200
	jne	.LBB149_137
# BB#142:                               # %VirtMemMan_SetCurrent.exit7
	movq	8(%rax), %rdi
	movq	(%rax), %rsi
	callq	VirtMemMan_GetPhysicalAddress
	#APP
	movq	%rax, %cr3
	#NO_APP
	movq	virtMemData, %rax
	movq	%r15, 8(%rax)
	movq	virtMemData, %rax
	movq	%r14, virtMemData
	movq	4080(%r15), %rcx
	movq	%rcx, 24(%r14)
	movq	8(%rax), %rcx
	movq	%rcx, 8(%r14)
	movb	16(%rax), %al
	movb	%al, 16(%r14)
	movl	pos, %eax
	movq	%rax, %rcx
	addq	$8096, %rcx             # imm = 0x1FA0
	cmpq	$5242881, %rcx          # imm = 0x500001
	jb	.LBB149_144
# BB#143:
	#APP
	cli
	hlt
	#NO_APP
	movl	pos, %eax
.LBB149_144:                            # %bootstrap_malloc.exit
	movl	%eax, %ecx
	leaq	mem_pool(%rcx), %rbx
	addl	$8096, %eax             # imm = 0x1FA0
	movl	%eax, pos
	xorl	%esi, %esi
	movl	$8096, %edx             # imm = 0x1FA0
	movq	%rbx, %rdi
	callq	memset
	movq	virtMemData, %rax
	movq	%rbx, (%rax)
	movq	virtMemData, %rax
	movq	(%rax), %rcx
	testw	$4095, %cx              # imm = 0xFFF
	je	.LBB149_146
# BB#145:
	movq	(%rax), %rcx
	movl	$4095, %edx             # imm = 0xFFF
	andq	(%rax), %rdx
	negq	%rdx
	leaq	4096(%rcx,%rdx), %rcx
	movq	%rcx, (%rax)
	movq	virtMemData, %rax
.LBB149_146:                            # %.preheader.i
	movq	24(%rax), %rcx
	movq	(%rax), %rdx
	movq	%rcx, 4080(%rdx)
	movq	8(%rax), %rcx
	cmpq	%r12, %rcx
	sete	%bl
	cmpq	%r15, %rcx
	sete	%dl
	orb	%bl, %dl
	xorl	%esi, %esi
	.align	16, 0x90
.LBB149_147:                            # =>This Inner Loop Header: Depth=1
	cmpl	$510, %esi              # imm = 0x1FE
	je	.LBB149_151
# BB#148:                               #   in Loop: Header=BB149_147 Depth=1
	testb	%dl, %dl
	jne	.LBB149_150
# BB#149:                               #   in Loop: Header=BB149_147 Depth=1
	movq	(%rax), %rdi
	movq	(%rdi,%rsi,8), %rdi
	movq	%rdi, (%rcx,%rsi,8)
.LBB149_150:                            #   in Loop: Header=BB149_147 Depth=1
	movq	(%r15,%rsi,8), %rdi
	movq	(%rax), %rbx
	movq	%rdi, (%rbx,%rsi,8)
.LBB149_151:                            #   in Loop: Header=BB149_147 Depth=1
	incq	%rsi
	cmpq	$512, %rsi              # imm = 0x200
	jne	.LBB149_147
# BB#152:                               # %VirtMemMan_SetCurrent.exit
	movq	8(%rax), %rdi
	movq	(%rax), %rsi
	callq	VirtMemMan_GetPhysicalAddress
	#APP
	movq	%rax, %cr3
	#NO_APP
	movq	virtMemData, %rax
	movq	%r15, 8(%rax)
	addq	$56, %rsp
	popq	%rbx
	popq	%r12
	popq	%r13
	popq	%r14
	popq	%r15
	popq	%rbp
	retq
.Lfunc_end149:
	.size	VirtMemMan_Initialize, .Lfunc_end149-VirtMemMan_Initialize
	.cfi_endproc

	.globl	VirtMemMan_GetVirtualAddress
	.align	16, 0x90
	.type	VirtMemMan_GetVirtualAddress,@function
VirtMemMan_GetVirtualAddress:           # @VirtMemMan_GetVirtualAddress
	.cfi_startproc
# BB#0:
	pushq	%rbp
.Ltmp697:
	.cfi_def_cfa_offset 16
.Ltmp698:
	.cfi_offset %rbp, -16
	movq	%rsp, %rbp
.Ltmp699:
	.cfi_def_cfa_register %rbp
	movabsq	$-17179869184, %rcx     # imm = 0xFFFFFFFC00000000
	movabsq	$4294967296, %rdx       # imm = 0x100000000
	xorl	%eax, %eax
	cmpl	$2, %edi
	je	.LBB150_4
# BB#1:
	cmpl	$1, %edi
	jne	.LBB150_2
# BB#6:
	xorl	%eax, %eax
	cmpq	%rdx, %rsi
	jae	.LBB150_9
# BB#7:
	movabsq	$-21474836480, %rax     # imm = 0xFFFFFFFB00000000
	addq	%rax, %rsi
	jmp	.LBB150_8
.LBB150_4:
	xorl	%eax, %eax
	cmpq	%rdx, %rsi
	jae	.LBB150_9
# BB#5:
	addq	%rcx, %rsi
.LBB150_8:
	movq	%rsi, %rax
	jmp	.LBB150_9
.LBB150_2:
	testl	%edi, %edi
	jne	.LBB150_9
# BB#3:
	cmpq	%rdx, %rsi
	leaq	(%rcx,%rsi), %rcx
	sbbq	%rax, %rax
	andl	$1, %eax
	shlq	$33, %rax
	addq	%rcx, %rax
	popq	%rbp
	retq
.LBB150_9:
	popq	%rbp
	retq
.Lfunc_end150:
	.size	VirtMemMan_GetVirtualAddress, .Lfunc_end150-VirtMemMan_GetVirtualAddress
	.cfi_endproc

	.globl	VirtMemMan_MapHPage
	.align	16, 0x90
	.type	VirtMemMan_MapHPage,@function
VirtMemMan_MapHPage:                    # @VirtMemMan_MapHPage
	.cfi_startproc
# BB#0:
	pushq	%rbp
.Ltmp700:
	.cfi_def_cfa_offset 16
.Ltmp701:
	.cfi_offset %rbp, -16
	movq	%rsp, %rbp
.Ltmp702:
	.cfi_def_cfa_register %rbp
	pushq	%r15
	pushq	%r14
	pushq	%r13
	pushq	%r12
	pushq	%rbx
	subq	$56, %rsp
.Ltmp703:
	.cfi_offset %rbx, -56
.Ltmp704:
	.cfi_offset %r12, -48
.Ltmp705:
	.cfi_offset %r13, -40
.Ltmp706:
	.cfi_offset %r14, -32
.Ltmp707:
	.cfi_offset %r15, -24
	movl	%r9d, %r15d
	movq	%rdx, %rbx
	movl	16(%rbp), %r13d
	andq	$-1073741824, %rbx      # imm = 0xFFFFFFFFC0000000
	movq	virtMemData, %r9
	cmpb	$0, 16(%r9)
	je	.LBB151_1
# BB#3:
	movabsq	$1152921504606842880, %rdx # imm = 0xFFFFFFFFFFFF000
	movq	%rsi, %r10
	shrq	$39, %r10
	andl	$511, %r10d             # imm = 0x1FF
	movq	%rsi, %r14
	shrq	$30, %r14
	andl	$511, %r14d             # imm = 0x1FF
	movq	(%rdi,%r10,8), %rax
	movabsq	$9223372036854775675, %r11 # imm = 0x7FFFFFFFFFFFFF7B
	testq	%rdx, %rax
	jne	.LBB151_5
# BB#4:
	movq	%rsi, -56(%rbp)         # 8-byte Spill
	movq	%rdi, %r12
	movq	%r8, -48(%rbp)          # 8-byte Spill
	movq	%r9, -64(%rbp)          # 8-byte Spill
	movq	%r10, -72(%rbp)         # 8-byte Spill
	movl	%ecx, -76(%rbp)         # 4-byte Spill
	callq	MemMan_Alloc
	movabsq	$1152921504606842880, %rdx # imm = 0xFFFFFFFFFFFF000
